Archive member included to satisfy reference by file (symbol)

c:/program files/microchip/xc32/v3.01/bin/bin/../../lib/gcc/pic32c/8.3.1/../../../../pic32c/lib/thumb/v7e-m+fp/hard\libpic32c.a(data_init.o)
                              build/LAN9255_SQI_INDIRECT_MODE/production/_ext/1171490990/startup_xc32.o (__pic32c_data_initialization)
c:/program files/microchip/xc32/v3.01/bin/bin/../../lib/gcc/pic32c/8.3.1/thumb/v7e-m+fp/hard\libgcc.a(_aeabi_uldivmod.o)
                              build/LAN9255_SQI_INDIRECT_MODE/production/_ext/504274921/plib_sercom0_usart.o (__aeabi_uldivmod)
c:/program files/microchip/xc32/v3.01/bin/bin/../../lib/gcc/pic32c/8.3.1/thumb/v7e-m+fp/hard\libgcc.a(_udivmoddi4.o)
                              c:/program files/microchip/xc32/v3.01/bin/bin/../../lib/gcc/pic32c/8.3.1/thumb/v7e-m+fp/hard\libgcc.a(_aeabi_uldivmod.o) (__udivmoddi4)
c:/program files/microchip/xc32/v3.01/bin/bin/../../lib/gcc/pic32c/8.3.1/thumb/v7e-m+fp/hard\libgcc.a(_dvmd_tls.o)
                              c:/program files/microchip/xc32/v3.01/bin/bin/../../lib/gcc/pic32c/8.3.1/thumb/v7e-m+fp/hard\libgcc.a(_aeabi_uldivmod.o) (__aeabi_ldiv0)
c:/program files/microchip/xc32/v3.01/bin/bin/../../lib/gcc/pic32c/8.3.1/../../../../pic32c/lib/thumb/v7e-m+fp/hard\libc_nano.a(_lib_a-sprintf.cdnopuxX.o)
                              (_sprintf_cdnopuxX)
c:/program files/microchip/xc32/v3.01/bin/bin/../../lib/gcc/pic32c/8.3.1/../../../../pic32c/lib/thumb/v7e-m+fp/hard\libc_nano.a(lib_a-init.o)
                              build/LAN9255_SQI_INDIRECT_MODE/production/_ext/1171490990/startup_xc32.o (__libc_init_array)
c:/program files/microchip/xc32/v3.01/bin/bin/../../lib/gcc/pic32c/8.3.1/../../../../pic32c/lib/thumb/v7e-m+fp/hard\libc_nano.a(lib_a-malloc.o)
                              build/LAN9255_SQI_INDIRECT_MODE/production/_ext/1671622016/Drivers.o (malloc)
c:/program files/microchip/xc32/v3.01/bin/bin/../../lib/gcc/pic32c/8.3.1/../../../../pic32c/lib/thumb/v7e-m+fp/hard\libc_nano.a(lib_a-memcpy-stub.o)
                              build/LAN9255_SQI_INDIRECT_MODE/production/_ext/1593096446/plib_nvmctrl.o (memcpy)
c:/program files/microchip/xc32/v3.01/bin/bin/../../lib/gcc/pic32c/8.3.1/../../../../pic32c/lib/thumb/v7e-m+fp/hard\libc_nano.a(lib_a-memset.o)
                              build/LAN9255_SQI_INDIRECT_MODE/production/_ext/1671622016/Drivers.o (memset)
c:/program files/microchip/xc32/v3.01/bin/bin/../../lib/gcc/pic32c/8.3.1/../../../../pic32c/lib/thumb/v7e-m+fp/hard\libc_nano.a(lib_a-nano-freer.o)
                              c:/program files/microchip/xc32/v3.01/bin/bin/../../lib/gcc/pic32c/8.3.1/../../../../pic32c/lib/thumb/v7e-m+fp/hard\libc_nano.a(lib_a-malloc.o) (_free_r)
c:/program files/microchip/xc32/v3.01/bin/bin/../../lib/gcc/pic32c/8.3.1/../../../../pic32c/lib/thumb/v7e-m+fp/hard\libc_nano.a(lib_a-nano-mallocr.o)
                              c:/program files/microchip/xc32/v3.01/bin/bin/../../lib/gcc/pic32c/8.3.1/../../../../pic32c/lib/thumb/v7e-m+fp/hard\libc_nano.a(lib_a-malloc.o) (_malloc_r)
c:/program files/microchip/xc32/v3.01/bin/bin/../../lib/gcc/pic32c/8.3.1/../../../../pic32c/lib/thumb/v7e-m+fp/hard\libc_nano.a(lib_a-sbrkr.o)
                              c:/program files/microchip/xc32/v3.01/bin/bin/../../lib/gcc/pic32c/8.3.1/../../../../pic32c/lib/thumb/v7e-m+fp/hard\libc_nano.a(lib_a-nano-mallocr.o) (_sbrk_r)
c:/program files/microchip/xc32/v3.01/bin/bin/../../lib/gcc/pic32c/8.3.1/../../../../pic32c/lib/thumb/v7e-m+fp/hard\libc_nano.a(lib_a-strlen.o)
                              build/LAN9255_SQI_INDIRECT_MODE/production/_ext/108134065/objdef.o (strlen)
c:/program files/microchip/xc32/v3.01/bin/bin/../../lib/gcc/pic32c/8.3.1/../../../../pic32c/lib/thumb/v7e-m+fp/hard\libc_nano.a(_lib_a-nano-vfprintf.cdnopuxX.o)
                              c:/program files/microchip/xc32/v3.01/bin/bin/../../lib/gcc/pic32c/8.3.1/../../../../pic32c/lib/thumb/v7e-m+fp/hard\libc_nano.a(_lib_a-sprintf.cdnopuxX.o) (_vfprintf_cdnopuxX)
c:/program files/microchip/xc32/v3.01/bin/bin/../../lib/gcc/pic32c/8.3.1/../../../../pic32c/lib/thumb/v7e-m+fp/hard\libc_nano.a(lib_a-__ssfputs.o)
                              c:/program files/microchip/xc32/v3.01/bin/bin/../../lib/gcc/pic32c/8.3.1/../../../../pic32c/lib/thumb/v7e-m+fp/hard\libc_nano.a(_lib_a-nano-vfprintf.cdnopuxX.o) (__ssfputs_r)
c:/program files/microchip/xc32/v3.01/bin/bin/../../lib/gcc/pic32c/8.3.1/../../../../pic32c/lib/thumb/v7e-m+fp/hard\libc_nano.a(lib_a-findfp.o)
                              c:/program files/microchip/xc32/v3.01/bin/bin/../../lib/gcc/pic32c/8.3.1/../../../../pic32c/lib/thumb/v7e-m+fp/hard\libc_nano.a(_lib_a-nano-vfprintf.cdnopuxX.o) (__sinit)
c:/program files/microchip/xc32/v3.01/bin/bin/../../lib/gcc/pic32c/8.3.1/../../../../pic32c/lib/thumb/v7e-m+fp/hard\libc_nano.a(lib_a-fputwc.o)
                              c:/program files/microchip/xc32/v3.01/bin/bin/../../lib/gcc/pic32c/8.3.1/../../../../pic32c/lib/thumb/v7e-m+fp/hard\libc_nano.a(lib_a-__ssfputs.o) (_fputwc_r)
c:/program files/microchip/xc32/v3.01/bin/bin/../../lib/gcc/pic32c/8.3.1/../../../../pic32c/lib/thumb/v7e-m+fp/hard\libc_nano.a(lib_a-fwalk.o)
                              c:/program files/microchip/xc32/v3.01/bin/bin/../../lib/gcc/pic32c/8.3.1/../../../../pic32c/lib/thumb/v7e-m+fp/hard\libc_nano.a(lib_a-findfp.o) (_fwalk_reent)
c:/program files/microchip/xc32/v3.01/bin/bin/../../lib/gcc/pic32c/8.3.1/../../../../pic32c/lib/thumb/v7e-m+fp/hard\libc_nano.a(lib_a-impure.o)
                              c:/program files/microchip/xc32/v3.01/bin/bin/../../lib/gcc/pic32c/8.3.1/../../../../pic32c/lib/thumb/v7e-m+fp/hard\libc_nano.a(lib_a-findfp.o) (_global_impure_ptr)
c:/program files/microchip/xc32/v3.01/bin/bin/../../lib/gcc/pic32c/8.3.1/../../../../pic32c/lib/thumb/v7e-m+fp/hard\libc_nano.a(lib_a-locale.o)
                              c:/program files/microchip/xc32/v3.01/bin/bin/../../lib/gcc/pic32c/8.3.1/../../../../pic32c/lib/thumb/v7e-m+fp/hard\libc_nano.a(lib_a-fputwc.o) (__locale_mb_cur_max)
c:/program files/microchip/xc32/v3.01/bin/bin/../../lib/gcc/pic32c/8.3.1/../../../../pic32c/lib/thumb/v7e-m+fp/hard\libc_nano.a(lib_a-mbtowc_r.o)
                              c:/program files/microchip/xc32/v3.01/bin/bin/../../lib/gcc/pic32c/8.3.1/../../../../pic32c/lib/thumb/v7e-m+fp/hard\libc_nano.a(lib_a-locale.o) (__ascii_mbtowc)
c:/program files/microchip/xc32/v3.01/bin/bin/../../lib/gcc/pic32c/8.3.1/../../../../pic32c/lib/thumb/v7e-m+fp/hard\libc_nano.a(lib_a-memchr.o)
                              c:/program files/microchip/xc32/v3.01/bin/bin/../../lib/gcc/pic32c/8.3.1/../../../../pic32c/lib/thumb/v7e-m+fp/hard\libc_nano.a(_lib_a-nano-vfprintf.cdnopuxX.o) (memchr)
c:/program files/microchip/xc32/v3.01/bin/bin/../../lib/gcc/pic32c/8.3.1/../../../../pic32c/lib/thumb/v7e-m+fp/hard\libc_nano.a(lib_a-mlock.o)
                              c:/program files/microchip/xc32/v3.01/bin/bin/../../lib/gcc/pic32c/8.3.1/../../../../pic32c/lib/thumb/v7e-m+fp/hard\libc_nano.a(lib_a-nano-freer.o) (__malloc_lock)
c:/program files/microchip/xc32/v3.01/bin/bin/../../lib/gcc/pic32c/8.3.1/../../../../pic32c/lib/thumb/v7e-m+fp/hard\libc_nano.a(lib_a-nano-vfprintf_i.o)
                              c:/program files/microchip/xc32/v3.01/bin/bin/../../lib/gcc/pic32c/8.3.1/../../../../pic32c/lib/thumb/v7e-m+fp/hard\libc_nano.a(_lib_a-nano-vfprintf.cdnopuxX.o) (_printf_common)
c:/program files/microchip/xc32/v3.01/bin/bin/../../lib/gcc/pic32c/8.3.1/../../../../pic32c/lib/thumb/v7e-m+fp/hard\libc_nano.a(lib_a-reent.o)
                              c:/program files/microchip/xc32/v3.01/bin/bin/../../lib/gcc/pic32c/8.3.1/../../../../pic32c/lib/thumb/v7e-m+fp/hard\libc_nano.a(lib_a-sbrkr.o) (errno)
c:/program files/microchip/xc32/v3.01/bin/bin/../../lib/gcc/pic32c/8.3.1/../../../../pic32c/lib/thumb/v7e-m+fp/hard\libc_nano.a(lib_a-stdio.o)
                              c:/program files/microchip/xc32/v3.01/bin/bin/../../lib/gcc/pic32c/8.3.1/../../../../pic32c/lib/thumb/v7e-m+fp/hard\libc_nano.a(lib_a-findfp.o) (__sread)
c:/program files/microchip/xc32/v3.01/bin/bin/../../lib/gcc/pic32c/8.3.1/../../../../pic32c/lib/thumb/v7e-m+fp/hard\libc_nano.a(lib_a-strcmp.o)
                              c:/program files/microchip/xc32/v3.01/bin/bin/../../lib/gcc/pic32c/8.3.1/../../../../pic32c/lib/thumb/v7e-m+fp/hard\libc_nano.a(lib_a-locale.o) (strcmp)
c:/program files/microchip/xc32/v3.01/bin/bin/../../lib/gcc/pic32c/8.3.1/../../../../pic32c/lib/thumb/v7e-m+fp/hard\libc_nano.a(lib_a-wbuf.o)
                              c:/program files/microchip/xc32/v3.01/bin/bin/../../lib/gcc/pic32c/8.3.1/../../../../pic32c/lib/thumb/v7e-m+fp/hard\libc_nano.a(lib_a-__ssfputs.o) (__swbuf_r)
c:/program files/microchip/xc32/v3.01/bin/bin/../../lib/gcc/pic32c/8.3.1/../../../../pic32c/lib/thumb/v7e-m+fp/hard\libc_nano.a(lib_a-wcrtomb.o)
                              c:/program files/microchip/xc32/v3.01/bin/bin/../../lib/gcc/pic32c/8.3.1/../../../../pic32c/lib/thumb/v7e-m+fp/hard\libc_nano.a(lib_a-fputwc.o) (_wcrtomb_r)
c:/program files/microchip/xc32/v3.01/bin/bin/../../lib/gcc/pic32c/8.3.1/../../../../pic32c/lib/thumb/v7e-m+fp/hard\libc_nano.a(lib_a-wctomb_r.o)
                              c:/program files/microchip/xc32/v3.01/bin/bin/../../lib/gcc/pic32c/8.3.1/../../../../pic32c/lib/thumb/v7e-m+fp/hard\libc_nano.a(lib_a-locale.o) (__ascii_wctomb)
c:/program files/microchip/xc32/v3.01/bin/bin/../../lib/gcc/pic32c/8.3.1/../../../../pic32c/lib/thumb/v7e-m+fp/hard\libc_nano.a(lib_a-writer.o)
                              c:/program files/microchip/xc32/v3.01/bin/bin/../../lib/gcc/pic32c/8.3.1/../../../../pic32c/lib/thumb/v7e-m+fp/hard\libc_nano.a(lib_a-stdio.o) (_write_r)
c:/program files/microchip/xc32/v3.01/bin/bin/../../lib/gcc/pic32c/8.3.1/../../../../pic32c/lib/thumb/v7e-m+fp/hard\libc_nano.a(lib_a-wsetup.o)
                              c:/program files/microchip/xc32/v3.01/bin/bin/../../lib/gcc/pic32c/8.3.1/../../../../pic32c/lib/thumb/v7e-m+fp/hard\libc_nano.a(_lib_a-nano-vfprintf.cdnopuxX.o) (__swsetup_r)
c:/program files/microchip/xc32/v3.01/bin/bin/../../lib/gcc/pic32c/8.3.1/../../../../pic32c/lib/thumb/v7e-m+fp/hard\libc_nano.a(lib_a-closer.o)
                              c:/program files/microchip/xc32/v3.01/bin/bin/../../lib/gcc/pic32c/8.3.1/../../../../pic32c/lib/thumb/v7e-m+fp/hard\libc_nano.a(lib_a-stdio.o) (_close_r)
c:/program files/microchip/xc32/v3.01/bin/bin/../../lib/gcc/pic32c/8.3.1/../../../../pic32c/lib/thumb/v7e-m+fp/hard\libc_nano.a(lib_a-ctype_.o)
                              c:/program files/microchip/xc32/v3.01/bin/bin/../../lib/gcc/pic32c/8.3.1/../../../../pic32c/lib/thumb/v7e-m+fp/hard\libc_nano.a(lib_a-locale.o) (_ctype_)
c:/program files/microchip/xc32/v3.01/bin/bin/../../lib/gcc/pic32c/8.3.1/../../../../pic32c/lib/thumb/v7e-m+fp/hard\libc_nano.a(lib_a-fflush.o)
                              c:/program files/microchip/xc32/v3.01/bin/bin/../../lib/gcc/pic32c/8.3.1/../../../../pic32c/lib/thumb/v7e-m+fp/hard\libc_nano.a(lib_a-findfp.o) (_fflush_r)
c:/program files/microchip/xc32/v3.01/bin/bin/../../lib/gcc/pic32c/8.3.1/../../../../pic32c/lib/thumb/v7e-m+fp/hard\libc_nano.a(lib_a-lseekr.o)
                              c:/program files/microchip/xc32/v3.01/bin/bin/../../lib/gcc/pic32c/8.3.1/../../../../pic32c/lib/thumb/v7e-m+fp/hard\libc_nano.a(lib_a-stdio.o) (_lseek_r)
c:/program files/microchip/xc32/v3.01/bin/bin/../../lib/gcc/pic32c/8.3.1/../../../../pic32c/lib/thumb/v7e-m+fp/hard\libc_nano.a(lib_a-makebuf.o)
                              c:/program files/microchip/xc32/v3.01/bin/bin/../../lib/gcc/pic32c/8.3.1/../../../../pic32c/lib/thumb/v7e-m+fp/hard\libc_nano.a(lib_a-wsetup.o) (__smakebuf_r)
c:/program files/microchip/xc32/v3.01/bin/bin/../../lib/gcc/pic32c/8.3.1/../../../../pic32c/lib/thumb/v7e-m+fp/hard\libc_nano.a(lib_a-readr.o)
                              c:/program files/microchip/xc32/v3.01/bin/bin/../../lib/gcc/pic32c/8.3.1/../../../../pic32c/lib/thumb/v7e-m+fp/hard\libc_nano.a(lib_a-stdio.o) (_read_r)
c:/program files/microchip/xc32/v3.01/bin/bin/../../lib/gcc/pic32c/8.3.1/../../../../pic32c/lib/thumb/v7e-m+fp/hard\libc_nano.a(lib_a-fstatr.o)
                              c:/program files/microchip/xc32/v3.01/bin/bin/../../lib/gcc/pic32c/8.3.1/../../../../pic32c/lib/thumb/v7e-m+fp/hard\libc_nano.a(lib_a-makebuf.o) (_fstat_r)
c:/program files/microchip/xc32/v3.01/bin/bin/../../lib/gcc/pic32c/8.3.1/../../../../pic32c/lib/thumb/v7e-m+fp/hard\libc_nano.a(lib_a-isattyr.o)
                              c:/program files/microchip/xc32/v3.01/bin/bin/../../lib/gcc/pic32c/8.3.1/../../../../pic32c/lib/thumb/v7e-m+fp/hard\libc_nano.a(lib_a-makebuf.o) (_isatty_r)
c:/program files/microchip/xc32/v3.01/bin/bin/../../lib/gcc/pic32c/8.3.1/../../../../pic32c/lib/thumb/v7e-m+fp/hard\libpic32c.a(_close.o)
                              c:/program files/microchip/xc32/v3.01/bin/bin/../../lib/gcc/pic32c/8.3.1/../../../../pic32c/lib/thumb/v7e-m+fp/hard\libc_nano.a(lib_a-closer.o) (_close)
c:/program files/microchip/xc32/v3.01/bin/bin/../../lib/gcc/pic32c/8.3.1/../../../../pic32c/lib/thumb/v7e-m+fp/hard\libpic32c.a(_fstat.o)
                              c:/program files/microchip/xc32/v3.01/bin/bin/../../lib/gcc/pic32c/8.3.1/../../../../pic32c/lib/thumb/v7e-m+fp/hard\libc_nano.a(lib_a-fstatr.o) (_fstat)
c:/program files/microchip/xc32/v3.01/bin/bin/../../lib/gcc/pic32c/8.3.1/../../../../pic32c/lib/thumb/v7e-m+fp/hard\libpic32c.a(_isatty.o)
                              c:/program files/microchip/xc32/v3.01/bin/bin/../../lib/gcc/pic32c/8.3.1/../../../../pic32c/lib/thumb/v7e-m+fp/hard\libc_nano.a(lib_a-isattyr.o) (_isatty)
c:/program files/microchip/xc32/v3.01/bin/bin/../../lib/gcc/pic32c/8.3.1/../../../../pic32c/lib/thumb/v7e-m+fp/hard\libpic32c.a(_lseek.o)
                              c:/program files/microchip/xc32/v3.01/bin/bin/../../lib/gcc/pic32c/8.3.1/../../../../pic32c/lib/thumb/v7e-m+fp/hard\libc_nano.a(lib_a-lseekr.o) (_lseek)
c:/program files/microchip/xc32/v3.01/bin/bin/../../lib/gcc/pic32c/8.3.1/../../../../pic32c/lib/thumb/v7e-m+fp/hard\libpic32c.a(_read.o)
                              c:/program files/microchip/xc32/v3.01/bin/bin/../../lib/gcc/pic32c/8.3.1/../../../../pic32c/lib/thumb/v7e-m+fp/hard\libc_nano.a(lib_a-readr.o) (_read)
c:/program files/microchip/xc32/v3.01/bin/bin/../../lib/gcc/pic32c/8.3.1/../../../../pic32c/lib/thumb/v7e-m+fp/hard\libpic32c.a(sbrk.o)
                              c:/program files/microchip/xc32/v3.01/bin/bin/../../lib/gcc/pic32c/8.3.1/../../../../pic32c/lib/thumb/v7e-m+fp/hard\libc_nano.a(lib_a-sbrkr.o) (_sbrk)
c:/program files/microchip/xc32/v3.01/bin/bin/../../lib/gcc/pic32c/8.3.1/../../../../pic32c/lib/thumb/v7e-m+fp/hard\libpic32c.a(_write.o)
                              c:/program files/microchip/xc32/v3.01/bin/bin/../../lib/gcc/pic32c/8.3.1/../../../../pic32c/lib/thumb/v7e-m+fp/hard\libc_nano.a(lib_a-writer.o) (_write)
c:/program files/microchip/xc32/v3.01/bin/bin/../../lib/gcc/pic32c/8.3.1/../../../../pic32c/lib/thumb/v7e-m+fp/hard\libpic32c.a(close.o)
                              c:/program files/microchip/xc32/v3.01/bin/bin/../../lib/gcc/pic32c/8.3.1/../../../../pic32c/lib/thumb/v7e-m+fp/hard\libpic32c.a(_close.o) (close)
c:/program files/microchip/xc32/v3.01/bin/bin/../../lib/gcc/pic32c/8.3.1/../../../../pic32c/lib/thumb/v7e-m+fp/hard\libpic32c.a(fstat.o)
                              c:/program files/microchip/xc32/v3.01/bin/bin/../../lib/gcc/pic32c/8.3.1/../../../../pic32c/lib/thumb/v7e-m+fp/hard\libpic32c.a(_fstat.o) (fstat)
c:/program files/microchip/xc32/v3.01/bin/bin/../../lib/gcc/pic32c/8.3.1/../../../../pic32c/lib/thumb/v7e-m+fp/hard\libpic32c.a(isatty.o)
                              c:/program files/microchip/xc32/v3.01/bin/bin/../../lib/gcc/pic32c/8.3.1/../../../../pic32c/lib/thumb/v7e-m+fp/hard\libpic32c.a(_isatty.o) (isatty)
c:/program files/microchip/xc32/v3.01/bin/bin/../../lib/gcc/pic32c/8.3.1/../../../../pic32c/lib/thumb/v7e-m+fp/hard\libpic32c.a(lseek.o)
                              c:/program files/microchip/xc32/v3.01/bin/bin/../../lib/gcc/pic32c/8.3.1/../../../../pic32c/lib/thumb/v7e-m+fp/hard\libpic32c.a(_lseek.o) (lseek)
c:/program files/microchip/xc32/v3.01/bin/bin/../../lib/gcc/pic32c/8.3.1/../../../../pic32c/lib/thumb/v7e-m+fp/hard\libpic32c.a(read.o)
                              c:/program files/microchip/xc32/v3.01/bin/bin/../../lib/gcc/pic32c/8.3.1/../../../../pic32c/lib/thumb/v7e-m+fp/hard\libpic32c.a(_read.o) (read)
c:/program files/microchip/xc32/v3.01/bin/bin/../../lib/gcc/pic32c/8.3.1/../../../../pic32c/lib/thumb/v7e-m+fp/hard\libpic32c.a(write.o)
                              c:/program files/microchip/xc32/v3.01/bin/bin/../../lib/gcc/pic32c/8.3.1/../../../../pic32c/lib/thumb/v7e-m+fp/hard\libpic32c.a(_write.o) (write)

Allocating common symbols
Common symbol       size              file

b3BufferMode        0x1               build/LAN9255_SQI_INDIRECT_MODE/production/_ext/108134065/ecatslv.o
nEcatStateTrans     0x2               build/LAN9255_SQI_INDIRECT_MODE/production/_ext/108134065/ecatslv.o
EcatWdCounter       0x2               build/LAN9255_SQI_INDIRECT_MODE/production/_ext/108134065/ecatslv.o
sSendEmcyQueue      0x10              build/LAN9255_SQI_INDIRECT_MODE/production/_ext/108134065/emcy.o
bApplEsmPending     0x1               build/LAN9255_SQI_INDIRECT_MODE/production/_ext/108134065/ecatslv.o
pCoeSendStored      0x4               build/LAN9255_SQI_INDIRECT_MODE/production/_ext/108134065/ecatcoe.o
pAPPL_EEPROM_Store  0x4               build/LAN9255_SQI_INDIRECT_MODE/production/_ext/108134065/ecatappl.o
nSdoInfoIndex       0x2               build/LAN9255_SQI_INDIRECT_MODE/production/_ext/108134065/sdoserv.o
pStoreData          0x4               build/LAN9255_SQI_INDIRECT_MODE/production/_ext/108134065/sdoserv.o
u8MbxReadCounter    0x1               build/LAN9255_SQI_INDIRECT_MODE/production/_ext/108134065/mailbox.o
nAlStatus           0x1               build/LAN9255_SQI_INDIRECT_MODE/production/_ext/108134065/ecatslv.o
nPdOutputSize       0x2               build/LAN9255_SQI_INDIRECT_MODE/production/_ext/108134065/ecatslv.o
u32FileOffset       0x4               build/LAN9255_SQI_INDIRECT_MODE/production/_ext/108134065/ecatfoe.o
u16LocalErrorCode   0x2               build/LAN9255_SQI_INDIRECT_MODE/production/_ext/108134065/ecatslv.o
nSdoSegBytesToHandle
                    0x4               build/LAN9255_SQI_INDIRECT_MODE/production/_ext/108134065/sdoserv.o
errno               0x4               c:/program files/microchip/xc32/v3.01/bin/bin/../../lib/gcc/pic32c/8.3.1/../../../../pic32c/lib/thumb/v7e-m+fp/hard\libc_nano.a(lib_a-reent.o)
sMbxSendQueue       0x34              build/LAN9255_SQI_INDIRECT_MODE/production/_ext/108134065/mailbox.o
gEscALEvent         0x2               build/LAN9255_SQI_INDIRECT_MODE/production/_ext/108147519/LAN925x.o
sMbxReceiveQueue    0x34              build/LAN9255_SQI_INDIRECT_MODE/production/_ext/108134065/mailbox.o
bNoMbxMemoryAvailable
                    0x1               build/LAN9255_SQI_INDIRECT_MODE/production/_ext/108134065/mailbox.o
u16FileAccessState  0x2               build/LAN9255_SQI_INDIRECT_MODE/production/_ext/108134065/ecatfoe.o
Sync0WdCounter      0x2               build/LAN9255_SQI_INDIRECT_MODE/production/_ext/108134065/ecatslv.o
u32PacketNo         0x4               build/LAN9255_SQI_INDIRECT_MODE/production/_ext/108134065/ecatfoe.o
bMinCycleTimeMeasurementStarted
                    0x1               build/LAN9255_SQI_INDIRECT_MODE/production/_ext/108134065/ecatappl.o
bLocalErrorFlag     0x1               build/LAN9255_SQI_INDIRECT_MODE/production/_ext/108134065/ecatslv.o
bSendMbxIsFull      0x1               build/LAN9255_SQI_INDIRECT_MODE/production/_ext/108134065/mailbox.o
u32CycleTimeStartValue
                    0x4               build/LAN9255_SQI_INDIRECT_MODE/production/_ext/108134065/ecatappl.o
LatchInputSync0Counter
                    0x2               build/LAN9255_SQI_INDIRECT_MODE/production/_ext/108134065/ecatslv.o
i16WaitForPllRunningCnt
                    0x2               build/LAN9255_SQI_INDIRECT_MODE/production/_ext/108134065/ecatslv.o
nEscAddrOutputData  0x2               build/LAN9255_SQI_INDIRECT_MODE/production/_ext/108134065/ecatslv.o
bMbxRunning         0x1               build/LAN9255_SQI_INDIRECT_MODE/production/_ext/108134065/mailbox.o
aFileData           0x2000            build/LAN9255_SQI_INDIRECT_MODE/production/_ext/108134065/sample_app.o
Sync0WdValue        0x2               build/LAN9255_SQI_INDIRECT_MODE/production/_ext/108134065/ecatslv.o
u8EcatRunLed        0x1               build/LAN9255_SQI_INDIRECT_MODE/production/_ext/108134065/ecatslv.o
i16WaitForPllRunningTimeout
                    0x2               build/LAN9255_SQI_INDIRECT_MODE/production/_ext/108134065/ecatslv.o
bSdoSegAccess       0x1               build/LAN9255_SQI_INDIRECT_MODE/production/_ext/108134065/sdoserv.o
pAPPL_EEPROM_Read   0x4               build/LAN9255_SQI_INDIRECT_MODE/production/_ext/108134065/ecatappl.o
Sync1WdValue        0x2               build/LAN9255_SQI_INDIRECT_MODE/production/_ext/108134065/ecatslv.o
pAPPL_EEPROM_Write  0x4               build/LAN9255_SQI_INDIRECT_MODE/production/_ext/108134065/ecatappl.o
bSdoSegFollows      0x1               build/LAN9255_SQI_INDIRECT_MODE/production/_ext/108134065/sdoserv.o
nSdoSegCompleteSize
                    0x4               build/LAN9255_SQI_INDIRECT_MODE/production/_ext/108134065/sdoserv.o
u16ALEventMask      0x2               build/LAN9255_SQI_INDIRECT_MODE/production/_ext/108134065/ecatslv.o
pSdoPendFunc        0x4               build/LAN9255_SQI_INDIRECT_MODE/production/_ext/108134065/sdoserv.o
bDcRunning          0x1               build/LAN9255_SQI_INDIRECT_MODE/production/_ext/108134065/ecatslv.o
u32dummy            0x4               build/LAN9255_SQI_INDIRECT_MODE/production/_ext/108134065/ecatslv.o
bRunApplication     0x1               build/LAN9255_SQI_INDIRECT_MODE/production/_ext/108134065/ecatappl.o
u16EscAddrReceiveMbx
                    0x2               build/LAN9255_SQI_INDIRECT_MODE/production/_ext/108134065/mailbox.o
psStoreMbx          0x4               build/LAN9255_SQI_INDIRECT_MODE/production/_ext/108134065/mailbox.o
SyncManInfo         0x8               build/LAN9255_SQI_INDIRECT_MODE/production/_ext/108134065/ecatslv.o
b32BitDc            0x1               build/LAN9255_SQI_INDIRECT_MODE/production/_ext/108134065/ecatslv.o
u32SystemTimeReadFailure
                    0x4               build/LAN9255_SQI_INDIRECT_MODE/production/_ext/108134065/ecatappl.o
u8PendingSdo        0x1               build/LAN9255_SQI_INDIRECT_MODE/production/_ext/108134065/sdoserv.o
appData             0x1               build/LAN9255_SQI_INDIRECT_MODE/production/_ext/1360937237/app.o
LatchInputSync0Value
                    0x2               build/LAN9255_SQI_INDIRECT_MODE/production/_ext/108134065/ecatslv.o
sercom0USARTObj     0x30              build/LAN9255_SQI_INDIRECT_MODE/production/_ext/504274921/plib_sercom0_usart.o
u16SendMbxSize      0x2               build/LAN9255_SQI_INDIRECT_MODE/production/_ext/108134065/mailbox.o
bEcatWaitForAlControlRes
                    0x1               build/LAN9255_SQI_INDIRECT_MODE/production/_ext/108134065/ecatslv.o
psReadMbx           0x4               build/LAN9255_SQI_INDIRECT_MODE/production/_ext/108134065/mailbox.o
bEcatWaitForInputUpdate
                    0x1               build/LAN9255_SQI_INDIRECT_MODE/production/_ext/108134065/ecatappl.o
sSyncManInPar       0x44              build/LAN9255_SQI_INDIRECT_MODE/production/_ext/108134065/objdef.o
u32MinCycleTimeValue
                    0x4               build/LAN9255_SQI_INDIRECT_MODE/production/_ext/108134065/ecatappl.o
nPdInputSize        0x2               build/LAN9255_SQI_INDIRECT_MODE/production/_ext/108134065/ecatslv.o
u16SmSync0Value     0x2               build/LAN9255_SQI_INDIRECT_MODE/production/_ext/108134065/ecatslv.o
bStoreCompleteAccess
                    0x1               build/LAN9255_SQI_INDIRECT_MODE/production/_ext/108134065/sdoserv.o
aPdOutputData       0x44              build/LAN9255_SQI_INDIRECT_MODE/production/_ext/108134065/ecatappl.o
bSdoSegLastToggle   0x1               build/LAN9255_SQI_INDIRECT_MODE/production/_ext/108134065/sdoserv.o
eicCallbackObject   0xc0              build/LAN9255_SQI_INDIRECT_MODE/production/_ext/60167341/plib_eic.o
nSdoSegService      0x1               build/LAN9255_SQI_INDIRECT_MODE/production/_ext/108134065/sdoserv.o
bReceiveMbxIsLocked
                    0x1               build/LAN9255_SQI_INDIRECT_MODE/production/_ext/108134065/mailbox.o
pAPPL_FoeError      0x4               build/LAN9255_SQI_INDIRECT_MODE/production/_ext/108134065/ecatappl.o
u16EscAddrSendMbx   0x2               build/LAN9255_SQI_INDIRECT_MODE/production/_ext/108134065/mailbox.o
u16EepromStoreTimeoutCounter
                    0x2               build/LAN9255_SQI_INDIRECT_MODE/production/_ext/108134065/ecatappl.o
sysObj              0x1               build/LAN9255_SQI_INDIRECT_MODE/production/_ext/1171490990/initialization.o
nMaxEscAddress      0x2               build/LAN9255_SQI_INDIRECT_MODE/production/_ext/108134065/ecatslv.o
bEcatFirstOutputsReceived
                    0x1               build/LAN9255_SQI_INDIRECT_MODE/production/_ext/108134065/ecatslv.o
psWriteMbx          0x4               build/LAN9255_SQI_INDIRECT_MODE/production/_ext/108134065/mailbox.o
u8MbxWriteCounter   0x1               build/LAN9255_SQI_INDIRECT_MODE/production/_ext/108134065/mailbox.o
sercom4SPIObj       0x2c              build/LAN9255_SQI_INDIRECT_MODE/production/_ext/17022449/plib_sercom4_spi_master.o
u32LastDc32Value    0x4               build/LAN9255_SQI_INDIRECT_MODE/production/_ext/108134065/coeappl.o
u32CheckForDcOverrunCnt
                    0x4               build/LAN9255_SQI_INDIRECT_MODE/production/_ext/108134065/coeappl.o
u8MailboxSendReqStored
                    0x1               build/LAN9255_SQI_INDIRECT_MODE/production/_ext/108134065/mailbox.o
EepromReadSize      0x2               build/LAN9255_SQI_INDIRECT_MODE/production/_ext/108134065/ecatappl.o
pSdoInfoObjEntry    0x4               build/LAN9255_SQI_INDIRECT_MODE/production/_ext/108134065/sdoserv.o
bSmSyncSequenceValid
                    0x1               build/LAN9255_SQI_INDIRECT_MODE/production/_ext/108134065/ecatslv.o
nSdoInfoFragmentsLeft
                    0x2               build/LAN9255_SQI_INDIRECT_MODE/production/_ext/108134065/sdoserv.o
EsmTimeoutCounter   0x2               build/LAN9255_SQI_INDIRECT_MODE/production/_ext/108134065/ecatslv.o
pAPPL_FoeReadData   0x4               build/LAN9255_SQI_INDIRECT_MODE/production/_ext/108134065/ecatappl.o
u16ReceiveMbxSize   0x2               build/LAN9255_SQI_INDIRECT_MODE/production/_ext/108134065/mailbox.o
pSdoResStored       0x4               build/LAN9255_SQI_INDIRECT_MODE/production/_ext/108134065/sdoserv.o
asEmcy              0x8               build/LAN9255_SQI_INDIRECT_MODE/production/_ext/108134065/emcy.o
bBootMode           0x1               build/LAN9255_SQI_INDIRECT_MODE/production/_ext/108134065/ecatslv.o
u8readData          0x1               build/LAN9255_SQI_INDIRECT_MODE/production/_ext/1360937237/app.o
u32StoreDataSize    0x4               build/LAN9255_SQI_INDIRECT_MODE/production/_ext/108134065/sdoserv.o
pSdoSegData         0x4               build/LAN9255_SQI_INDIRECT_MODE/production/_ext/108134065/sdoserv.o
bDcSyncActive       0x1               build/LAN9255_SQI_INDIRECT_MODE/production/_ext/108134065/ecatslv.o
bEcatOutputUpdateRunning
                    0x1               build/LAN9255_SQI_INDIRECT_MODE/production/_ext/108134065/ecatslv.o
pAPPL_MainLoop      0x4               build/LAN9255_SQI_INDIRECT_MODE/production/_ext/108134065/ecatappl.o
sSyncManOutPar      0x44              build/LAN9255_SQI_INDIRECT_MODE/production/_ext/108134065/objdef.o
sEmptyEmcyQueue     0x10              build/LAN9255_SQI_INDIRECT_MODE/production/_ext/108134065/emcy.o
Sync1WdCounter      0x2               build/LAN9255_SQI_INDIRECT_MODE/production/_ext/108134065/ecatslv.o
EcatWdValue         0x2               build/LAN9255_SQI_INDIRECT_MODE/production/_ext/108134065/ecatslv.o
bEtherCATErrorLed   0x1               build/LAN9255_SQI_INDIRECT_MODE/production/_ext/108134065/ecatappl.o
u32MinCycleTimeStartValue
                    0x4               build/LAN9255_SQI_INDIRECT_MODE/production/_ext/108134065/ecatappl.o
bSyncSetByUser      0x1               build/LAN9255_SQI_INDIRECT_MODE/production/_ext/108134065/objdef.o
bMbxRepeatToggle    0x1               build/LAN9255_SQI_INDIRECT_MODE/production/_ext/108134065/mailbox.o
bEcatInputUpdateRunning
                    0x1               build/LAN9255_SQI_INDIRECT_MODE/production/_ext/108134065/ecatslv.o
bEscIntEnabled      0x1               build/LAN9255_SQI_INDIRECT_MODE/production/_ext/108134065/ecatslv.o
psRepeatMbx         0x4               build/LAN9255_SQI_INDIRECT_MODE/production/_ext/108134065/mailbox.o
nSdoSegIndex        0x2               build/LAN9255_SQI_INDIRECT_MODE/production/_ext/108134065/sdoserv.o
aSdoInfoHeader      0x10              build/LAN9255_SQI_INDIRECT_MODE/production/_ext/108134065/sdoserv.o
pSdoSegObjEntry     0x4               build/LAN9255_SQI_INDIRECT_MODE/production/_ext/108134065/sdoserv.o
aPdInputData        0x44              build/LAN9255_SQI_INDIRECT_MODE/production/_ext/108134065/ecatappl.o
bWdTrigger          0x1               build/LAN9255_SQI_INDIRECT_MODE/production/_ext/108134065/ecatslv.o
nSdoSegSubindex     0x1               build/LAN9255_SQI_INDIRECT_MODE/production/_ext/108134065/sdoserv.o
pEEPROM             0x4               build/LAN9255_SQI_INDIRECT_MODE/production/_ext/108134065/ecatappl.o
u16StoreIndex       0x2               build/LAN9255_SQI_INDIRECT_MODE/production/_ext/108134065/sdoserv.o
bEtherCATRunLed     0x1               build/LAN9255_SQI_INDIRECT_MODE/production/_ext/108134065/ecatappl.o
pAPPL_FoeWriteData  0x4               build/LAN9255_SQI_INDIRECT_MODE/production/_ext/108134065/ecatappl.o
u16SmSync0Counter   0x2               build/LAN9255_SQI_INDIRECT_MODE/production/_ext/108134065/ecatslv.o
pFoeSendStored      0x4               build/LAN9255_SQI_INDIRECT_MODE/production/_ext/108134065/ecatfoe.o
nMaxSyncMan         0x1               build/LAN9255_SQI_INDIRECT_MODE/production/_ext/108134065/ecatslv.o
pAPPL_EEPROM_Reload
                    0x4               build/LAN9255_SQI_INDIRECT_MODE/production/_ext/108134065/ecatappl.o
u8StoreSubindex     0x1               build/LAN9255_SQI_INDIRECT_MODE/production/_ext/108134065/sdoserv.o
aFileName           0x16              build/LAN9255_SQI_INDIRECT_MODE/production/_ext/108134065/sample_app.o
u32LastFileOffset   0x4               build/LAN9255_SQI_INDIRECT_MODE/production/_ext/108134065/ecatfoe.o
pAPPL_FoeRead       0x4               build/LAN9255_SQI_INDIRECT_MODE/production/_ext/108134065/ecatappl.o
u16EepromStoreTimeoutValue
                    0x2               build/LAN9255_SQI_INDIRECT_MODE/production/_ext/108134065/ecatappl.o
sCycleDiag          0x2               build/LAN9255_SQI_INDIRECT_MODE/production/_ext/108134065/objdef.o
systick             0xc               build/LAN9255_SQI_INDIRECT_MODE/production/_ext/1827571544/plib_systick.o
pAPPL_FoeWrite      0x4               build/LAN9255_SQI_INDIRECT_MODE/production/_ext/108134065/ecatappl.o
u16FoeMaxSendBlockSize
                    0x2               build/LAN9255_SQI_INDIRECT_MODE/production/_ext/108134065/ecatfoe.o
u8EcatErrorLed      0x1               build/LAN9255_SQI_INDIRECT_MODE/production/_ext/108134065/ecatslv.o
nEscAddrInputData   0x2               build/LAN9255_SQI_INDIRECT_MODE/production/_ext/108134065/ecatslv.o

Microchip PIC32 Memory-Usage Report

ROM Program-Memory Usage
section                    address  length [bytes]      (dec)  Description
-------                 ----------  -------------------------  -----------
.vectors                         0          0x260         608   
.text                        0x260           0x20          32  App's exec code 
.ARM.exidx                   0x280            0x8           8   
.dinit                       0x288          0xb90        2960   
.text.SDOS_SdoInd            0xe18          0x7f4        2036   
.rodata.guiFont_Tahoma_     0x160c          0x690        1680   
.text.StartInputHandler     0x1c9c          0x658        1624   
.text.AL_ControlInd         0x22f4          0x618        1560   
.text.OBJ_Write             0x290c          0x528        1320   
.text.OBJ_Read              0x2e34          0x474        1140   
.text._vfprintf_r_cdnop     0x32a8          0x384         900   
.text.FOE_ServiceInd        0x362c          0x2ec         748   
.text                       0x3918          0x2d0         720  App's exec code 
.text.SDOS_SdoInfoInd       0x3be8          0x2bc         700   
.text.AL_ControlRes         0x3ea4          0x244         580   
.text.APP_Tasks             0x40e8          0x200         512   
.text.EEPROM_CommandHan     0x42e8          0x1f4         500   
.text.CheckSmSettings       0x44dc          0x1ec         492   
.text.oledc_text            0x46c8          0x1ac         428   
.text.SERCOM4_SPI_Inter     0x4874          0x190         400   
.text.SERCOM0_USART_Ser     0x4a04          0x158         344   
.text.ECAT_Main             0x4b5c          0x154         340   
.text.SERCOM4_SPI_Write     0x4cb0          0x140         320   
.text.CheckSyncTypeValu     0x4df0          0x138         312   
.text.ECAT_Init             0x4f28          0x124         292   
.text.CLOCK_Initialize      0x504c          0x120         288   
.text.FoE_WriteData         0x516c          0x120         288   
.text.MBX_StopMailboxHa     0x528c          0x118         280   
.text.SetALStatus           0x53a4          0x114         276   
.text.PDI_Isr               0x54b8          0x110         272   
.text.APPL_GenerateMapp     0x55c8          0x110         272   
.text.__sflush_r            0x56d8          0x10c         268   
.text.Sync0_Isr             0x57e4          0x108         264   
.rodata._ctype_             0x58ec          0x101         257   
.text.__malloc_lock         0x59ee            0x2           2   
.rodata.aName0x1C32         0x59f0          0x100         256   
.rodata.aName0x1C33         0x5af0          0x100         256   
.text.MainInit              0x5bf0          0x100         256   
.text.MBX_CheckAndCopyM     0x5cf0          0x100         256   
.text.SendSmFailedEmerg     0x5df0           0xf8         248   
.text.box_area              0x5ee8           0xf4         244   
.text.SdoRes                0x5fdc           0xf4         244   
.text.oledc_init            0x60d0           0xf0         240   
.text.GetDummyBytesRequ     0x61c0           0xee         238   
.text.EVSYS_Initialize      0x62ae            0x2           2   
.text.SERCOM0_USART_Int     0x62b0           0xec         236   
.text.COE_ObjInit           0x639c           0xec         236   
.text._printf_common        0x6488           0xea         234   
.text._mon_putc             0x6572            0x2           2   
.text.OBJ_GetDesc           0x6574           0xe8         232   
.text.SDOS_SdoRes           0x665c           0xe0         224   
.text.StopInputHandler      0x673c           0xdc         220   
.text.__swsetup_r           0x6818           0xdc         220   
.text.HW_EscRead            0x68f4           0xd8         216   
.text.MainLoop              0x69cc           0xd0         208   
.text.DC_CheckWatchdog      0x6a9c           0xd0         208   
.text.MBX_CopyToSendMai     0x6b6c           0xd0         208   
.text.MBX_Init              0x6c3c           0xcc         204   
.text.OBJ_GetEntryOffse     0x6d08           0xcc         204   
.text.EscRead               0x6dd4           0xc8         200   
.rodata.asEntryDesc0x1C     0x6e9c           0xc8         200   
.text.MBX_MailboxReadIn     0x6f64           0xc8         200   
.text.APPL_UpdateUARTCo     0x702c           0xc8         200   
.text.__swbuf_r             0x70f4           0xbc         188   
.text._malloc_r             0x71b0           0xb4         180   
.text.ECAT_CheckTimer       0x7264           0xb0         176   
.text.MBX_StartMailboxH     0x7314           0xb0         176   
.text.pixel                 0x73c4           0xac         172   
.text.HW_EscWrite           0x7470           0xaa         170   
.text.NonMaskableInt_Ha     0x751a            0x2           2   
.text.COE_Main              0x751c           0xa8         168   
.text.OBJ_GetObjectList     0x75c4           0xa8         168   
.text.APPL_Application      0x766c           0xa8         168   
.text.LAN925x_Init          0x7714           0xa4         164   
.text.SODS_ClearPending     0x77b8           0xa4         164   
.text.EscWrite              0x785c           0xa2         162   
.text.HardFault_Handler     0x78fe            0x2           2   
.text.NVIC_Initialize       0x7900           0xa0         160   
.text                       0x79a0           0xa0         160  App's exec code 
.text.applicationTask       0x7a40           0x9c         156   
.text._free_r               0x7adc           0x9c         156   
.text.Reset_Handler         0x7b78           0x98         152   
.text.OBJ_GetObjectLeng     0x7c10           0x94         148   
.text.LAN9252SQI_Read       0x7ca4           0x90         144   
.text.MBX_MailboxSendRe     0x7d34           0x90         144   
.text.LAN9252SQI_ReadPD     0x7dc4           0x8e         142   
.text.DebugMonitor_Hand     0x7e52            0x2           2   
.text.PDO_OutputMapping     0x7e54           0x8c         140   
.text.__smakebuf_r          0x7ee0           0x8c         140   
.text.FoE_Read              0x7f6c           0x88         136   
.text.__pic32c_data_ini     0x7ff4           0x88         136   
.text.EIC_Initialize        0x807c           0x84         132   
.text.PORT_Initialize       0x8100           0x84         132   
.text.QSPI_MemoryWrite      0x8184           0x84         132   
.rodata.aName0x1600         0x8208           0x84         132   
.text.__fputwc              0x828c           0x82         130   
.text.MemoryManagement_     0x830e            0x2           2   
.text.QSPI_MemoryRead       0x8310           0x7c         124   
.text.COE_AddObjectToDi     0x838c           0x7c         124   
.text.EMCY_SendEmergenc     0x8408           0x7c         124   
.text.MBX_MailboxWriteI     0x8484           0x78         120   
.text.MBX_Main              0x84fc           0x78         120   
.text.HW_EepromWrite        0x8574           0x78         120   
.rodata.cAbortCode          0x85ec           0x78         120   
.text.__sfp                 0x8664           0x78         120   
.text.APP_FlashEEPROMUp     0x86dc           0x74         116   
.text.oledc_command         0x8750           0x70         112   
.text.PDO_InputMapping      0x87c0           0x70         112   
.text.HW_EepromReload       0x8830           0x68         104   
.text.COE_SyncTimeStamp     0x8898           0x64         100   
.rodata.aName0x8000         0x88fc           0x64         100   
.text.MBX_MailboxRepeat     0x8960           0x60          96   
.text.__sinit               0x89c0           0x60          96   
.text.HW_GetALEventRegi     0x8a20           0x5c          92   
.text.LAN9252SQI_WriteP     0x8a7c           0x58          88   
.text.ESF_PDI_Init          0x8ad4           0x58          88   
.text.OBJ_GetNoOfObject     0x8b2c           0x56          86   
.text.BusFault_Handler      0x8b82            0x2           2   
.text.qspi_setup_transf     0x8b84           0x54          84   
.text.SERCOM0_USART_Ini     0x8bd8           0x54          84   
.text.HW_GetALEventRegi     0x8c2c           0x54          84   
.rodata.aName0x1601         0x8c80           0x54          84   
.text.ECAT_CheckWatchdo     0x8cd4           0x54          84   
.text.FoE_Write             0x8d28           0x54          84   
.text.BL_FOE_Applicatio     0x8d7c           0x54          84   
.text._fflush_r             0x8dd0           0x54          84   
.text.COE_UpdateSyncErr     0x8e24           0x50          80   
.text.HandleCycleTimeMe     0x8e74           0x50          80   
.text.StartOutputHandle     0x8ec4           0x50          80   
.text.oledc_set_font        0x8f14           0x4c          76   
.text.QSPI_RegisterWrit     0x8f60           0x4c          76   
.text.APPL_InputMapping     0x8fac           0x4c          76   
.text.__ssfputs_r           0x8ff8           0x4a          74   
.text.UsageFault_Handle     0x9042            0x2           2   
.text.SERCOM0_USART_Wri     0x9044           0x48          72   
.text.APPL_OutputMappin     0x908c           0x48          72   
.text.__libc_init_array     0x90d4           0x48          72   
.text.std                   0x911c           0x48          72   
.text.__swhatbuf_r          0x9164           0x48          72   
.text.APP_FlashWrite        0x91ac           0x46          70   
.text.Dummy_Handler         0x91f2            0x2           2   
.text.Read0x10F8            0x91f4           0x44          68   
.text.COE_ContinueInd       0x9238           0x44          68   
.text                       0x927c           0x40          64  App's exec code 
.text.NVMCTRL_PageWrite     0x92bc           0x40          64   
.text.QSPI_CommandWrite     0x92fc           0x40          64   
.text.SERCOM0_USART_Rea     0x933c           0x40          64   
.text.ReBuild_SQI_SetCf     0x937c           0x40          64   
.text.HW_EscReadIsr         0x93bc           0x40          64   
.text.HW_EscWriteIsr        0x93fc           0x40          64   
.text.COE_RemoveDicEntr     0x943c           0x40          64   
.rodata.aName0x10F1         0x947c           0x40          64   
.text.Sync1_Isr             0x94bc           0x40          64   
.text.CheckIfEcatError      0x94fc           0x40          64   
.text.write                 0x953c           0x40          64   
.text.APP_FOEFlashWrite     0x957c           0x3e          62   
.text.BL_Start              0x95ba            0x2           2   
.text.SERCOM4_SPI_Initi     0x95bc           0x3c          60   
.rodata.aName0x1018         0x95f8           0x3c          60   
.text.GetSystemTimeDela     0x9634           0x3c          60   
.text.FOE_Data              0x9670           0x3c          60   
.text.MailboxServiceInd     0x96ac           0x3c          60   
.text.OBJ_CopyNumberToS     0x96e8           0x3c          60   
.text._sprintf_cdnopuxX     0x9724           0x3c          60   
.text._fwalk_reent          0x9760           0x3c          60   
.text.oledc_spiDriverIn     0x979c           0x38          56   
.text.LAN9252SQI_Write      0x97d4           0x38          56   
.rodata.aName0x1A00         0x980c           0x38          56   
.text.ResetALEventMask      0x9844           0x38          56   
.text.SetALEventMask        0x987c           0x38          56   
.text.CalculateCRC8         0x98b4           0x38          56   
.text.__swrite              0x98ec           0x38          56   
.text.DisableSyncManCha     0x9924           0x34          52   
.text.EMCY_Init             0x9958           0x34          52   
.text.FoE_ReadData          0x998c           0x34          52   
.rodata                     0x99c0           0x33          51  Read-only const 
.text.EnableSyncManChan     0x99f4           0x32          50   
.text.SYS_Initialize        0x9a26           0x30          48   
.text.BL_Stop               0x9a56            0x2           2   
.text.ESC_IRQ_cb            0x9a58           0x30          48   
.rodata.aName0x1A02         0x9a88           0x30          48   
.rodata.asEntryDesc0x16     0x9ab8           0x30          48   
.rodata.asEntryDesc0x80     0x9ae8           0x30          48   
.text.ECAT_Application      0x9b18           0x30          48   
.text.UpdateEEPROMLoade     0x9b48           0x30          48   
.text.GetOutOfEmptyEmcy     0x9b78           0x30          48   
.text.GetOutOfSendEmcyQ     0x9ba8           0x30          48   
.text                       0x9bd8           0x30          48  App's exec code 
.text.ESC_BYTE_TEST_Reg     0x9c08           0x2e          46   
.text.__sfputc_r            0x9c36           0x2e          46   
.text.EIC_CallbackRegis     0x9c64           0x2c          44   
.text.SERCOM0_USART_Rea     0x9c90           0x2c          44   
.text.COE_ObjDictionary     0x9cbc           0x2c          44   
.text.COE_ServiceInd        0x9ce8           0x2c          44   
.text.APP_FW_startDownl     0x9d14           0x2c          44   
.text.__sfmoreglue          0x9d40           0x2c          44   
.text._wcrtomb_r            0x9d6c           0x2c          44   
.text._sbrk                 0x9d98           0x2c          44   
.text.AddObjectsToObjDi     0x9dc4           0x2a          42   
.text.PutInMbxQueue         0x9dee           0x2a          42   
.rodata.aName0x7010         0x9e18           0x28          40   
.text.FOE_Read              0x9e40           0x28          40   
.text.GetOutOfMbxQueue      0x9e68           0x28          40   
.text.read                  0x9e90           0x28          40   
.text.QSPI_Initialize       0x9eb8           0x24          36   
.text.SERCOM0_USART_Err     0x9edc           0x24          36   
.text.SYSTICK_TimerInit     0x9f00           0x24          36   
.text.SQI_SetConfigurat     0x9f24           0x24          36   
.rodata.aName0x6000         0x9f48           0x24          36   
.text.__ascii_mbtowc        0x9f6c           0x24          36   
.text.__sseek               0x9f90           0x24          36   
.text._write_r              0x9fb4           0x24          36   
.text._lseek_r              0x9fd8           0x24          36   
.text._read_r               0x9ffc           0x24          36   
.text._fstat_r              0xa020           0x24          36   
.text.OBJ_GetEntryDesc      0xa044           0x22          34   
.text.__sread               0xa066           0x22          34   
.text.EIC_EXTINT_0_Inte     0xa088           0x20          32   
.text.EIC_EXTINT_1_Inte     0xa0a8           0x20          32   
.text.EIC_EXTINT_7_Inte     0xa0c8           0x20          32   
.text.PDI_Init_SYNC_Int     0xa0e8           0x20          32   
.text.COE_ClearObjDicti     0xa108           0x20          32   
.rodata.asEntryDesc0x10     0xa128           0x20          32   
.rodata.asEntryDesc0x16     0xa148           0x20          32   
.rodata.asEntryDesc0x70     0xa168           0x20          32   
.text.PutInEmptyEmcyQue     0xa188           0x20          32   
.text.PutInSendEmcyQueu     0xa1a8           0x20          32   
.text.FOE_Ack               0xa1c8           0x20          32   
.text.OBJ_GetObjectHand     0xa1e8           0x20          32   
.rodata.cBitMask            0xa208           0x20          32   
.text.Emulation_Init        0xa228           0x20          32   
.text._sbrk_r               0xa248           0x20          32   
.text._close_r              0xa268           0x20          32   
.text._isatty_r             0xa288           0x20          32   
.text.SQI_EnableQuadMod     0xa2a8           0x1e          30   
.text.SQI_DisableQuadMo     0xa2c6           0x1e          30   
.text.NVMCTRL_BlockEras     0xa2e4           0x1c          28   
.text.SERCOM0_USART_Err     0xa300           0x1c          28   
.text.SysTick_Handler       0xa31c           0x1c          28   
.rodata.aName0x1C12         0xa338           0x1c          28   
.rodata.aName0x1C13         0xa354           0x1c          28   
.text.FOE_Init              0xa370           0x1c          28   
.text.FOE_ContinueInd       0xa38c           0x1c          28   
.text.GetSyncMan            0xa3a8           0x1c          28   
.text.APP_FW_StateBOOTt     0xa3c4           0x1c          28   
.text.memcpy                0xa3e0           0x1c          28   
.text._fputwc_r             0xa3fc           0x1c          28   
.text.__ascii_wctomb        0xa418           0x1a          26   
.text.oledc_fill_screen     0xa432           0x18          24   
.text.APPL_AckErrorInd      0xa44a            0x2           2   
.rodata.aName0x6021         0xa44c           0x18          24   
.text.FOE_Write             0xa464           0x18          24   
.text.NVMCTRL_IsBusy        0xa47c           0x14          20   
.text.Delay_ms              0xa490           0x14          20   
.text.qspi_memcpy_8bit      0xa4a4           0x14          20   
.text.SYSTICK_TimerStar     0xa4b8           0x14          20   
.text.ECAT_SysTick_Hand     0xa4cc           0x14          20   
.text.PDI_Timer_Interru     0xa4e0           0x14          20   
.text.PDI_IRQ_Interrupt     0xa4f4           0x14          20   
.rodata.aName0x1009         0xa508           0x14          20   
.rodata.aName0x100A         0xa51c           0x14          20   
.rodata.aName0x10F8         0xa530           0x14          20   
.rodata.aName0x1C00         0xa544           0x14          20   
.rodata.asEntryDesc0x10     0xa558           0x14          20   
.rodata.asEntryDesc0x1A     0xa56c           0x14          20   
.rodata.asEntryDesc0x60     0xa580           0x14          20   
.text.COE_Init              0xa594           0x14          20   
.text.StopOutputHandler     0xa5a8           0x14          20   
.text.EMCY_IsQueueEmpty     0xa5bc           0x14          20   
.rodata                     0xa5d0           0x14          20  Read-only const 
.text._vfprintf_cdnopux     0xa5e4           0x14          20   
.text.NVMCTRL_Initializ     0xa5f8           0x10          16   
.text.NVMCTRL_Read          0xa608           0x10          16   
.text.NVMCTRL_BankSwap      0xa618           0x10          16   
.text.oledc_reset           0xa628           0x10          16   
.rodata.aName0x1001         0xa638           0x10          16   
.text.FOE_Error             0xa648           0x10          16   
.text.malloc                0xa658           0x10          16   
.text.free                  0xa668           0x10          16   
.text.memset                0xa678           0x10          16   
.text                       0xa688           0x10          16  App's exec code 
.text.EMCY_ContinueInd      0xa698            0xe          14   
.text.main                  0xa6a6            0xe          14   
.text.NVMCTRL_StatusGet     0xa6b4            0xc          12   
.text.SERCOM4_SPI_Callb     0xa6c0            0xc          12   
.text.SERCOM4_SPI_Write     0xa6cc            0xc          12   
.text.SERCOM0_USART_Wri     0xa6d8            0xc          12   
.text.SERCOM0_USART_Rea     0xa6e4            0xc          12   
.text.SERCOM0_USART_Rea     0xa6f0            0xc          12   
.text.SYSTICK_TimerCall     0xa6fc            0xc          12   
.text.COE_GetObjectDict     0xa708            0xc          12   
.rodata.aName0x1000         0xa714            0xc          12   
.rodata.aName0x1008         0xa720            0xc          12   
.rodata.asEntryDesc0x1A     0xa72c            0xc          12   
.rodata.asEntryDesc0x1C     0xa738            0xc          12   
.rodata.asEntryDesc0x1C     0xa744            0xc          12   
.rodata.asEntryDesc0x1C     0xa750            0xc          12   
.rodata.asEntryDesc0x60     0xa75c            0xc          12   
.text.FOE_Busy              0xa768            0xc          12   
.text.APP_FW_GetDownloa     0xa774            0xc          12   
.text.Oled_cb               0xa780            0xc          12   
.text.uart_rx_cb            0xa78c            0xc          12   
.text.APP_Initialize        0xa798            0xc          12   
.text._cleanup_r            0xa7a4            0xc          12   
.text.__locale_mb_cur_m     0xa7b0            0xc          12   
.text.fstat                 0xa7bc            0xc          12   
.rodata                     0xa7c8            0xb          11  Read-only const 
.text.APPL_StopMailboxH     0xa7d4            0xa          10   
.text.SYS_Tasks             0xa7de            0x8           8   
.text.CRITICAL_SECTION_     0xa7e6            0x8           8   
.text.CRITICAL_SECTION_     0xa7ee            0x8           8   
.text.ESC_Sync0_cb          0xa7f6            0x8           8   
.text.ESC_Sync1_cb          0xa7fe            0x8           8   
.text.ESC_Init              0xa806            0x8           8   
.text.uart_tx_cb            0xa80e            0x2           2   
.rodata.sEntryDesc0x100     0xa810            0x8           8   
.rodata.sEntryDesc0x100     0xa818            0x8           8   
.rodata.sEntryDesc0x100     0xa820            0x8           8   
.rodata.sEntryDesc0x100     0xa828            0x8           8   
.rodata.sEntryDesc0x100     0xa830            0x8           8   
.rodata.sEntryDesc0x10F     0xa838            0x8           8   
.text.EMCY_GetEmcyBuffe     0xa840            0x8           8   
.rodata.acEmcyCoeHeader     0xa848            0x8           8   
.text.__sclose              0xa850            0x8           8   
.text.close                 0xa858            0x8           8   
.text.PORT_GroupSet         0xa860            0x4           4   
.text.PORT_GroupClear       0xa864            0x4           4   
.text.PORT_GroupOutputE     0xa868            0x4           4   
.text._mon_getc             0xa86c            0x4           4   
.text.OBJ_GetObjDesc        0xa870            0x4           4   
.text.APPL_StartMailbox     0xa874            0x4           4   
.text.APPL_StartInputHa     0xa878            0x4           4   
.text.APPL_StopInputHan     0xa87c            0x4           4   
.text.APPL_StartOutputH     0xa880            0x4           4   
.text.APPL_StopOutputHa     0xa884            0x4           4   
.text                       0xa888            0x4           4  App's exec code 
.rodata._global_impure_     0xa88c            0x4           4   
.text._close                0xa890            0x4           4   
.text._fstat                0xa894            0x4           4   
.text._isatty               0xa898            0x4           4   
.text._lseek                0xa89c            0x4           4   
.text._read                 0xa8a0            0x4           4   
.text._write                0xa8a4            0x4           4   
.text.isatty                0xa8a8            0x4           4   
.text.lseek                 0xa8ac            0x4           4   
.text.__malloc_unlock       0xa8b0            0x2           2   
.config_eeprom             0x3e000          0x800        2048   
      Total ROM used  :      0xb0af       45231  4.3% of 0xfe000
        --------------------------------------------------------------------------
         Total Program Memory used  :      0xb0af       45231  4.3% of 0xfe000
        --------------------------------------------------------------------------


RAM Data-Memory Usage
section                    address  length [bytes]      (dec)  Description
-------                 ----------  -------------------------  -----------
.bss                    0x20000000         0x2440        9280  Uninitialized data 
.data.GenObjDic         0x20002440          0x1e0         480   
.data.ApplicationObjDic 0x20002620          0x1b8         440   
.data.__global_locale   0x200027d8          0x16c         364   
.bss.gau8rx_data        0x20002944           0x80         128   
.data.impure_data       0x200029c4           0x60          96   
.data.gau8DummyCntArr   0x20002a24           0x27          39   
.bss._font_orientation  0x20002a4b            0x1           1   
.data.Configure_uartPro 0x20002a4c           0x20          32   
.bss.__sf_fake_stderr   0x20002a6c           0x20          32   
.bss.__sf_fake_stdin    0x20002a8c           0x20          32   
.bss.__sf_fake_stdout   0x20002aac           0x20          32   
.bss                    0x20002acc           0x1c          28  Uninitialized data 
.data.acDevicename      0x20002ae8           0x16          22   
.bss.nvm_error          0x20002afe            0x2           2   
.data.sIdentity         0x20002b00           0x14          20   
.data.OutputsProcessDat 0x20002b14           0x14          20   
.data.text2             0x20002b28           0x11          17   
.data._OLEDC_DEFAULT_MA 0x20002b39            0x1           1   
.bss.y_cord             0x20002b3a            0x2           2   
.data.text3             0x20002b3c           0x11          17   
.data._OLEDC_DEFAULT_MU 0x20002b4d            0x1           1   
.bss.u16ErrorRegister   0x20002b4e            0x2           2   
.data.aSubindexDesc     0x20002b50            0xd          13   
.data._OLEDC_DEFAULT_OF 0x20002b5d            0x1           1   
.data._OLEDC_DEFAULT_OL 0x20002b5e            0x1           1   
.data._OLEDC_DEFAULT_PR 0x20002b5f            0x1           1   
.data.sErrorSettings    0x20002b60            0xc          12   
.data.Configure_uart0x8 0x20002b6c            0xc          12   
.data.Inputs0x6000      0x20002b78            0xc          12   
.data.InputsProcessData 0x20002b84            0xc          12   
.data.Outputs0x7010     0x20002b90            0xc          12   
.bss._font              0x20002b9c            0x4           4   
.bss.u64Timestamp       0x20002ba0            0x8           8   
.data.Uart_status0x6021 0x20002ba8            0x8           8   
.data.Uart_statusProces 0x20002bb0            0x8           8   
.data.uart_config       0x20002bb8            0x8           8   
.data.text1             0x20002bc0            0x7           7   
.data._OLEDC_DEFAULT_CM 0x20002bc7            0x1           1   
.data.sSyncmanagertype  0x20002bc8            0x6           6   
.bss._font_color        0x20002bce            0x2           2   
.data.sRxPDOassign      0x20002bd0            0x6           6   
.bss._font_first_char   0x20002bd6            0x2           2   
.data.sTxPDOassign      0x20002bd8            0x6           6   
.bss._font_height       0x20002bde            0x2           2   
.bss.ObjDicList         0x20002be0            0x4           4   
.data.acHardwareversion 0x20002be4            0x4           4   
.data.acSoftwareversion 0x20002be8            0x4           4   
.data.u32Devicetype     0x20002bec            0x4           4   
.bss.SMActivate         0x20002bf0            0x4           4   
.bss.gTriggerCounterVal 0x20002bf4            0x4           4   
.bss.nFileStartWriteAdd 0x20002bf8            0x4           4   
.bss.nFileTotalLengthOf 0x20002bfc            0x4           4   
.bss.nFileWriteOffset   0x20002c00            0x4           4   
.bss.u32FileSize        0x20002c04            0x4           4   
.data.gFOETestFrameSize 0x20002c08            0x4           4   
.data.uart_rd_status    0x20002c0c            0x4           4   
.bss                    0x20002c10            0x4           4  Uninitialized data 
.bss.__malloc_free_list 0x20002c14            0x4           4   
.bss.__malloc_sbrk_star 0x20002c18            0x4           4   
.data._impure_ptr       0x20002c1c            0x4           4   
.bss                    0x20002c20            0x4           4  Uninitialized data 
.data.rows              0x20002c24            0x2           2   
.bss._font_last_char    0x20002c26            0x2           2   
.data.cols              0x20002c28            0x2           2   
.bss.x_cord             0x20002c2a            0x2           2   
.data._OLEDC_DEFAULT_VS 0x20002c2c            0x3           3   
.data._OLEDC_DEFAULT_DI 0x20002c2f            0x1           1   
.data._OLEDC_DEFAULT_CO 0x20002c30            0x3           3   
.data._OLEDC_DEFAULT_PR 0x20002c33            0x1           1   
.data._OLEDC_DEFAULT_RE 0x20002c34            0x1           1   
.data._OLEDC_DEFAULT_ST 0x20002c35            0x1           1   
.data._OLEDC_DEFAULT_VC 0x20002c36            0x1           1   
.bss.isLastByteTransfer 0x20002c37            0x1           1   
.bss.gbALEvtOpEnabled   0x20002c38            0x1           1   
.bss.bInitFinished      0x20002c39            0x1           1   
.bss.EepromLoaded       0x20002c3a            0x1           1   
.bss.gFirmwareDownload_ 0x20002c3b            0x1           1   
.bss.gFirmwareDownload_ 0x20002c3c            0x1           1   
.bss.bSdoInWork         0x20002c3d            0x1           1   
.bss.gsu8oledflag       0x20002c3e            0x1           1   
.data.spi_sync          0x20002c3f            0x1           1   
         Total RAM used  :      0x2c40       11328  4.3% of 0x40000
        --------------------------------------------------------------------------
            Total Data Memory used  :      0x2c40       11328  4.3% of 0x40000
        --------------------------------------------------------------------------


Dynamic Data-Memory Reservation
section                    address  length [bytes]      (dec)  Description
-------                 ----------  -------------------------  -----------
heap                    0x20002c48          0x800        2048  Reserved for heap 
stack                   0x20003460        0x3cb98      248728  Reserved for stack 

        --------------------------------------------------------------------------

Discarded input sections

 .text          0x00000000        0x0 c:/program files/microchip/xc32/v3.01/bin/bin/../../lib/gcc/pic32c/8.3.1/thumb/v7e-m+fp/hard/crti.o
 .data          0x00000000        0x0 c:/program files/microchip/xc32/v3.01/bin/bin/../../lib/gcc/pic32c/8.3.1/thumb/v7e-m+fp/hard/crti.o
 .bss           0x00000000        0x0 c:/program files/microchip/xc32/v3.01/bin/bin/../../lib/gcc/pic32c/8.3.1/thumb/v7e-m+fp/hard/crti.o
 .xc_stack_usage.hdr
                0x00000000        0xe c:/program files/microchip/xc32/v3.01/bin/bin/../../lib/gcc/pic32c/8.3.1/thumb/v7e-m+fp/hard/crti.o
 .xc_stack_usage
                0x00000000       0x26 c:/program files/microchip/xc32/v3.01/bin/bin/../../lib/gcc/pic32c/8.3.1/thumb/v7e-m+fp/hard/crti.o
 .data          0x00000000        0x4 c:/program files/microchip/xc32/v3.01/bin/bin/../../lib/gcc/pic32c/8.3.1/thumb/v7e-m+fp/hard/crtbegin.o
 .xc_stack_usage
                0x00000000       0x3c c:/program files/microchip/xc32/v3.01/bin/bin/../../lib/gcc/pic32c/8.3.1/thumb/v7e-m+fp/hard/crtbegin.o
 .xc_stack_usage.hdr
                0x00000000        0xe c:/program files/microchip/xc32/v3.01/bin/bin/../../lib/gcc/pic32c/8.3.1/thumb/v7e-m+fp/hard/crtbegin.o
 .text          0x00000000        0x0 build/LAN9255_SQI_INDIRECT_MODE/production/_ext/1984496892/plib_clock.o
 .data          0x00000000        0x0 build/LAN9255_SQI_INDIRECT_MODE/production/_ext/1984496892/plib_clock.o
 .bss           0x00000000        0x0 build/LAN9255_SQI_INDIRECT_MODE/production/_ext/1984496892/plib_clock.o
 .text          0x00000000        0x0 build/LAN9255_SQI_INDIRECT_MODE/production/_ext/1865131932/plib_cmcc.o
 .data          0x00000000        0x0 build/LAN9255_SQI_INDIRECT_MODE/production/_ext/1865131932/plib_cmcc.o
 .bss           0x00000000        0x0 build/LAN9255_SQI_INDIRECT_MODE/production/_ext/1865131932/plib_cmcc.o
 .text.CMCC_Disable
                0x00000000       0x18 build/LAN9255_SQI_INDIRECT_MODE/production/_ext/1865131932/plib_cmcc.o
 .text.CMCC_EnableICache
                0x00000000       0x28 build/LAN9255_SQI_INDIRECT_MODE/production/_ext/1865131932/plib_cmcc.o
 .text.CMCC_DisableICache
                0x00000000       0x28 build/LAN9255_SQI_INDIRECT_MODE/production/_ext/1865131932/plib_cmcc.o
 .text.CMCC_EnableDCache
                0x00000000       0x28 build/LAN9255_SQI_INDIRECT_MODE/production/_ext/1865131932/plib_cmcc.o
 .text.CMCC_DisableDCache
                0x00000000       0x28 build/LAN9255_SQI_INDIRECT_MODE/production/_ext/1865131932/plib_cmcc.o
 .text.CMCC_InvalidateAll
                0x00000000       0x20 build/LAN9255_SQI_INDIRECT_MODE/production/_ext/1865131932/plib_cmcc.o
 .debug_info    0x00000000      0x5dd build/LAN9255_SQI_INDIRECT_MODE/production/_ext/1865131932/plib_cmcc.o
 .debug_abbrev  0x00000000       0x9d build/LAN9255_SQI_INDIRECT_MODE/production/_ext/1865131932/plib_cmcc.o
 .debug_aranges
                0x00000000       0x48 build/LAN9255_SQI_INDIRECT_MODE/production/_ext/1865131932/plib_cmcc.o
 .debug_ranges  0x00000000       0x38 build/LAN9255_SQI_INDIRECT_MODE/production/_ext/1865131932/plib_cmcc.o
 .debug_line    0x00000000      0x285 build/LAN9255_SQI_INDIRECT_MODE/production/_ext/1865131932/plib_cmcc.o
 .debug_str     0x00000000        0x0 build/LAN9255_SQI_INDIRECT_MODE/production/_ext/1865131932/plib_cmcc.o
 .comment       0x00000000       0x54 build/LAN9255_SQI_INDIRECT_MODE/production/_ext/1865131932/plib_cmcc.o
 .debug_frame   0x00000000       0x70 build/LAN9255_SQI_INDIRECT_MODE/production/_ext/1865131932/plib_cmcc.o
 .ARM.attributes
                0x00000000       0x34 build/LAN9255_SQI_INDIRECT_MODE/production/_ext/1865131932/plib_cmcc.o
 .text          0x00000000        0x0 build/LAN9255_SQI_INDIRECT_MODE/production/_ext/60167341/plib_eic.o
 .data          0x00000000        0x0 build/LAN9255_SQI_INDIRECT_MODE/production/_ext/60167341/plib_eic.o
 .bss           0x00000000        0x0 build/LAN9255_SQI_INDIRECT_MODE/production/_ext/60167341/plib_eic.o
 .text.EIC_InterruptEnable
                0x00000000       0x10 build/LAN9255_SQI_INDIRECT_MODE/production/_ext/60167341/plib_eic.o
 .text.EIC_InterruptDisable
                0x00000000       0x10 build/LAN9255_SQI_INDIRECT_MODE/production/_ext/60167341/plib_eic.o
 .text          0x00000000        0x0 build/LAN9255_SQI_INDIRECT_MODE/production/_ext/1986646378/plib_evsys.o
 .data          0x00000000        0x0 build/LAN9255_SQI_INDIRECT_MODE/production/_ext/1986646378/plib_evsys.o
 .bss           0x00000000        0x0 build/LAN9255_SQI_INDIRECT_MODE/production/_ext/1986646378/plib_evsys.o
 .text          0x00000000        0x0 build/LAN9255_SQI_INDIRECT_MODE/production/_ext/1865468468/plib_nvic.o
 .data          0x00000000        0x0 build/LAN9255_SQI_INDIRECT_MODE/production/_ext/1865468468/plib_nvic.o
 .bss           0x00000000        0x0 build/LAN9255_SQI_INDIRECT_MODE/production/_ext/1865468468/plib_nvic.o
 .text          0x00000000        0x0 build/LAN9255_SQI_INDIRECT_MODE/production/_ext/1593096446/plib_nvmctrl.o
 .data          0x00000000        0x0 build/LAN9255_SQI_INDIRECT_MODE/production/_ext/1593096446/plib_nvmctrl.o
 .bss           0x00000000        0x0 build/LAN9255_SQI_INDIRECT_MODE/production/_ext/1593096446/plib_nvmctrl.o
 .text.NVMCTRL_SetWriteMode
                0x00000000       0x14 build/LAN9255_SQI_INDIRECT_MODE/production/_ext/1593096446/plib_nvmctrl.o
 .text.NVMCTRL_QuadWordWrite
                0x00000000       0x4c build/LAN9255_SQI_INDIRECT_MODE/production/_ext/1593096446/plib_nvmctrl.o
 .text.NVMCTRL_DoubleWordWrite
                0x00000000       0x40 build/LAN9255_SQI_INDIRECT_MODE/production/_ext/1593096446/plib_nvmctrl.o
 .text.NVMCTRL_ErrorGet
                0x00000000       0x20 build/LAN9255_SQI_INDIRECT_MODE/production/_ext/1593096446/plib_nvmctrl.o
 .text.NVMCTRL_RegionLock
                0x00000000       0x10 build/LAN9255_SQI_INDIRECT_MODE/production/_ext/1593096446/plib_nvmctrl.o
 .text.NVMCTRL_RegionUnlock
                0x00000000       0x10 build/LAN9255_SQI_INDIRECT_MODE/production/_ext/1593096446/plib_nvmctrl.o
 .text.NVMCTRL_RegionLockStatusGet
                0x00000000        0xc build/LAN9255_SQI_INDIRECT_MODE/production/_ext/1593096446/plib_nvmctrl.o
 .text.NVMCTRL_SmartEEPROM_IsBusy
                0x00000000       0x10 build/LAN9255_SQI_INDIRECT_MODE/production/_ext/1593096446/plib_nvmctrl.o
 .text.NVMCTRL_SmartEEPROMStatusGet
                0x00000000        0xc build/LAN9255_SQI_INDIRECT_MODE/production/_ext/1593096446/plib_nvmctrl.o
 .text.NVMCTRL_SmartEEPROM_IsActiveSectorFull
                0x00000000       0x10 build/LAN9255_SQI_INDIRECT_MODE/production/_ext/1593096446/plib_nvmctrl.o
 .text.NVMCTRL_SmartEEPROMSectorReallocate
                0x00000000       0x10 build/LAN9255_SQI_INDIRECT_MODE/production/_ext/1593096446/plib_nvmctrl.o
 .text.NVMCTRL_SmartEEPROMFlushPageBuffer
                0x00000000       0x18 build/LAN9255_SQI_INDIRECT_MODE/production/_ext/1593096446/plib_nvmctrl.o
 .text          0x00000000        0x0 build/LAN9255_SQI_INDIRECT_MODE/production/_ext/1865488526/oledc_driver.o
 .data          0x00000000        0x0 build/LAN9255_SQI_INDIRECT_MODE/production/_ext/1865488526/oledc_driver.o
 .bss           0x00000000        0x0 build/LAN9255_SQI_INDIRECT_MODE/production/_ext/1865488526/oledc_driver.o
 .text.oledc_enable
                0x00000000       0x1c build/LAN9255_SQI_INDIRECT_MODE/production/_ext/1865488526/oledc_driver.o
 .text.oledc_rectangle
                0x00000000       0x12 build/LAN9255_SQI_INDIRECT_MODE/production/_ext/1865488526/oledc_driver.o
 .text.oledc_image
                0x00000000      0x128 build/LAN9255_SQI_INDIRECT_MODE/production/_ext/1865488526/oledc_driver.o
 .text          0x00000000        0x0 build/LAN9255_SQI_INDIRECT_MODE/production/_ext/1865521619/plib_port.o
 .data          0x00000000        0x0 build/LAN9255_SQI_INDIRECT_MODE/production/_ext/1865521619/plib_port.o
 .bss           0x00000000        0x0 build/LAN9255_SQI_INDIRECT_MODE/production/_ext/1865521619/plib_port.o
 .text.PORT_GroupRead
                0x00000000        0x4 build/LAN9255_SQI_INDIRECT_MODE/production/_ext/1865521619/plib_port.o
 .text.PORT_GroupWrite
                0x00000000        0xc build/LAN9255_SQI_INDIRECT_MODE/production/_ext/1865521619/plib_port.o
 .text.PORT_GroupLatchRead
                0x00000000        0x4 build/LAN9255_SQI_INDIRECT_MODE/production/_ext/1865521619/plib_port.o
 .text.PORT_GroupToggle
                0x00000000        0x4 build/LAN9255_SQI_INDIRECT_MODE/production/_ext/1865521619/plib_port.o
 .text.PORT_GroupInputEnable
                0x00000000        0x4 build/LAN9255_SQI_INDIRECT_MODE/production/_ext/1865521619/plib_port.o
 .text          0x00000000        0x0 build/LAN9255_SQI_INDIRECT_MODE/production/_ext/1865555181/plib_qspi.o
 .data          0x00000000        0x0 build/LAN9255_SQI_INDIRECT_MODE/production/_ext/1865555181/plib_qspi.o
 .bss           0x00000000        0x0 build/LAN9255_SQI_INDIRECT_MODE/production/_ext/1865555181/plib_qspi.o
 .text.QSPI_RegisterRead
                0x00000000       0x54 build/LAN9255_SQI_INDIRECT_MODE/production/_ext/1865555181/plib_qspi.o
 .text          0x00000000        0x0 build/LAN9255_SQI_INDIRECT_MODE/production/_ext/1865555181/plib_qspi_spi.o
 .data          0x00000000        0x0 build/LAN9255_SQI_INDIRECT_MODE/production/_ext/1865555181/plib_qspi_spi.o
 .bss           0x00000000        0x0 build/LAN9255_SQI_INDIRECT_MODE/production/_ext/1865555181/plib_qspi_spi.o
 .debug_line    0x00000000        0x0 build/LAN9255_SQI_INDIRECT_MODE/production/_ext/1865555181/plib_qspi_spi.o
 .debug_str     0x00000000        0x0 build/LAN9255_SQI_INDIRECT_MODE/production/_ext/1865555181/plib_qspi_spi.o
 .comment       0x00000000       0x54 build/LAN9255_SQI_INDIRECT_MODE/production/_ext/1865555181/plib_qspi_spi.o
 .ARM.attributes
                0x00000000       0x39 build/LAN9255_SQI_INDIRECT_MODE/production/_ext/1865555181/plib_qspi_spi.o
 .text          0x00000000        0x0 build/LAN9255_SQI_INDIRECT_MODE/production/_ext/17022449/plib_sercom4_spi_master.o
 .data          0x00000000        0x0 build/LAN9255_SQI_INDIRECT_MODE/production/_ext/17022449/plib_sercom4_spi_master.o
 .bss           0x00000000        0x0 build/LAN9255_SQI_INDIRECT_MODE/production/_ext/17022449/plib_sercom4_spi_master.o
 .text.SERCOM4_SPI_TransferSetup
                0x00000000       0x9c build/LAN9255_SQI_INDIRECT_MODE/production/_ext/17022449/plib_sercom4_spi_master.o
 .text.SERCOM4_SPI_IsBusy
                0x00000000       0x2c build/LAN9255_SQI_INDIRECT_MODE/production/_ext/17022449/plib_sercom4_spi_master.o
 .text.SERCOM4_SPI_Read
                0x00000000       0x10 build/LAN9255_SQI_INDIRECT_MODE/production/_ext/17022449/plib_sercom4_spi_master.o
 .text          0x00000000        0x0 build/LAN9255_SQI_INDIRECT_MODE/production/_ext/504274921/plib_sercom0_usart.o
 .data          0x00000000        0x0 build/LAN9255_SQI_INDIRECT_MODE/production/_ext/504274921/plib_sercom0_usart.o
 .bss           0x00000000        0x0 build/LAN9255_SQI_INDIRECT_MODE/production/_ext/504274921/plib_sercom0_usart.o
 .text.SERCOM0_USART_FrequencyGet
                0x00000000        0x8 build/LAN9255_SQI_INDIRECT_MODE/production/_ext/504274921/plib_sercom0_usart.o
 .text.SERCOM0_USART_TransmitterEnable
                0x00000000       0x18 build/LAN9255_SQI_INDIRECT_MODE/production/_ext/504274921/plib_sercom0_usart.o
 .text.SERCOM0_USART_TransmitterDisable
                0x00000000       0x18 build/LAN9255_SQI_INDIRECT_MODE/production/_ext/504274921/plib_sercom0_usart.o
 .text.SERCOM0_USART_WriteIsBusy
                0x00000000        0xc build/LAN9255_SQI_INDIRECT_MODE/production/_ext/504274921/plib_sercom0_usart.o
 .text.SERCOM0_USART_WriteCountGet
                0x00000000        0xc build/LAN9255_SQI_INDIRECT_MODE/production/_ext/504274921/plib_sercom0_usart.o
 .text.SERCOM0_USART_ReceiverEnable
                0x00000000       0x18 build/LAN9255_SQI_INDIRECT_MODE/production/_ext/504274921/plib_sercom0_usart.o
 .text.SERCOM0_USART_ReceiverDisable
                0x00000000       0x18 build/LAN9255_SQI_INDIRECT_MODE/production/_ext/504274921/plib_sercom0_usart.o
 .text.SERCOM0_USART_ReadIsBusy
                0x00000000        0xc build/LAN9255_SQI_INDIRECT_MODE/production/_ext/504274921/plib_sercom0_usart.o
 .text          0x00000000        0x0 build/LAN9255_SQI_INDIRECT_MODE/production/_ext/1827571544/plib_systick.o
 .data          0x00000000        0x0 build/LAN9255_SQI_INDIRECT_MODE/production/_ext/1827571544/plib_systick.o
 .bss           0x00000000        0x0 build/LAN9255_SQI_INDIRECT_MODE/production/_ext/1827571544/plib_systick.o
 .text.SYSTICK_TimerRestart
                0x00000000       0x1c build/LAN9255_SQI_INDIRECT_MODE/production/_ext/1827571544/plib_systick.o
 .text.SYSTICK_TimerStop
                0x00000000       0x10 build/LAN9255_SQI_INDIRECT_MODE/production/_ext/1827571544/plib_systick.o
 .text.SYSTICK_TimerPeriodSet
                0x00000000        0xc build/LAN9255_SQI_INDIRECT_MODE/production/_ext/1827571544/plib_systick.o
 .text.SYSTICK_TimerPeriodGet
                0x00000000        0xc build/LAN9255_SQI_INDIRECT_MODE/production/_ext/1827571544/plib_systick.o
 .text.SYSTICK_TimerCounterGet
                0x00000000        0xc build/LAN9255_SQI_INDIRECT_MODE/production/_ext/1827571544/plib_systick.o
 .text.SYSTICK_TimerFrequencyGet
                0x00000000        0x8 build/LAN9255_SQI_INDIRECT_MODE/production/_ext/1827571544/plib_systick.o
 .text.SYSTICK_DelayMs
                0x00000000       0x40 build/LAN9255_SQI_INDIRECT_MODE/production/_ext/1827571544/plib_systick.o
 .text          0x00000000        0x0 build/LAN9255_SQI_INDIRECT_MODE/production/_ext/163028504/xc32_monitor.o
 .data          0x00000000        0x0 build/LAN9255_SQI_INDIRECT_MODE/production/_ext/163028504/xc32_monitor.o
 .bss           0x00000000        0x0 build/LAN9255_SQI_INDIRECT_MODE/production/_ext/163028504/xc32_monitor.o
 .text          0x00000000        0x0 build/LAN9255_SQI_INDIRECT_MODE/production/_ext/1881668453/sys_int.o
 .data          0x00000000        0x0 build/LAN9255_SQI_INDIRECT_MODE/production/_ext/1881668453/sys_int.o
 .bss           0x00000000        0x0 build/LAN9255_SQI_INDIRECT_MODE/production/_ext/1881668453/sys_int.o
 .text.SYS_INT_Enable
                0x00000000        0x8 build/LAN9255_SQI_INDIRECT_MODE/production/_ext/1881668453/sys_int.o
 .text.SYS_INT_Disable
                0x00000000       0x12 build/LAN9255_SQI_INDIRECT_MODE/production/_ext/1881668453/sys_int.o
 .text.SYS_INT_Restore
                0x00000000       0x12 build/LAN9255_SQI_INDIRECT_MODE/production/_ext/1881668453/sys_int.o
 .text.SYS_INT_SourceDisable
                0x00000000       0x44 build/LAN9255_SQI_INDIRECT_MODE/production/_ext/1881668453/sys_int.o
 .text.SYS_INT_SourceRestore
                0x00000000       0x20 build/LAN9255_SQI_INDIRECT_MODE/production/_ext/1881668453/sys_int.o
 .debug_info    0x00000000     0x1214 build/LAN9255_SQI_INDIRECT_MODE/production/_ext/1881668453/sys_int.o
 .debug_abbrev  0x00000000      0x255 build/LAN9255_SQI_INDIRECT_MODE/production/_ext/1881668453/sys_int.o
 .debug_loc     0x00000000      0x116 build/LAN9255_SQI_INDIRECT_MODE/production/_ext/1881668453/sys_int.o
 .debug_aranges
                0x00000000       0x40 build/LAN9255_SQI_INDIRECT_MODE/production/_ext/1881668453/sys_int.o
 .debug_ranges  0x00000000       0x30 build/LAN9255_SQI_INDIRECT_MODE/production/_ext/1881668453/sys_int.o
 .debug_line    0x00000000      0x371 build/LAN9255_SQI_INDIRECT_MODE/production/_ext/1881668453/sys_int.o
 .debug_str     0x00000000       0x10 build/LAN9255_SQI_INDIRECT_MODE/production/_ext/1881668453/sys_int.o
 .comment       0x00000000       0x54 build/LAN9255_SQI_INDIRECT_MODE/production/_ext/1881668453/sys_int.o
 .debug_frame   0x00000000       0x6c build/LAN9255_SQI_INDIRECT_MODE/production/_ext/1881668453/sys_int.o
 .ARM.attributes
                0x00000000       0x34 build/LAN9255_SQI_INDIRECT_MODE/production/_ext/1881668453/sys_int.o
 .text          0x00000000        0x0 build/LAN9255_SQI_INDIRECT_MODE/production/_ext/1171490990/exceptions.o
 .data          0x00000000        0x0 build/LAN9255_SQI_INDIRECT_MODE/production/_ext/1171490990/exceptions.o
 .bss           0x00000000        0x0 build/LAN9255_SQI_INDIRECT_MODE/production/_ext/1171490990/exceptions.o
 .text          0x00000000        0x0 build/LAN9255_SQI_INDIRECT_MODE/production/_ext/1171490990/initialization.o
 .data          0x00000000        0x0 build/LAN9255_SQI_INDIRECT_MODE/production/_ext/1171490990/initialization.o
 .bss           0x00000000        0x0 build/LAN9255_SQI_INDIRECT_MODE/production/_ext/1171490990/initialization.o
 COMMON         0x00000000        0x1 build/LAN9255_SQI_INDIRECT_MODE/production/_ext/1171490990/initialization.o
 .text          0x00000000        0x0 build/LAN9255_SQI_INDIRECT_MODE/production/_ext/1171490990/interrupts.o
 .data          0x00000000        0x0 build/LAN9255_SQI_INDIRECT_MODE/production/_ext/1171490990/interrupts.o
 .bss           0x00000000        0x0 build/LAN9255_SQI_INDIRECT_MODE/production/_ext/1171490990/interrupts.o
 .text          0x00000000        0x0 build/LAN9255_SQI_INDIRECT_MODE/production/_ext/1171490990/libc_syscalls.o
 .data          0x00000000        0x0 build/LAN9255_SQI_INDIRECT_MODE/production/_ext/1171490990/libc_syscalls.o
 .bss           0x00000000        0x0 build/LAN9255_SQI_INDIRECT_MODE/production/_ext/1171490990/libc_syscalls.o
 .text._exit    0x00000000        0x2 build/LAN9255_SQI_INDIRECT_MODE/production/_ext/1171490990/libc_syscalls.o
 .debug_info    0x00000000      0xf7c build/LAN9255_SQI_INDIRECT_MODE/production/_ext/1171490990/libc_syscalls.o
 .debug_abbrev  0x00000000      0x1d3 build/LAN9255_SQI_INDIRECT_MODE/production/_ext/1171490990/libc_syscalls.o
 .debug_loc     0x00000000       0x15 build/LAN9255_SQI_INDIRECT_MODE/production/_ext/1171490990/libc_syscalls.o
 .debug_aranges
                0x00000000       0x20 build/LAN9255_SQI_INDIRECT_MODE/production/_ext/1171490990/libc_syscalls.o
 .debug_ranges  0x00000000       0x10 build/LAN9255_SQI_INDIRECT_MODE/production/_ext/1171490990/libc_syscalls.o
 .debug_line    0x00000000      0x1d5 build/LAN9255_SQI_INDIRECT_MODE/production/_ext/1171490990/libc_syscalls.o
 .debug_str     0x00000000        0xe build/LAN9255_SQI_INDIRECT_MODE/production/_ext/1171490990/libc_syscalls.o
 .comment       0x00000000       0x54 build/LAN9255_SQI_INDIRECT_MODE/production/_ext/1171490990/libc_syscalls.o
 .debug_frame   0x00000000       0x20 build/LAN9255_SQI_INDIRECT_MODE/production/_ext/1171490990/libc_syscalls.o
 .ARM.attributes
                0x00000000       0x34 build/LAN9255_SQI_INDIRECT_MODE/production/_ext/1171490990/libc_syscalls.o
 .text          0x00000000        0x0 build/LAN9255_SQI_INDIRECT_MODE/production/_ext/1171490990/startup_xc32.o
 .data          0x00000000        0x0 build/LAN9255_SQI_INDIRECT_MODE/production/_ext/1171490990/startup_xc32.o
 .bss           0x00000000        0x0 build/LAN9255_SQI_INDIRECT_MODE/production/_ext/1171490990/startup_xc32.o
 .text          0x00000000        0x0 build/LAN9255_SQI_INDIRECT_MODE/production/_ext/1171490990/tasks.o
 .data          0x00000000        0x0 build/LAN9255_SQI_INDIRECT_MODE/production/_ext/1171490990/tasks.o
 .bss           0x00000000        0x0 build/LAN9255_SQI_INDIRECT_MODE/production/_ext/1171490990/tasks.o
 .text          0x00000000        0x0 build/LAN9255_SQI_INDIRECT_MODE/production/_ext/1671622016/Drivers.o
 .data          0x00000000        0x0 build/LAN9255_SQI_INDIRECT_MODE/production/_ext/1671622016/Drivers.o
 .bss           0x00000000        0x0 build/LAN9255_SQI_INDIRECT_MODE/production/_ext/1671622016/Drivers.o
 .text.PDI_GetTimer
                0x00000000        0x4 build/LAN9255_SQI_INDIRECT_MODE/production/_ext/1671622016/Drivers.o
 .text.PDI_ClearTimer
                0x00000000        0x2 build/LAN9255_SQI_INDIRECT_MODE/production/_ext/1671622016/Drivers.o
 .text.stop_timer
                0x00000000        0x2 build/LAN9255_SQI_INDIRECT_MODE/production/_ext/1671622016/Drivers.o
 .text.start_timer
                0x00000000        0x2 build/LAN9255_SQI_INDIRECT_MODE/production/_ext/1671622016/Drivers.o
 .text          0x00000000        0x0 build/LAN9255_SQI_INDIRECT_MODE/production/_ext/108147519/ESC_Utils.o
 .data          0x00000000        0x0 build/LAN9255_SQI_INDIRECT_MODE/production/_ext/108147519/ESC_Utils.o
 .bss           0x00000000        0x0 build/LAN9255_SQI_INDIRECT_MODE/production/_ext/108147519/ESC_Utils.o
 .text          0x00000000        0x0 build/LAN9255_SQI_INDIRECT_MODE/production/_ext/108147519/LAN925x.o
 .data          0x00000000        0x0 build/LAN9255_SQI_INDIRECT_MODE/production/_ext/108147519/LAN925x.o
 .bss           0x00000000        0x0 build/LAN9255_SQI_INDIRECT_MODE/production/_ext/108147519/LAN925x.o
 .text.HW_Release
                0x00000000        0x2 build/LAN9255_SQI_INDIRECT_MODE/production/_ext/108147519/LAN925x.o
 .text.HW_EscWriteMailbox
                0x00000000        0x8 build/LAN9255_SQI_INDIRECT_MODE/production/_ext/108147519/LAN925x.o
 .text.HW_EscReadMailbox
                0x00000000        0x8 build/LAN9255_SQI_INDIRECT_MODE/production/_ext/108147519/LAN925x.o
 .text.HW_SetLed
                0x00000000        0x2 build/LAN9255_SQI_INDIRECT_MODE/production/_ext/108147519/LAN925x.o
 .text          0x00000000        0x0 build/LAN9255_SQI_INDIRECT_MODE/production/_ext/108134065/bootmode.o
 .data          0x00000000        0x0 build/LAN9255_SQI_INDIRECT_MODE/production/_ext/108134065/bootmode.o
 .bss           0x00000000        0x0 build/LAN9255_SQI_INDIRECT_MODE/production/_ext/108134065/bootmode.o
 .text.BL_StartDownload
                0x00000000        0x2 build/LAN9255_SQI_INDIRECT_MODE/production/_ext/108134065/bootmode.o
 .text.BL_Data  0x00000000        0x4 build/LAN9255_SQI_INDIRECT_MODE/production/_ext/108134065/bootmode.o
 .text          0x00000000        0x0 build/LAN9255_SQI_INDIRECT_MODE/production/_ext/108134065/coeappl.o
 .data          0x00000000        0x0 build/LAN9255_SQI_INDIRECT_MODE/production/_ext/108134065/coeappl.o
 .bss           0x00000000        0x0 build/LAN9255_SQI_INDIRECT_MODE/production/_ext/108134065/coeappl.o
 .text          0x00000000        0x0 build/LAN9255_SQI_INDIRECT_MODE/production/_ext/108134065/ecatappl.o
 .data          0x00000000        0x0 build/LAN9255_SQI_INDIRECT_MODE/production/_ext/108134065/ecatappl.o
 .bss           0x00000000        0x0 build/LAN9255_SQI_INDIRECT_MODE/production/_ext/108134065/ecatappl.o
 .text          0x00000000        0x0 build/LAN9255_SQI_INDIRECT_MODE/production/_ext/108134065/ecatcoe.o
 .data          0x00000000        0x0 build/LAN9255_SQI_INDIRECT_MODE/production/_ext/108134065/ecatcoe.o
 .bss           0x00000000        0x0 build/LAN9255_SQI_INDIRECT_MODE/production/_ext/108134065/ecatcoe.o
 .text          0x00000000        0x0 build/LAN9255_SQI_INDIRECT_MODE/production/_ext/108134065/ecatfoe.o
 .data          0x00000000        0x0 build/LAN9255_SQI_INDIRECT_MODE/production/_ext/108134065/ecatfoe.o
 .bss           0x00000000        0x0 build/LAN9255_SQI_INDIRECT_MODE/production/_ext/108134065/ecatfoe.o
 .text          0x00000000        0x0 build/LAN9255_SQI_INDIRECT_MODE/production/_ext/108134065/ecatslv.o
 .data          0x00000000        0x0 build/LAN9255_SQI_INDIRECT_MODE/production/_ext/108134065/ecatslv.o
 .bss           0x00000000        0x0 build/LAN9255_SQI_INDIRECT_MODE/production/_ext/108134065/ecatslv.o
 .text.BackToInitTransition
                0x00000000        0xc build/LAN9255_SQI_INDIRECT_MODE/production/_ext/108134065/ecatslv.o
 .text.ECAT_StateChange
                0x00000000      0x12c build/LAN9255_SQI_INDIRECT_MODE/production/_ext/108134065/ecatslv.o
 .text          0x00000000        0x0 build/LAN9255_SQI_INDIRECT_MODE/production/_ext/108134065/emcy.o
 .data          0x00000000        0x0 build/LAN9255_SQI_INDIRECT_MODE/production/_ext/108134065/emcy.o
 .bss           0x00000000        0x0 build/LAN9255_SQI_INDIRECT_MODE/production/_ext/108134065/emcy.o
 .text          0x00000000        0x0 build/LAN9255_SQI_INDIRECT_MODE/production/_ext/108134065/foeappl.o
 .data          0x00000000        0x0 build/LAN9255_SQI_INDIRECT_MODE/production/_ext/108134065/foeappl.o
 .bss           0x00000000        0x0 build/LAN9255_SQI_INDIRECT_MODE/production/_ext/108134065/foeappl.o
 .text          0x00000000        0x0 build/LAN9255_SQI_INDIRECT_MODE/production/_ext/108134065/mailbox.o
 .data          0x00000000        0x0 build/LAN9255_SQI_INDIRECT_MODE/production/_ext/108134065/mailbox.o
 .bss           0x00000000        0x0 build/LAN9255_SQI_INDIRECT_MODE/production/_ext/108134065/mailbox.o
 .text          0x00000000        0x0 build/LAN9255_SQI_INDIRECT_MODE/production/_ext/108134065/objdef.o
 .data          0x00000000        0x0 build/LAN9255_SQI_INDIRECT_MODE/production/_ext/108134065/objdef.o
 .bss           0x00000000        0x0 build/LAN9255_SQI_INDIRECT_MODE/production/_ext/108134065/objdef.o
 .text          0x00000000        0x0 build/LAN9255_SQI_INDIRECT_MODE/production/_ext/108134065/sample_app.o
 .data          0x00000000        0x0 build/LAN9255_SQI_INDIRECT_MODE/production/_ext/108134065/sample_app.o
 .bss           0x00000000        0x0 build/LAN9255_SQI_INDIRECT_MODE/production/_ext/108134065/sample_app.o
 .text          0x00000000        0x0 build/LAN9255_SQI_INDIRECT_MODE/production/_ext/108134065/sdoserv.o
 .data          0x00000000        0x0 build/LAN9255_SQI_INDIRECT_MODE/production/_ext/108134065/sdoserv.o
 .bss           0x00000000        0x0 build/LAN9255_SQI_INDIRECT_MODE/production/_ext/108134065/sdoserv.o
 .text          0x00000000        0x0 build/LAN9255_SQI_INDIRECT_MODE/production/_ext/1360937237/main.o
 .data          0x00000000        0x0 build/LAN9255_SQI_INDIRECT_MODE/production/_ext/1360937237/main.o
 .bss           0x00000000        0x0 build/LAN9255_SQI_INDIRECT_MODE/production/_ext/1360937237/main.o
 .text          0x00000000        0x0 build/LAN9255_SQI_INDIRECT_MODE/production/_ext/1360937237/app.o
 .data          0x00000000        0x0 build/LAN9255_SQI_INDIRECT_MODE/production/_ext/1360937237/app.o
 .bss           0x00000000        0x0 build/LAN9255_SQI_INDIRECT_MODE/production/_ext/1360937237/app.o
 .config_var    0x00000000        0x4 build/LAN9255_SQI_INDIRECT_MODE/production/_ext/1360937237/app.o
 .rodata.gAppBankBOffsetAddr
                0x00000000        0x4 build/LAN9255_SQI_INDIRECT_MODE/production/_ext/1360937237/app.o
 .rodata.gApplicationStartAddr
                0x00000000        0x4 build/LAN9255_SQI_INDIRECT_MODE/production/_ext/1360937237/app.o
 .rodata.guiFont_Exo_2_Condensed10x16_Regular
                0x00000000      0x7a8 build/LAN9255_SQI_INDIRECT_MODE/production/_ext/1360937237/app.o
 .rodata.guiFont_Exo_2_Condensed15x23_Regular
                0x00000000      0xbc8 build/LAN9255_SQI_INDIRECT_MODE/production/_ext/1360937237/app.o
 .rodata.guiFont_Exo_2_Condensed21x32_Regular
                0x00000000     0x16c8 build/LAN9255_SQI_INDIRECT_MODE/production/_ext/1360937237/app.o
 .rodata.guiFont_Roboto_Mono11x23_Regular
                0x00000000     0x1144 build/LAN9255_SQI_INDIRECT_MODE/production/_ext/1360937237/app.o
 .rodata.guiFont_Tahoma_10_Regular
                0x00000000      0x7f8 build/LAN9255_SQI_INDIRECT_MODE/production/_ext/1360937237/app.o
 .rodata.guiFont_Tahoma_14_Regular
                0x00000000      0xfd4 build/LAN9255_SQI_INDIRECT_MODE/production/_ext/1360937237/app.o
 .rodata.guiFont_Tahoma_16_Regular
                0x00000000     0x120c build/LAN9255_SQI_INDIRECT_MODE/production/_ext/1360937237/app.o
 .rodata.guiFont_Tahoma_18_Regular
                0x00000000     0x1598 build/LAN9255_SQI_INDIRECT_MODE/production/_ext/1360937237/app.o
 .rodata.guiFont_Tahoma_6_Regular
                0x00000000      0x548 build/LAN9255_SQI_INDIRECT_MODE/production/_ext/1360937237/app.o
 .rodata.guiFont_Tahoma_7_Regular
                0x00000000      0x5b4 build/LAN9255_SQI_INDIRECT_MODE/production/_ext/1360937237/app.o
 .text          0x00000000        0x0 build/LAN9255_SQI_INDIRECT_MODE/production/_ext/1360937237/Developer_Test.o
 .data          0x00000000        0x0 build/LAN9255_SQI_INDIRECT_MODE/production/_ext/1360937237/Developer_Test.o
 .bss           0x00000000        0x0 build/LAN9255_SQI_INDIRECT_MODE/production/_ext/1360937237/Developer_Test.o
 .debug_info    0x00000000     0x10d0 build/LAN9255_SQI_INDIRECT_MODE/production/_ext/1360937237/Developer_Test.o
 .debug_abbrev  0x00000000      0x19c build/LAN9255_SQI_INDIRECT_MODE/production/_ext/1360937237/Developer_Test.o
 .debug_aranges
                0x00000000       0x18 build/LAN9255_SQI_INDIRECT_MODE/production/_ext/1360937237/Developer_Test.o
 .debug_line    0x00000000      0x219 build/LAN9255_SQI_INDIRECT_MODE/production/_ext/1360937237/Developer_Test.o
 .debug_str     0x00000000        0xe build/LAN9255_SQI_INDIRECT_MODE/production/_ext/1360937237/Developer_Test.o
 .comment       0x00000000       0x54 build/LAN9255_SQI_INDIRECT_MODE/production/_ext/1360937237/Developer_Test.o
 .ARM.attributes
                0x00000000       0x39 build/LAN9255_SQI_INDIRECT_MODE/production/_ext/1360937237/Developer_Test.o
 .text          0x00000000        0x0 c:/program files/microchip/xc32/v3.01/bin/bin/../../lib/gcc/pic32c/8.3.1/../../../../pic32c/lib/thumb/v7e-m+fp/hard\libpic32c.a(data_init.o)
 .data          0x00000000        0x0 c:/program files/microchip/xc32/v3.01/bin/bin/../../lib/gcc/pic32c/8.3.1/../../../../pic32c/lib/thumb/v7e-m+fp/hard\libpic32c.a(data_init.o)
 .xc_stack_usage
                0x00000000       0x2a c:/program files/microchip/xc32/v3.01/bin/bin/../../lib/gcc/pic32c/8.3.1/../../../../pic32c/lib/thumb/v7e-m+fp/hard\libpic32c.a(data_init.o)
 .xc_stack_usage.hdr
                0x00000000        0xe c:/program files/microchip/xc32/v3.01/bin/bin/../../lib/gcc/pic32c/8.3.1/../../../../pic32c/lib/thumb/v7e-m+fp/hard\libpic32c.a(data_init.o)
 .data          0x00000000        0x0 c:/program files/microchip/xc32/v3.01/bin/bin/../../lib/gcc/pic32c/8.3.1/thumb/v7e-m+fp/hard\libgcc.a(_aeabi_uldivmod.o)
 .bss           0x00000000        0x0 c:/program files/microchip/xc32/v3.01/bin/bin/../../lib/gcc/pic32c/8.3.1/thumb/v7e-m+fp/hard\libgcc.a(_aeabi_uldivmod.o)
 .xc_stack_usage.hdr
                0x00000000        0xe c:/program files/microchip/xc32/v3.01/bin/bin/../../lib/gcc/pic32c/8.3.1/thumb/v7e-m+fp/hard\libgcc.a(_aeabi_uldivmod.o)
 .xc_stack_usage
                0x00000000       0x1e c:/program files/microchip/xc32/v3.01/bin/bin/../../lib/gcc/pic32c/8.3.1/thumb/v7e-m+fp/hard\libgcc.a(_aeabi_uldivmod.o)
 .data          0x00000000        0x0 c:/program files/microchip/xc32/v3.01/bin/bin/../../lib/gcc/pic32c/8.3.1/thumb/v7e-m+fp/hard\libgcc.a(_udivmoddi4.o)
 .bss           0x00000000        0x0 c:/program files/microchip/xc32/v3.01/bin/bin/../../lib/gcc/pic32c/8.3.1/thumb/v7e-m+fp/hard\libgcc.a(_udivmoddi4.o)
 .xc_stack_usage
                0x00000000       0x1a c:/program files/microchip/xc32/v3.01/bin/bin/../../lib/gcc/pic32c/8.3.1/thumb/v7e-m+fp/hard\libgcc.a(_udivmoddi4.o)
 .ARM.extab     0x00000000        0x0 c:/program files/microchip/xc32/v3.01/bin/bin/../../lib/gcc/pic32c/8.3.1/thumb/v7e-m+fp/hard\libgcc.a(_udivmoddi4.o)
 .xc_stack_usage.hdr
                0x00000000        0xe c:/program files/microchip/xc32/v3.01/bin/bin/../../lib/gcc/pic32c/8.3.1/thumb/v7e-m+fp/hard\libgcc.a(_udivmoddi4.o)
 .data          0x00000000        0x0 c:/program files/microchip/xc32/v3.01/bin/bin/../../lib/gcc/pic32c/8.3.1/thumb/v7e-m+fp/hard\libgcc.a(_dvmd_tls.o)
 .bss           0x00000000        0x0 c:/program files/microchip/xc32/v3.01/bin/bin/../../lib/gcc/pic32c/8.3.1/thumb/v7e-m+fp/hard\libgcc.a(_dvmd_tls.o)
 .xc_stack_usage.hdr
                0x00000000        0xe c:/program files/microchip/xc32/v3.01/bin/bin/../../lib/gcc/pic32c/8.3.1/thumb/v7e-m+fp/hard\libgcc.a(_dvmd_tls.o)
 .xc_stack_usage
                0x00000000       0x36 c:/program files/microchip/xc32/v3.01/bin/bin/../../lib/gcc/pic32c/8.3.1/thumb/v7e-m+fp/hard\libgcc.a(_dvmd_tls.o)
 .text          0x00000000        0x0 c:/program files/microchip/xc32/v3.01/bin/bin/../../lib/gcc/pic32c/8.3.1/../../../../pic32c/lib/thumb/v7e-m+fp/hard\libc_nano.a(_lib_a-sprintf.cdnopuxX.o)
 .data          0x00000000        0x0 c:/program files/microchip/xc32/v3.01/bin/bin/../../lib/gcc/pic32c/8.3.1/../../../../pic32c/lib/thumb/v7e-m+fp/hard\libc_nano.a(_lib_a-sprintf.cdnopuxX.o)
 .bss           0x00000000        0x0 c:/program files/microchip/xc32/v3.01/bin/bin/../../lib/gcc/pic32c/8.3.1/../../../../pic32c/lib/thumb/v7e-m+fp/hard\libc_nano.a(_lib_a-sprintf.cdnopuxX.o)
 .xc_stack_usage
                0x00000000       0x1f c:/program files/microchip/xc32/v3.01/bin/bin/../../lib/gcc/pic32c/8.3.1/../../../../pic32c/lib/thumb/v7e-m+fp/hard\libc_nano.a(_lib_a-sprintf.cdnopuxX.o)
 .xc_stack_usage.hdr
                0x00000000        0xe c:/program files/microchip/xc32/v3.01/bin/bin/../../lib/gcc/pic32c/8.3.1/../../../../pic32c/lib/thumb/v7e-m+fp/hard\libc_nano.a(_lib_a-sprintf.cdnopuxX.o)
 .text          0x00000000        0x0 c:/program files/microchip/xc32/v3.01/bin/bin/../../lib/gcc/pic32c/8.3.1/../../../../pic32c/lib/thumb/v7e-m+fp/hard\libc_nano.a(lib_a-init.o)
 .data          0x00000000        0x0 c:/program files/microchip/xc32/v3.01/bin/bin/../../lib/gcc/pic32c/8.3.1/../../../../pic32c/lib/thumb/v7e-m+fp/hard\libc_nano.a(lib_a-init.o)
 .bss           0x00000000        0x0 c:/program files/microchip/xc32/v3.01/bin/bin/../../lib/gcc/pic32c/8.3.1/../../../../pic32c/lib/thumb/v7e-m+fp/hard\libc_nano.a(lib_a-init.o)
 .xc_stack_usage
                0x00000000       0x1f c:/program files/microchip/xc32/v3.01/bin/bin/../../lib/gcc/pic32c/8.3.1/../../../../pic32c/lib/thumb/v7e-m+fp/hard\libc_nano.a(lib_a-init.o)
 .xc_stack_usage.hdr
                0x00000000        0xe c:/program files/microchip/xc32/v3.01/bin/bin/../../lib/gcc/pic32c/8.3.1/../../../../pic32c/lib/thumb/v7e-m+fp/hard\libc_nano.a(lib_a-init.o)
 .text          0x00000000        0x0 c:/program files/microchip/xc32/v3.01/bin/bin/../../lib/gcc/pic32c/8.3.1/../../../../pic32c/lib/thumb/v7e-m+fp/hard\libc_nano.a(lib_a-malloc.o)
 .data          0x00000000        0x0 c:/program files/microchip/xc32/v3.01/bin/bin/../../lib/gcc/pic32c/8.3.1/../../../../pic32c/lib/thumb/v7e-m+fp/hard\libc_nano.a(lib_a-malloc.o)
 .bss           0x00000000        0x0 c:/program files/microchip/xc32/v3.01/bin/bin/../../lib/gcc/pic32c/8.3.1/../../../../pic32c/lib/thumb/v7e-m+fp/hard\libc_nano.a(lib_a-malloc.o)
 .xc_stack_usage
                0x00000000       0x26 c:/program files/microchip/xc32/v3.01/bin/bin/../../lib/gcc/pic32c/8.3.1/../../../../pic32c/lib/thumb/v7e-m+fp/hard\libc_nano.a(lib_a-malloc.o)
 .xc_stack_usage.hdr
                0x00000000        0xe c:/program files/microchip/xc32/v3.01/bin/bin/../../lib/gcc/pic32c/8.3.1/../../../../pic32c/lib/thumb/v7e-m+fp/hard\libc_nano.a(lib_a-malloc.o)
 .text          0x00000000        0x0 c:/program files/microchip/xc32/v3.01/bin/bin/../../lib/gcc/pic32c/8.3.1/../../../../pic32c/lib/thumb/v7e-m+fp/hard\libc_nano.a(lib_a-memcpy-stub.o)
 .data          0x00000000        0x0 c:/program files/microchip/xc32/v3.01/bin/bin/../../lib/gcc/pic32c/8.3.1/../../../../pic32c/lib/thumb/v7e-m+fp/hard\libc_nano.a(lib_a-memcpy-stub.o)
 .bss           0x00000000        0x0 c:/program files/microchip/xc32/v3.01/bin/bin/../../lib/gcc/pic32c/8.3.1/../../../../pic32c/lib/thumb/v7e-m+fp/hard\libc_nano.a(lib_a-memcpy-stub.o)
 .xc_stack_usage
                0x00000000       0x14 c:/program files/microchip/xc32/v3.01/bin/bin/../../lib/gcc/pic32c/8.3.1/../../../../pic32c/lib/thumb/v7e-m+fp/hard\libc_nano.a(lib_a-memcpy-stub.o)
 .xc_stack_usage.hdr
                0x00000000        0xe c:/program files/microchip/xc32/v3.01/bin/bin/../../lib/gcc/pic32c/8.3.1/../../../../pic32c/lib/thumb/v7e-m+fp/hard\libc_nano.a(lib_a-memcpy-stub.o)
 .text          0x00000000        0x0 c:/program files/microchip/xc32/v3.01/bin/bin/../../lib/gcc/pic32c/8.3.1/../../../../pic32c/lib/thumb/v7e-m+fp/hard\libc_nano.a(lib_a-memset.o)
 .data          0x00000000        0x0 c:/program files/microchip/xc32/v3.01/bin/bin/../../lib/gcc/pic32c/8.3.1/../../../../pic32c/lib/thumb/v7e-m+fp/hard\libc_nano.a(lib_a-memset.o)
 .bss           0x00000000        0x0 c:/program files/microchip/xc32/v3.01/bin/bin/../../lib/gcc/pic32c/8.3.1/../../../../pic32c/lib/thumb/v7e-m+fp/hard\libc_nano.a(lib_a-memset.o)
 .xc_stack_usage
                0x00000000       0x14 c:/program files/microchip/xc32/v3.01/bin/bin/../../lib/gcc/pic32c/8.3.1/../../../../pic32c/lib/thumb/v7e-m+fp/hard\libc_nano.a(lib_a-memset.o)
 .xc_stack_usage.hdr
                0x00000000        0xe c:/program files/microchip/xc32/v3.01/bin/bin/../../lib/gcc/pic32c/8.3.1/../../../../pic32c/lib/thumb/v7e-m+fp/hard\libc_nano.a(lib_a-memset.o)
 .text          0x00000000        0x0 c:/program files/microchip/xc32/v3.01/bin/bin/../../lib/gcc/pic32c/8.3.1/../../../../pic32c/lib/thumb/v7e-m+fp/hard\libc_nano.a(lib_a-nano-freer.o)
 .data          0x00000000        0x0 c:/program files/microchip/xc32/v3.01/bin/bin/../../lib/gcc/pic32c/8.3.1/../../../../pic32c/lib/thumb/v7e-m+fp/hard\libc_nano.a(lib_a-nano-freer.o)
 .bss           0x00000000        0x0 c:/program files/microchip/xc32/v3.01/bin/bin/../../lib/gcc/pic32c/8.3.1/../../../../pic32c/lib/thumb/v7e-m+fp/hard\libc_nano.a(lib_a-nano-freer.o)
 .xc_stack_usage
                0x00000000       0x15 c:/program files/microchip/xc32/v3.01/bin/bin/../../lib/gcc/pic32c/8.3.1/../../../../pic32c/lib/thumb/v7e-m+fp/hard\libc_nano.a(lib_a-nano-freer.o)
 .xc_stack_usage.hdr
                0x00000000        0xe c:/program files/microchip/xc32/v3.01/bin/bin/../../lib/gcc/pic32c/8.3.1/../../../../pic32c/lib/thumb/v7e-m+fp/hard\libc_nano.a(lib_a-nano-freer.o)
 .text          0x00000000        0x0 c:/program files/microchip/xc32/v3.01/bin/bin/../../lib/gcc/pic32c/8.3.1/../../../../pic32c/lib/thumb/v7e-m+fp/hard\libc_nano.a(lib_a-nano-mallocr.o)
 .data          0x00000000        0x0 c:/program files/microchip/xc32/v3.01/bin/bin/../../lib/gcc/pic32c/8.3.1/../../../../pic32c/lib/thumb/v7e-m+fp/hard\libc_nano.a(lib_a-nano-mallocr.o)
 .bss           0x00000000        0x0 c:/program files/microchip/xc32/v3.01/bin/bin/../../lib/gcc/pic32c/8.3.1/../../../../pic32c/lib/thumb/v7e-m+fp/hard\libc_nano.a(lib_a-nano-mallocr.o)
 .xc_stack_usage
                0x00000000       0x17 c:/program files/microchip/xc32/v3.01/bin/bin/../../lib/gcc/pic32c/8.3.1/../../../../pic32c/lib/thumb/v7e-m+fp/hard\libc_nano.a(lib_a-nano-mallocr.o)
 .xc_stack_usage.hdr
                0x00000000        0xe c:/program files/microchip/xc32/v3.01/bin/bin/../../lib/gcc/pic32c/8.3.1/../../../../pic32c/lib/thumb/v7e-m+fp/hard\libc_nano.a(lib_a-nano-mallocr.o)
 .text          0x00000000        0x0 c:/program files/microchip/xc32/v3.01/bin/bin/../../lib/gcc/pic32c/8.3.1/../../../../pic32c/lib/thumb/v7e-m+fp/hard\libc_nano.a(lib_a-sbrkr.o)
 .data          0x00000000        0x0 c:/program files/microchip/xc32/v3.01/bin/bin/../../lib/gcc/pic32c/8.3.1/../../../../pic32c/lib/thumb/v7e-m+fp/hard\libc_nano.a(lib_a-sbrkr.o)
 .bss           0x00000000        0x0 c:/program files/microchip/xc32/v3.01/bin/bin/../../lib/gcc/pic32c/8.3.1/../../../../pic32c/lib/thumb/v7e-m+fp/hard\libc_nano.a(lib_a-sbrkr.o)
 .xc_stack_usage
                0x00000000       0x15 c:/program files/microchip/xc32/v3.01/bin/bin/../../lib/gcc/pic32c/8.3.1/../../../../pic32c/lib/thumb/v7e-m+fp/hard\libc_nano.a(lib_a-sbrkr.o)
 .xc_stack_usage.hdr
                0x00000000        0xe c:/program files/microchip/xc32/v3.01/bin/bin/../../lib/gcc/pic32c/8.3.1/../../../../pic32c/lib/thumb/v7e-m+fp/hard\libc_nano.a(lib_a-sbrkr.o)
 .data          0x00000000        0x0 c:/program files/microchip/xc32/v3.01/bin/bin/../../lib/gcc/pic32c/8.3.1/../../../../pic32c/lib/thumb/v7e-m+fp/hard\libc_nano.a(lib_a-strlen.o)
 .bss           0x00000000        0x0 c:/program files/microchip/xc32/v3.01/bin/bin/../../lib/gcc/pic32c/8.3.1/../../../../pic32c/lib/thumb/v7e-m+fp/hard\libc_nano.a(lib_a-strlen.o)
 .xc_stack_usage.hdr
                0x00000000        0xe c:/program files/microchip/xc32/v3.01/bin/bin/../../lib/gcc/pic32c/8.3.1/../../../../pic32c/lib/thumb/v7e-m+fp/hard\libc_nano.a(lib_a-strlen.o)
 .xc_stack_usage
                0x00000000       0x14 c:/program files/microchip/xc32/v3.01/bin/bin/../../lib/gcc/pic32c/8.3.1/../../../../pic32c/lib/thumb/v7e-m+fp/hard\libc_nano.a(lib_a-strlen.o)
 .text          0x00000000        0x0 c:/program files/microchip/xc32/v3.01/bin/bin/../../lib/gcc/pic32c/8.3.1/../../../../pic32c/lib/thumb/v7e-m+fp/hard\libc_nano.a(_lib_a-nano-vfprintf.cdnopuxX.o)
 .data          0x00000000        0x0 c:/program files/microchip/xc32/v3.01/bin/bin/../../lib/gcc/pic32c/8.3.1/../../../../pic32c/lib/thumb/v7e-m+fp/hard\libc_nano.a(_lib_a-nano-vfprintf.cdnopuxX.o)
 .bss           0x00000000        0x0 c:/program files/microchip/xc32/v3.01/bin/bin/../../lib/gcc/pic32c/8.3.1/../../../../pic32c/lib/thumb/v7e-m+fp/hard\libc_nano.a(_lib_a-nano-vfprintf.cdnopuxX.o)
 .xc_stack_usage
                0x00000000       0x5e c:/program files/microchip/xc32/v3.01/bin/bin/../../lib/gcc/pic32c/8.3.1/../../../../pic32c/lib/thumb/v7e-m+fp/hard\libc_nano.a(_lib_a-nano-vfprintf.cdnopuxX.o)
 .text.__printf_float
                0x00000000        0x6 c:/program files/microchip/xc32/v3.01/bin/bin/../../lib/gcc/pic32c/8.3.1/../../../../pic32c/lib/thumb/v7e-m+fp/hard\libc_nano.a(_lib_a-nano-vfprintf.cdnopuxX.o)
 .xc_stack_usage.hdr
                0x00000000        0xe c:/program files/microchip/xc32/v3.01/bin/bin/../../lib/gcc/pic32c/8.3.1/../../../../pic32c/lib/thumb/v7e-m+fp/hard\libc_nano.a(_lib_a-nano-vfprintf.cdnopuxX.o)
 .text          0x00000000        0x0 c:/program files/microchip/xc32/v3.01/bin/bin/../../lib/gcc/pic32c/8.3.1/../../../../pic32c/lib/thumb/v7e-m+fp/hard\libc_nano.a(lib_a-__ssfputs.o)
 .data          0x00000000        0x0 c:/program files/microchip/xc32/v3.01/bin/bin/../../lib/gcc/pic32c/8.3.1/../../../../pic32c/lib/thumb/v7e-m+fp/hard\libc_nano.a(lib_a-__ssfputs.o)
 .bss           0x00000000        0x0 c:/program files/microchip/xc32/v3.01/bin/bin/../../lib/gcc/pic32c/8.3.1/../../../../pic32c/lib/thumb/v7e-m+fp/hard\libc_nano.a(lib_a-__ssfputs.o)
 .xc_stack_usage
                0x00000000       0x31 c:/program files/microchip/xc32/v3.01/bin/bin/../../lib/gcc/pic32c/8.3.1/../../../../pic32c/lib/thumb/v7e-m+fp/hard\libc_nano.a(lib_a-__ssfputs.o)
 .xc_stack_usage.hdr
                0x00000000        0xe c:/program files/microchip/xc32/v3.01/bin/bin/../../lib/gcc/pic32c/8.3.1/../../../../pic32c/lib/thumb/v7e-m+fp/hard\libc_nano.a(lib_a-__ssfputs.o)
 .text          0x00000000        0x0 c:/program files/microchip/xc32/v3.01/bin/bin/../../lib/gcc/pic32c/8.3.1/../../../../pic32c/lib/thumb/v7e-m+fp/hard\libc_nano.a(lib_a-findfp.o)
 .data          0x00000000        0x0 c:/program files/microchip/xc32/v3.01/bin/bin/../../lib/gcc/pic32c/8.3.1/../../../../pic32c/lib/thumb/v7e-m+fp/hard\libc_nano.a(lib_a-findfp.o)
 .bss           0x00000000        0x0 c:/program files/microchip/xc32/v3.01/bin/bin/../../lib/gcc/pic32c/8.3.1/../../../../pic32c/lib/thumb/v7e-m+fp/hard\libc_nano.a(lib_a-findfp.o)
 .xc_stack_usage
                0x00000000       0x81 c:/program files/microchip/xc32/v3.01/bin/bin/../../lib/gcc/pic32c/8.3.1/../../../../pic32c/lib/thumb/v7e-m+fp/hard\libc_nano.a(lib_a-findfp.o)
 .text._cleanup
                0x00000000        0xc c:/program files/microchip/xc32/v3.01/bin/bin/../../lib/gcc/pic32c/8.3.1/../../../../pic32c/lib/thumb/v7e-m+fp/hard\libc_nano.a(lib_a-findfp.o)
 .xc_stack_usage.hdr
                0x00000000        0xe c:/program files/microchip/xc32/v3.01/bin/bin/../../lib/gcc/pic32c/8.3.1/../../../../pic32c/lib/thumb/v7e-m+fp/hard\libc_nano.a(lib_a-findfp.o)
 .text          0x00000000        0x0 c:/program files/microchip/xc32/v3.01/bin/bin/../../lib/gcc/pic32c/8.3.1/../../../../pic32c/lib/thumb/v7e-m+fp/hard\libc_nano.a(lib_a-fputwc.o)
 .data          0x00000000        0x0 c:/program files/microchip/xc32/v3.01/bin/bin/../../lib/gcc/pic32c/8.3.1/../../../../pic32c/lib/thumb/v7e-m+fp/hard\libc_nano.a(lib_a-fputwc.o)
 .bss           0x00000000        0x0 c:/program files/microchip/xc32/v3.01/bin/bin/../../lib/gcc/pic32c/8.3.1/../../../../pic32c/lib/thumb/v7e-m+fp/hard\libc_nano.a(lib_a-fputwc.o)
 .xc_stack_usage
                0x00000000       0x41 c:/program files/microchip/xc32/v3.01/bin/bin/../../lib/gcc/pic32c/8.3.1/../../../../pic32c/lib/thumb/v7e-m+fp/hard\libc_nano.a(lib_a-fputwc.o)
 .text.fputwc   0x00000000       0x50 c:/program files/microchip/xc32/v3.01/bin/bin/../../lib/gcc/pic32c/8.3.1/../../../../pic32c/lib/thumb/v7e-m+fp/hard\libc_nano.a(lib_a-fputwc.o)
 .xc_stack_usage.hdr
                0x00000000        0xe c:/program files/microchip/xc32/v3.01/bin/bin/../../lib/gcc/pic32c/8.3.1/../../../../pic32c/lib/thumb/v7e-m+fp/hard\libc_nano.a(lib_a-fputwc.o)
 .text          0x00000000        0x0 c:/program files/microchip/xc32/v3.01/bin/bin/../../lib/gcc/pic32c/8.3.1/../../../../pic32c/lib/thumb/v7e-m+fp/hard\libc_nano.a(lib_a-fwalk.o)
 .data          0x00000000        0x0 c:/program files/microchip/xc32/v3.01/bin/bin/../../lib/gcc/pic32c/8.3.1/../../../../pic32c/lib/thumb/v7e-m+fp/hard\libc_nano.a(lib_a-fwalk.o)
 .bss           0x00000000        0x0 c:/program files/microchip/xc32/v3.01/bin/bin/../../lib/gcc/pic32c/8.3.1/../../../../pic32c/lib/thumb/v7e-m+fp/hard\libc_nano.a(lib_a-fwalk.o)
 .xc_stack_usage
                0x00000000       0x2e c:/program files/microchip/xc32/v3.01/bin/bin/../../lib/gcc/pic32c/8.3.1/../../../../pic32c/lib/thumb/v7e-m+fp/hard\libc_nano.a(lib_a-fwalk.o)
 .text._fwalk   0x00000000       0x38 c:/program files/microchip/xc32/v3.01/bin/bin/../../lib/gcc/pic32c/8.3.1/../../../../pic32c/lib/thumb/v7e-m+fp/hard\libc_nano.a(lib_a-fwalk.o)
 .xc_stack_usage.hdr
                0x00000000        0xe c:/program files/microchip/xc32/v3.01/bin/bin/../../lib/gcc/pic32c/8.3.1/../../../../pic32c/lib/thumb/v7e-m+fp/hard\libc_nano.a(lib_a-fwalk.o)
 .text          0x00000000        0x0 c:/program files/microchip/xc32/v3.01/bin/bin/../../lib/gcc/pic32c/8.3.1/../../../../pic32c/lib/thumb/v7e-m+fp/hard\libc_nano.a(lib_a-impure.o)
 .data          0x00000000        0x0 c:/program files/microchip/xc32/v3.01/bin/bin/../../lib/gcc/pic32c/8.3.1/../../../../pic32c/lib/thumb/v7e-m+fp/hard\libc_nano.a(lib_a-impure.o)
 .bss           0x00000000        0x0 c:/program files/microchip/xc32/v3.01/bin/bin/../../lib/gcc/pic32c/8.3.1/../../../../pic32c/lib/thumb/v7e-m+fp/hard\libc_nano.a(lib_a-impure.o)
 .xc_stack_usage.hdr
                0x00000000        0xe c:/program files/microchip/xc32/v3.01/bin/bin/../../lib/gcc/pic32c/8.3.1/../../../../pic32c/lib/thumb/v7e-m+fp/hard\libc_nano.a(lib_a-impure.o)
 .text          0x00000000        0x0 c:/program files/microchip/xc32/v3.01/bin/bin/../../lib/gcc/pic32c/8.3.1/../../../../pic32c/lib/thumb/v7e-m+fp/hard\libc_nano.a(lib_a-locale.o)
 .data          0x00000000        0x0 c:/program files/microchip/xc32/v3.01/bin/bin/../../lib/gcc/pic32c/8.3.1/../../../../pic32c/lib/thumb/v7e-m+fp/hard\libc_nano.a(lib_a-locale.o)
 .bss           0x00000000        0x0 c:/program files/microchip/xc32/v3.01/bin/bin/../../lib/gcc/pic32c/8.3.1/../../../../pic32c/lib/thumb/v7e-m+fp/hard\libc_nano.a(lib_a-locale.o)
 .xc_stack_usage
                0x00000000       0x52 c:/program files/microchip/xc32/v3.01/bin/bin/../../lib/gcc/pic32c/8.3.1/../../../../pic32c/lib/thumb/v7e-m+fp/hard\libc_nano.a(lib_a-locale.o)
 .text._setlocale_r
                0x00000000       0x40 c:/program files/microchip/xc32/v3.01/bin/bin/../../lib/gcc/pic32c/8.3.1/../../../../pic32c/lib/thumb/v7e-m+fp/hard\libc_nano.a(lib_a-locale.o)
 .text.setlocale
                0x00000000       0x10 c:/program files/microchip/xc32/v3.01/bin/bin/../../lib/gcc/pic32c/8.3.1/../../../../pic32c/lib/thumb/v7e-m+fp/hard\libc_nano.a(lib_a-locale.o)
 .bss._PathLocale
                0x00000000        0x4 c:/program files/microchip/xc32/v3.01/bin/bin/../../lib/gcc/pic32c/8.3.1/../../../../pic32c/lib/thumb/v7e-m+fp/hard\libc_nano.a(lib_a-locale.o)
 .xc_stack_usage.hdr
                0x00000000        0xe c:/program files/microchip/xc32/v3.01/bin/bin/../../lib/gcc/pic32c/8.3.1/../../../../pic32c/lib/thumb/v7e-m+fp/hard\libc_nano.a(lib_a-locale.o)
 .text          0x00000000        0x0 c:/program files/microchip/xc32/v3.01/bin/bin/../../lib/gcc/pic32c/8.3.1/../../../../pic32c/lib/thumb/v7e-m+fp/hard\libc_nano.a(lib_a-mbtowc_r.o)
 .data          0x00000000        0x0 c:/program files/microchip/xc32/v3.01/bin/bin/../../lib/gcc/pic32c/8.3.1/../../../../pic32c/lib/thumb/v7e-m+fp/hard\libc_nano.a(lib_a-mbtowc_r.o)
 .bss           0x00000000        0x0 c:/program files/microchip/xc32/v3.01/bin/bin/../../lib/gcc/pic32c/8.3.1/../../../../pic32c/lib/thumb/v7e-m+fp/hard\libc_nano.a(lib_a-mbtowc_r.o)
 .xc_stack_usage
                0x00000000       0x33 c:/program files/microchip/xc32/v3.01/bin/bin/../../lib/gcc/pic32c/8.3.1/../../../../pic32c/lib/thumb/v7e-m+fp/hard\libc_nano.a(lib_a-mbtowc_r.o)
 .text._mbtowc_r
                0x00000000       0x14 c:/program files/microchip/xc32/v3.01/bin/bin/../../lib/gcc/pic32c/8.3.1/../../../../pic32c/lib/thumb/v7e-m+fp/hard\libc_nano.a(lib_a-mbtowc_r.o)
 .xc_stack_usage.hdr
                0x00000000        0xe c:/program files/microchip/xc32/v3.01/bin/bin/../../lib/gcc/pic32c/8.3.1/../../../../pic32c/lib/thumb/v7e-m+fp/hard\libc_nano.a(lib_a-mbtowc_r.o)
 .data          0x00000000        0x0 c:/program files/microchip/xc32/v3.01/bin/bin/../../lib/gcc/pic32c/8.3.1/../../../../pic32c/lib/thumb/v7e-m+fp/hard\libc_nano.a(lib_a-memchr.o)
 .bss           0x00000000        0x0 c:/program files/microchip/xc32/v3.01/bin/bin/../../lib/gcc/pic32c/8.3.1/../../../../pic32c/lib/thumb/v7e-m+fp/hard\libc_nano.a(lib_a-memchr.o)
 .xc_stack_usage.hdr
                0x00000000        0xe c:/program files/microchip/xc32/v3.01/bin/bin/../../lib/gcc/pic32c/8.3.1/../../../../pic32c/lib/thumb/v7e-m+fp/hard\libc_nano.a(lib_a-memchr.o)
 .xc_stack_usage
                0x00000000       0x14 c:/program files/microchip/xc32/v3.01/bin/bin/../../lib/gcc/pic32c/8.3.1/../../../../pic32c/lib/thumb/v7e-m+fp/hard\libc_nano.a(lib_a-memchr.o)
 .text          0x00000000        0x0 c:/program files/microchip/xc32/v3.01/bin/bin/../../lib/gcc/pic32c/8.3.1/../../../../pic32c/lib/thumb/v7e-m+fp/hard\libc_nano.a(lib_a-mlock.o)
 .data          0x00000000        0x0 c:/program files/microchip/xc32/v3.01/bin/bin/../../lib/gcc/pic32c/8.3.1/../../../../pic32c/lib/thumb/v7e-m+fp/hard\libc_nano.a(lib_a-mlock.o)
 .bss           0x00000000        0x0 c:/program files/microchip/xc32/v3.01/bin/bin/../../lib/gcc/pic32c/8.3.1/../../../../pic32c/lib/thumb/v7e-m+fp/hard\libc_nano.a(lib_a-mlock.o)
 .xc_stack_usage
                0x00000000       0x38 c:/program files/microchip/xc32/v3.01/bin/bin/../../lib/gcc/pic32c/8.3.1/../../../../pic32c/lib/thumb/v7e-m+fp/hard\libc_nano.a(lib_a-mlock.o)
 .xc_stack_usage.hdr
                0x00000000        0xe c:/program files/microchip/xc32/v3.01/bin/bin/../../lib/gcc/pic32c/8.3.1/../../../../pic32c/lib/thumb/v7e-m+fp/hard\libc_nano.a(lib_a-mlock.o)
 .text          0x00000000        0x0 c:/program files/microchip/xc32/v3.01/bin/bin/../../lib/gcc/pic32c/8.3.1/../../../../pic32c/lib/thumb/v7e-m+fp/hard\libc_nano.a(lib_a-nano-vfprintf_i.o)
 .data          0x00000000        0x0 c:/program files/microchip/xc32/v3.01/bin/bin/../../lib/gcc/pic32c/8.3.1/../../../../pic32c/lib/thumb/v7e-m+fp/hard\libc_nano.a(lib_a-nano-vfprintf_i.o)
 .bss           0x00000000        0x0 c:/program files/microchip/xc32/v3.01/bin/bin/../../lib/gcc/pic32c/8.3.1/../../../../pic32c/lib/thumb/v7e-m+fp/hard\libc_nano.a(lib_a-nano-vfprintf_i.o)
 .xc_stack_usage
                0x00000000       0x33 c:/program files/microchip/xc32/v3.01/bin/bin/../../lib/gcc/pic32c/8.3.1/../../../../pic32c/lib/thumb/v7e-m+fp/hard\libc_nano.a(lib_a-nano-vfprintf_i.o)
 .text._printf_i
                0x00000000      0x228 c:/program files/microchip/xc32/v3.01/bin/bin/../../lib/gcc/pic32c/8.3.1/../../../../pic32c/lib/thumb/v7e-m+fp/hard\libc_nano.a(lib_a-nano-vfprintf_i.o)
 .rodata        0x00000000       0x22 c:/program files/microchip/xc32/v3.01/bin/bin/../../lib/gcc/pic32c/8.3.1/../../../../pic32c/lib/thumb/v7e-m+fp/hard\libc_nano.a(lib_a-nano-vfprintf_i.o)
 .xc_stack_usage.hdr
                0x00000000        0xe c:/program files/microchip/xc32/v3.01/bin/bin/../../lib/gcc/pic32c/8.3.1/../../../../pic32c/lib/thumb/v7e-m+fp/hard\libc_nano.a(lib_a-nano-vfprintf_i.o)
 .text          0x00000000        0x0 c:/program files/microchip/xc32/v3.01/bin/bin/../../lib/gcc/pic32c/8.3.1/../../../../pic32c/lib/thumb/v7e-m+fp/hard\libc_nano.a(lib_a-reent.o)
 .data          0x00000000        0x0 c:/program files/microchip/xc32/v3.01/bin/bin/../../lib/gcc/pic32c/8.3.1/../../../../pic32c/lib/thumb/v7e-m+fp/hard\libc_nano.a(lib_a-reent.o)
 .bss           0x00000000        0x0 c:/program files/microchip/xc32/v3.01/bin/bin/../../lib/gcc/pic32c/8.3.1/../../../../pic32c/lib/thumb/v7e-m+fp/hard\libc_nano.a(lib_a-reent.o)
 .xc_stack_usage
                0x00000000       0x36 c:/program files/microchip/xc32/v3.01/bin/bin/../../lib/gcc/pic32c/8.3.1/../../../../pic32c/lib/thumb/v7e-m+fp/hard\libc_nano.a(lib_a-reent.o)
 .text.cleanup_glue
                0x00000000       0x1a c:/program files/microchip/xc32/v3.01/bin/bin/../../lib/gcc/pic32c/8.3.1/../../../../pic32c/lib/thumb/v7e-m+fp/hard\libc_nano.a(lib_a-reent.o)
 .text._reclaim_reent
                0x00000000       0xb8 c:/program files/microchip/xc32/v3.01/bin/bin/../../lib/gcc/pic32c/8.3.1/../../../../pic32c/lib/thumb/v7e-m+fp/hard\libc_nano.a(lib_a-reent.o)
 .xc_stack_usage.hdr
                0x00000000        0xe c:/program files/microchip/xc32/v3.01/bin/bin/../../lib/gcc/pic32c/8.3.1/../../../../pic32c/lib/thumb/v7e-m+fp/hard\libc_nano.a(lib_a-reent.o)
 .text          0x00000000        0x0 c:/program files/microchip/xc32/v3.01/bin/bin/../../lib/gcc/pic32c/8.3.1/../../../../pic32c/lib/thumb/v7e-m+fp/hard\libc_nano.a(lib_a-stdio.o)
 .data          0x00000000        0x0 c:/program files/microchip/xc32/v3.01/bin/bin/../../lib/gcc/pic32c/8.3.1/../../../../pic32c/lib/thumb/v7e-m+fp/hard\libc_nano.a(lib_a-stdio.o)
 .bss           0x00000000        0x0 c:/program files/microchip/xc32/v3.01/bin/bin/../../lib/gcc/pic32c/8.3.1/../../../../pic32c/lib/thumb/v7e-m+fp/hard\libc_nano.a(lib_a-stdio.o)
 .xc_stack_usage
                0x00000000       0x6e c:/program files/microchip/xc32/v3.01/bin/bin/../../lib/gcc/pic32c/8.3.1/../../../../pic32c/lib/thumb/v7e-m+fp/hard\libc_nano.a(lib_a-stdio.o)
 .text.__seofread
                0x00000000        0x4 c:/program files/microchip/xc32/v3.01/bin/bin/../../lib/gcc/pic32c/8.3.1/../../../../pic32c/lib/thumb/v7e-m+fp/hard\libc_nano.a(lib_a-stdio.o)
 .xc_stack_usage.hdr
                0x00000000        0xe c:/program files/microchip/xc32/v3.01/bin/bin/../../lib/gcc/pic32c/8.3.1/../../../../pic32c/lib/thumb/v7e-m+fp/hard\libc_nano.a(lib_a-stdio.o)
 .text          0x00000000       0x14 c:/program files/microchip/xc32/v3.01/bin/bin/../../lib/gcc/pic32c/8.3.1/../../../../pic32c/lib/thumb/v7e-m+fp/hard\libc_nano.a(lib_a-strcmp.o)
 .data          0x00000000        0x0 c:/program files/microchip/xc32/v3.01/bin/bin/../../lib/gcc/pic32c/8.3.1/../../../../pic32c/lib/thumb/v7e-m+fp/hard\libc_nano.a(lib_a-strcmp.o)
 .bss           0x00000000        0x0 c:/program files/microchip/xc32/v3.01/bin/bin/../../lib/gcc/pic32c/8.3.1/../../../../pic32c/lib/thumb/v7e-m+fp/hard\libc_nano.a(lib_a-strcmp.o)
 .xc_stack_usage.hdr
                0x00000000        0xe c:/program files/microchip/xc32/v3.01/bin/bin/../../lib/gcc/pic32c/8.3.1/../../../../pic32c/lib/thumb/v7e-m+fp/hard\libc_nano.a(lib_a-strcmp.o)
 .xc_stack_usage
                0x00000000       0x14 c:/program files/microchip/xc32/v3.01/bin/bin/../../lib/gcc/pic32c/8.3.1/../../../../pic32c/lib/thumb/v7e-m+fp/hard\libc_nano.a(lib_a-strcmp.o)
 .debug_frame   0x00000000       0x20 c:/program files/microchip/xc32/v3.01/bin/bin/../../lib/gcc/pic32c/8.3.1/../../../../pic32c/lib/thumb/v7e-m+fp/hard\libc_nano.a(lib_a-strcmp.o)
 .ARM.attributes
                0x00000000       0x1c c:/program files/microchip/xc32/v3.01/bin/bin/../../lib/gcc/pic32c/8.3.1/../../../../pic32c/lib/thumb/v7e-m+fp/hard\libc_nano.a(lib_a-strcmp.o)
 .text          0x00000000        0x0 c:/program files/microchip/xc32/v3.01/bin/bin/../../lib/gcc/pic32c/8.3.1/../../../../pic32c/lib/thumb/v7e-m+fp/hard\libc_nano.a(lib_a-wbuf.o)
 .data          0x00000000        0x0 c:/program files/microchip/xc32/v3.01/bin/bin/../../lib/gcc/pic32c/8.3.1/../../../../pic32c/lib/thumb/v7e-m+fp/hard\libc_nano.a(lib_a-wbuf.o)
 .bss           0x00000000        0x0 c:/program files/microchip/xc32/v3.01/bin/bin/../../lib/gcc/pic32c/8.3.1/../../../../pic32c/lib/thumb/v7e-m+fp/hard\libc_nano.a(lib_a-wbuf.o)
 .xc_stack_usage
                0x00000000       0x2c c:/program files/microchip/xc32/v3.01/bin/bin/../../lib/gcc/pic32c/8.3.1/../../../../pic32c/lib/thumb/v7e-m+fp/hard\libc_nano.a(lib_a-wbuf.o)
 .text.__swbuf  0x00000000       0x10 c:/program files/microchip/xc32/v3.01/bin/bin/../../lib/gcc/pic32c/8.3.1/../../../../pic32c/lib/thumb/v7e-m+fp/hard\libc_nano.a(lib_a-wbuf.o)
 .xc_stack_usage.hdr
                0x00000000        0xe c:/program files/microchip/xc32/v3.01/bin/bin/../../lib/gcc/pic32c/8.3.1/../../../../pic32c/lib/thumb/v7e-m+fp/hard\libc_nano.a(lib_a-wbuf.o)
 .text          0x00000000        0x0 c:/program files/microchip/xc32/v3.01/bin/bin/../../lib/gcc/pic32c/8.3.1/../../../../pic32c/lib/thumb/v7e-m+fp/hard\libc_nano.a(lib_a-wcrtomb.o)
 .data          0x00000000        0x0 c:/program files/microchip/xc32/v3.01/bin/bin/../../lib/gcc/pic32c/8.3.1/../../../../pic32c/lib/thumb/v7e-m+fp/hard\libc_nano.a(lib_a-wcrtomb.o)
 .bss           0x00000000        0x0 c:/program files/microchip/xc32/v3.01/bin/bin/../../lib/gcc/pic32c/8.3.1/../../../../pic32c/lib/thumb/v7e-m+fp/hard\libc_nano.a(lib_a-wcrtomb.o)
 .xc_stack_usage
                0x00000000       0x2d c:/program files/microchip/xc32/v3.01/bin/bin/../../lib/gcc/pic32c/8.3.1/../../../../pic32c/lib/thumb/v7e-m+fp/hard\libc_nano.a(lib_a-wcrtomb.o)
 .text.wcrtomb  0x00000000       0x14 c:/program files/microchip/xc32/v3.01/bin/bin/../../lib/gcc/pic32c/8.3.1/../../../../pic32c/lib/thumb/v7e-m+fp/hard\libc_nano.a(lib_a-wcrtomb.o)
 .xc_stack_usage.hdr
                0x00000000        0xe c:/program files/microchip/xc32/v3.01/bin/bin/../../lib/gcc/pic32c/8.3.1/../../../../pic32c/lib/thumb/v7e-m+fp/hard\libc_nano.a(lib_a-wcrtomb.o)
 .text          0x00000000        0x0 c:/program files/microchip/xc32/v3.01/bin/bin/../../lib/gcc/pic32c/8.3.1/../../../../pic32c/lib/thumb/v7e-m+fp/hard\libc_nano.a(lib_a-wctomb_r.o)
 .data          0x00000000        0x0 c:/program files/microchip/xc32/v3.01/bin/bin/../../lib/gcc/pic32c/8.3.1/../../../../pic32c/lib/thumb/v7e-m+fp/hard\libc_nano.a(lib_a-wctomb_r.o)
 .bss           0x00000000        0x0 c:/program files/microchip/xc32/v3.01/bin/bin/../../lib/gcc/pic32c/8.3.1/../../../../pic32c/lib/thumb/v7e-m+fp/hard\libc_nano.a(lib_a-wctomb_r.o)
 .xc_stack_usage
                0x00000000       0x33 c:/program files/microchip/xc32/v3.01/bin/bin/../../lib/gcc/pic32c/8.3.1/../../../../pic32c/lib/thumb/v7e-m+fp/hard\libc_nano.a(lib_a-wctomb_r.o)
 .text._wctomb_r
                0x00000000       0x14 c:/program files/microchip/xc32/v3.01/bin/bin/../../lib/gcc/pic32c/8.3.1/../../../../pic32c/lib/thumb/v7e-m+fp/hard\libc_nano.a(lib_a-wctomb_r.o)
 .xc_stack_usage.hdr
                0x00000000        0xe c:/program files/microchip/xc32/v3.01/bin/bin/../../lib/gcc/pic32c/8.3.1/../../../../pic32c/lib/thumb/v7e-m+fp/hard\libc_nano.a(lib_a-wctomb_r.o)
 .text          0x00000000        0x0 c:/program files/microchip/xc32/v3.01/bin/bin/../../lib/gcc/pic32c/8.3.1/../../../../pic32c/lib/thumb/v7e-m+fp/hard\libc_nano.a(lib_a-writer.o)
 .data          0x00000000        0x0 c:/program files/microchip/xc32/v3.01/bin/bin/../../lib/gcc/pic32c/8.3.1/../../../../pic32c/lib/thumb/v7e-m+fp/hard\libc_nano.a(lib_a-writer.o)
 .bss           0x00000000        0x0 c:/program files/microchip/xc32/v3.01/bin/bin/../../lib/gcc/pic32c/8.3.1/../../../../pic32c/lib/thumb/v7e-m+fp/hard\libc_nano.a(lib_a-writer.o)
 .xc_stack_usage
                0x00000000       0x16 c:/program files/microchip/xc32/v3.01/bin/bin/../../lib/gcc/pic32c/8.3.1/../../../../pic32c/lib/thumb/v7e-m+fp/hard\libc_nano.a(lib_a-writer.o)
 .xc_stack_usage.hdr
                0x00000000        0xe c:/program files/microchip/xc32/v3.01/bin/bin/../../lib/gcc/pic32c/8.3.1/../../../../pic32c/lib/thumb/v7e-m+fp/hard\libc_nano.a(lib_a-writer.o)
 .text          0x00000000        0x0 c:/program files/microchip/xc32/v3.01/bin/bin/../../lib/gcc/pic32c/8.3.1/../../../../pic32c/lib/thumb/v7e-m+fp/hard\libc_nano.a(lib_a-wsetup.o)
 .data          0x00000000        0x0 c:/program files/microchip/xc32/v3.01/bin/bin/../../lib/gcc/pic32c/8.3.1/../../../../pic32c/lib/thumb/v7e-m+fp/hard\libc_nano.a(lib_a-wsetup.o)
 .bss           0x00000000        0x0 c:/program files/microchip/xc32/v3.01/bin/bin/../../lib/gcc/pic32c/8.3.1/../../../../pic32c/lib/thumb/v7e-m+fp/hard\libc_nano.a(lib_a-wsetup.o)
 .xc_stack_usage
                0x00000000       0x19 c:/program files/microchip/xc32/v3.01/bin/bin/../../lib/gcc/pic32c/8.3.1/../../../../pic32c/lib/thumb/v7e-m+fp/hard\libc_nano.a(lib_a-wsetup.o)
 .xc_stack_usage.hdr
                0x00000000        0xe c:/program files/microchip/xc32/v3.01/bin/bin/../../lib/gcc/pic32c/8.3.1/../../../../pic32c/lib/thumb/v7e-m+fp/hard\libc_nano.a(lib_a-wsetup.o)
 .text          0x00000000        0x0 c:/program files/microchip/xc32/v3.01/bin/bin/../../lib/gcc/pic32c/8.3.1/../../../../pic32c/lib/thumb/v7e-m+fp/hard\libc_nano.a(lib_a-closer.o)
 .data          0x00000000        0x0 c:/program files/microchip/xc32/v3.01/bin/bin/../../lib/gcc/pic32c/8.3.1/../../../../pic32c/lib/thumb/v7e-m+fp/hard\libc_nano.a(lib_a-closer.o)
 .bss           0x00000000        0x0 c:/program files/microchip/xc32/v3.01/bin/bin/../../lib/gcc/pic32c/8.3.1/../../../../pic32c/lib/thumb/v7e-m+fp/hard\libc_nano.a(lib_a-closer.o)
 .xc_stack_usage
                0x00000000       0x16 c:/program files/microchip/xc32/v3.01/bin/bin/../../lib/gcc/pic32c/8.3.1/../../../../pic32c/lib/thumb/v7e-m+fp/hard\libc_nano.a(lib_a-closer.o)
 .xc_stack_usage.hdr
                0x00000000        0xe c:/program files/microchip/xc32/v3.01/bin/bin/../../lib/gcc/pic32c/8.3.1/../../../../pic32c/lib/thumb/v7e-m+fp/hard\libc_nano.a(lib_a-closer.o)
 .text          0x00000000        0x0 c:/program files/microchip/xc32/v3.01/bin/bin/../../lib/gcc/pic32c/8.3.1/../../../../pic32c/lib/thumb/v7e-m+fp/hard\libc_nano.a(lib_a-ctype_.o)
 .data          0x00000000        0x0 c:/program files/microchip/xc32/v3.01/bin/bin/../../lib/gcc/pic32c/8.3.1/../../../../pic32c/lib/thumb/v7e-m+fp/hard\libc_nano.a(lib_a-ctype_.o)
 .bss           0x00000000        0x0 c:/program files/microchip/xc32/v3.01/bin/bin/../../lib/gcc/pic32c/8.3.1/../../../../pic32c/lib/thumb/v7e-m+fp/hard\libc_nano.a(lib_a-ctype_.o)
 .xc_stack_usage.hdr
                0x00000000        0xe c:/program files/microchip/xc32/v3.01/bin/bin/../../lib/gcc/pic32c/8.3.1/../../../../pic32c/lib/thumb/v7e-m+fp/hard\libc_nano.a(lib_a-ctype_.o)
 .text          0x00000000        0x0 c:/program files/microchip/xc32/v3.01/bin/bin/../../lib/gcc/pic32c/8.3.1/../../../../pic32c/lib/thumb/v7e-m+fp/hard\libc_nano.a(lib_a-fflush.o)
 .data          0x00000000        0x0 c:/program files/microchip/xc32/v3.01/bin/bin/../../lib/gcc/pic32c/8.3.1/../../../../pic32c/lib/thumb/v7e-m+fp/hard\libc_nano.a(lib_a-fflush.o)
 .bss           0x00000000        0x0 c:/program files/microchip/xc32/v3.01/bin/bin/../../lib/gcc/pic32c/8.3.1/../../../../pic32c/lib/thumb/v7e-m+fp/hard\libc_nano.a(lib_a-fflush.o)
 .xc_stack_usage
                0x00000000       0x43 c:/program files/microchip/xc32/v3.01/bin/bin/../../lib/gcc/pic32c/8.3.1/../../../../pic32c/lib/thumb/v7e-m+fp/hard\libc_nano.a(lib_a-fflush.o)
 .text.fflush   0x00000000       0x24 c:/program files/microchip/xc32/v3.01/bin/bin/../../lib/gcc/pic32c/8.3.1/../../../../pic32c/lib/thumb/v7e-m+fp/hard\libc_nano.a(lib_a-fflush.o)
 .xc_stack_usage.hdr
                0x00000000        0xe c:/program files/microchip/xc32/v3.01/bin/bin/../../lib/gcc/pic32c/8.3.1/../../../../pic32c/lib/thumb/v7e-m+fp/hard\libc_nano.a(lib_a-fflush.o)
 .text          0x00000000        0x0 c:/program files/microchip/xc32/v3.01/bin/bin/../../lib/gcc/pic32c/8.3.1/../../../../pic32c/lib/thumb/v7e-m+fp/hard\libc_nano.a(lib_a-lseekr.o)
 .data          0x00000000        0x0 c:/program files/microchip/xc32/v3.01/bin/bin/../../lib/gcc/pic32c/8.3.1/../../../../pic32c/lib/thumb/v7e-m+fp/hard\libc_nano.a(lib_a-lseekr.o)
 .bss           0x00000000        0x0 c:/program files/microchip/xc32/v3.01/bin/bin/../../lib/gcc/pic32c/8.3.1/../../../../pic32c/lib/thumb/v7e-m+fp/hard\libc_nano.a(lib_a-lseekr.o)
 .xc_stack_usage
                0x00000000       0x16 c:/program files/microchip/xc32/v3.01/bin/bin/../../lib/gcc/pic32c/8.3.1/../../../../pic32c/lib/thumb/v7e-m+fp/hard\libc_nano.a(lib_a-lseekr.o)
 .xc_stack_usage.hdr
                0x00000000        0xe c:/program files/microchip/xc32/v3.01/bin/bin/../../lib/gcc/pic32c/8.3.1/../../../../pic32c/lib/thumb/v7e-m+fp/hard\libc_nano.a(lib_a-lseekr.o)
 .text          0x00000000        0x0 c:/program files/microchip/xc32/v3.01/bin/bin/../../lib/gcc/pic32c/8.3.1/../../../../pic32c/lib/thumb/v7e-m+fp/hard\libc_nano.a(lib_a-makebuf.o)
 .data          0x00000000        0x0 c:/program files/microchip/xc32/v3.01/bin/bin/../../lib/gcc/pic32c/8.3.1/../../../../pic32c/lib/thumb/v7e-m+fp/hard\libc_nano.a(lib_a-makebuf.o)
 .bss           0x00000000        0x0 c:/program files/microchip/xc32/v3.01/bin/bin/../../lib/gcc/pic32c/8.3.1/../../../../pic32c/lib/thumb/v7e-m+fp/hard\libc_nano.a(lib_a-makebuf.o)
 .xc_stack_usage
                0x00000000       0x34 c:/program files/microchip/xc32/v3.01/bin/bin/../../lib/gcc/pic32c/8.3.1/../../../../pic32c/lib/thumb/v7e-m+fp/hard\libc_nano.a(lib_a-makebuf.o)
 .xc_stack_usage.hdr
                0x00000000        0xe c:/program files/microchip/xc32/v3.01/bin/bin/../../lib/gcc/pic32c/8.3.1/../../../../pic32c/lib/thumb/v7e-m+fp/hard\libc_nano.a(lib_a-makebuf.o)
 .text          0x00000000        0x0 c:/program files/microchip/xc32/v3.01/bin/bin/../../lib/gcc/pic32c/8.3.1/../../../../pic32c/lib/thumb/v7e-m+fp/hard\libc_nano.a(lib_a-readr.o)
 .data          0x00000000        0x0 c:/program files/microchip/xc32/v3.01/bin/bin/../../lib/gcc/pic32c/8.3.1/../../../../pic32c/lib/thumb/v7e-m+fp/hard\libc_nano.a(lib_a-readr.o)
 .bss           0x00000000        0x0 c:/program files/microchip/xc32/v3.01/bin/bin/../../lib/gcc/pic32c/8.3.1/../../../../pic32c/lib/thumb/v7e-m+fp/hard\libc_nano.a(lib_a-readr.o)
 .xc_stack_usage
                0x00000000       0x15 c:/program files/microchip/xc32/v3.01/bin/bin/../../lib/gcc/pic32c/8.3.1/../../../../pic32c/lib/thumb/v7e-m+fp/hard\libc_nano.a(lib_a-readr.o)
 .xc_stack_usage.hdr
                0x00000000        0xe c:/program files/microchip/xc32/v3.01/bin/bin/../../lib/gcc/pic32c/8.3.1/../../../../pic32c/lib/thumb/v7e-m+fp/hard\libc_nano.a(lib_a-readr.o)
 .text          0x00000000        0x0 c:/program files/microchip/xc32/v3.01/bin/bin/../../lib/gcc/pic32c/8.3.1/../../../../pic32c/lib/thumb/v7e-m+fp/hard\libc_nano.a(lib_a-fstatr.o)
 .data          0x00000000        0x0 c:/program files/microchip/xc32/v3.01/bin/bin/../../lib/gcc/pic32c/8.3.1/../../../../pic32c/lib/thumb/v7e-m+fp/hard\libc_nano.a(lib_a-fstatr.o)
 .bss           0x00000000        0x0 c:/program files/microchip/xc32/v3.01/bin/bin/../../lib/gcc/pic32c/8.3.1/../../../../pic32c/lib/thumb/v7e-m+fp/hard\libc_nano.a(lib_a-fstatr.o)
 .xc_stack_usage
                0x00000000       0x16 c:/program files/microchip/xc32/v3.01/bin/bin/../../lib/gcc/pic32c/8.3.1/../../../../pic32c/lib/thumb/v7e-m+fp/hard\libc_nano.a(lib_a-fstatr.o)
 .xc_stack_usage.hdr
                0x00000000        0xe c:/program files/microchip/xc32/v3.01/bin/bin/../../lib/gcc/pic32c/8.3.1/../../../../pic32c/lib/thumb/v7e-m+fp/hard\libc_nano.a(lib_a-fstatr.o)
 .text          0x00000000        0x0 c:/program files/microchip/xc32/v3.01/bin/bin/../../lib/gcc/pic32c/8.3.1/../../../../pic32c/lib/thumb/v7e-m+fp/hard\libc_nano.a(lib_a-isattyr.o)
 .data          0x00000000        0x0 c:/program files/microchip/xc32/v3.01/bin/bin/../../lib/gcc/pic32c/8.3.1/../../../../pic32c/lib/thumb/v7e-m+fp/hard\libc_nano.a(lib_a-isattyr.o)
 .bss           0x00000000        0x0 c:/program files/microchip/xc32/v3.01/bin/bin/../../lib/gcc/pic32c/8.3.1/../../../../pic32c/lib/thumb/v7e-m+fp/hard\libc_nano.a(lib_a-isattyr.o)
 .xc_stack_usage
                0x00000000       0x17 c:/program files/microchip/xc32/v3.01/bin/bin/../../lib/gcc/pic32c/8.3.1/../../../../pic32c/lib/thumb/v7e-m+fp/hard\libc_nano.a(lib_a-isattyr.o)
 .xc_stack_usage.hdr
                0x00000000        0xe c:/program files/microchip/xc32/v3.01/bin/bin/../../lib/gcc/pic32c/8.3.1/../../../../pic32c/lib/thumb/v7e-m+fp/hard\libc_nano.a(lib_a-isattyr.o)
 .text          0x00000000        0x0 c:/program files/microchip/xc32/v3.01/bin/bin/../../lib/gcc/pic32c/8.3.1/../../../../pic32c/lib/thumb/v7e-m+fp/hard\libpic32c.a(_close.o)
 .data          0x00000000        0x0 c:/program files/microchip/xc32/v3.01/bin/bin/../../lib/gcc/pic32c/8.3.1/../../../../pic32c/lib/thumb/v7e-m+fp/hard\libpic32c.a(_close.o)
 .bss           0x00000000        0x0 c:/program files/microchip/xc32/v3.01/bin/bin/../../lib/gcc/pic32c/8.3.1/../../../../pic32c/lib/thumb/v7e-m+fp/hard\libpic32c.a(_close.o)
 .xc_stack_usage
                0x00000000       0x14 c:/program files/microchip/xc32/v3.01/bin/bin/../../lib/gcc/pic32c/8.3.1/../../../../pic32c/lib/thumb/v7e-m+fp/hard\libpic32c.a(_close.o)
 .xc_stack_usage.hdr
                0x00000000        0xe c:/program files/microchip/xc32/v3.01/bin/bin/../../lib/gcc/pic32c/8.3.1/../../../../pic32c/lib/thumb/v7e-m+fp/hard\libpic32c.a(_close.o)
 .text          0x00000000        0x0 c:/program files/microchip/xc32/v3.01/bin/bin/../../lib/gcc/pic32c/8.3.1/../../../../pic32c/lib/thumb/v7e-m+fp/hard\libpic32c.a(_fstat.o)
 .data          0x00000000        0x0 c:/program files/microchip/xc32/v3.01/bin/bin/../../lib/gcc/pic32c/8.3.1/../../../../pic32c/lib/thumb/v7e-m+fp/hard\libpic32c.a(_fstat.o)
 .bss           0x00000000        0x0 c:/program files/microchip/xc32/v3.01/bin/bin/../../lib/gcc/pic32c/8.3.1/../../../../pic32c/lib/thumb/v7e-m+fp/hard\libpic32c.a(_fstat.o)
 .xc_stack_usage
                0x00000000       0x14 c:/program files/microchip/xc32/v3.01/bin/bin/../../lib/gcc/pic32c/8.3.1/../../../../pic32c/lib/thumb/v7e-m+fp/hard\libpic32c.a(_fstat.o)
 .xc_stack_usage.hdr
                0x00000000        0xe c:/program files/microchip/xc32/v3.01/bin/bin/../../lib/gcc/pic32c/8.3.1/../../../../pic32c/lib/thumb/v7e-m+fp/hard\libpic32c.a(_fstat.o)
 .text          0x00000000        0x0 c:/program files/microchip/xc32/v3.01/bin/bin/../../lib/gcc/pic32c/8.3.1/../../../../pic32c/lib/thumb/v7e-m+fp/hard\libpic32c.a(_isatty.o)
 .data          0x00000000        0x0 c:/program files/microchip/xc32/v3.01/bin/bin/../../lib/gcc/pic32c/8.3.1/../../../../pic32c/lib/thumb/v7e-m+fp/hard\libpic32c.a(_isatty.o)
 .bss           0x00000000        0x0 c:/program files/microchip/xc32/v3.01/bin/bin/../../lib/gcc/pic32c/8.3.1/../../../../pic32c/lib/thumb/v7e-m+fp/hard\libpic32c.a(_isatty.o)
 .xc_stack_usage
                0x00000000       0x15 c:/program files/microchip/xc32/v3.01/bin/bin/../../lib/gcc/pic32c/8.3.1/../../../../pic32c/lib/thumb/v7e-m+fp/hard\libpic32c.a(_isatty.o)
 .xc_stack_usage.hdr
                0x00000000        0xe c:/program files/microchip/xc32/v3.01/bin/bin/../../lib/gcc/pic32c/8.3.1/../../../../pic32c/lib/thumb/v7e-m+fp/hard\libpic32c.a(_isatty.o)
 .text          0x00000000        0x0 c:/program files/microchip/xc32/v3.01/bin/bin/../../lib/gcc/pic32c/8.3.1/../../../../pic32c/lib/thumb/v7e-m+fp/hard\libpic32c.a(_lseek.o)
 .data          0x00000000        0x0 c:/program files/microchip/xc32/v3.01/bin/bin/../../lib/gcc/pic32c/8.3.1/../../../../pic32c/lib/thumb/v7e-m+fp/hard\libpic32c.a(_lseek.o)
 .bss           0x00000000        0x0 c:/program files/microchip/xc32/v3.01/bin/bin/../../lib/gcc/pic32c/8.3.1/../../../../pic32c/lib/thumb/v7e-m+fp/hard\libpic32c.a(_lseek.o)
 .xc_stack_usage
                0x00000000       0x14 c:/program files/microchip/xc32/v3.01/bin/bin/../../lib/gcc/pic32c/8.3.1/../../../../pic32c/lib/thumb/v7e-m+fp/hard\libpic32c.a(_lseek.o)
 .xc_stack_usage.hdr
                0x00000000        0xe c:/program files/microchip/xc32/v3.01/bin/bin/../../lib/gcc/pic32c/8.3.1/../../../../pic32c/lib/thumb/v7e-m+fp/hard\libpic32c.a(_lseek.o)
 .text          0x00000000        0x0 c:/program files/microchip/xc32/v3.01/bin/bin/../../lib/gcc/pic32c/8.3.1/../../../../pic32c/lib/thumb/v7e-m+fp/hard\libpic32c.a(_read.o)
 .data          0x00000000        0x0 c:/program files/microchip/xc32/v3.01/bin/bin/../../lib/gcc/pic32c/8.3.1/../../../../pic32c/lib/thumb/v7e-m+fp/hard\libpic32c.a(_read.o)
 .bss           0x00000000        0x0 c:/program files/microchip/xc32/v3.01/bin/bin/../../lib/gcc/pic32c/8.3.1/../../../../pic32c/lib/thumb/v7e-m+fp/hard\libpic32c.a(_read.o)
 .xc_stack_usage
                0x00000000       0x13 c:/program files/microchip/xc32/v3.01/bin/bin/../../lib/gcc/pic32c/8.3.1/../../../../pic32c/lib/thumb/v7e-m+fp/hard\libpic32c.a(_read.o)
 .xc_stack_usage.hdr
                0x00000000        0xe c:/program files/microchip/xc32/v3.01/bin/bin/../../lib/gcc/pic32c/8.3.1/../../../../pic32c/lib/thumb/v7e-m+fp/hard\libpic32c.a(_read.o)
 .text          0x00000000        0x0 c:/program files/microchip/xc32/v3.01/bin/bin/../../lib/gcc/pic32c/8.3.1/../../../../pic32c/lib/thumb/v7e-m+fp/hard\libpic32c.a(sbrk.o)
 .data          0x00000000        0x0 c:/program files/microchip/xc32/v3.01/bin/bin/../../lib/gcc/pic32c/8.3.1/../../../../pic32c/lib/thumb/v7e-m+fp/hard\libpic32c.a(sbrk.o)
 .xc_stack_usage
                0x00000000       0x13 c:/program files/microchip/xc32/v3.01/bin/bin/../../lib/gcc/pic32c/8.3.1/../../../../pic32c/lib/thumb/v7e-m+fp/hard\libpic32c.a(sbrk.o)
 .xc_stack_usage.hdr
                0x00000000        0xe c:/program files/microchip/xc32/v3.01/bin/bin/../../lib/gcc/pic32c/8.3.1/../../../../pic32c/lib/thumb/v7e-m+fp/hard\libpic32c.a(sbrk.o)
 .text          0x00000000        0x0 c:/program files/microchip/xc32/v3.01/bin/bin/../../lib/gcc/pic32c/8.3.1/../../../../pic32c/lib/thumb/v7e-m+fp/hard\libpic32c.a(_write.o)
 .data          0x00000000        0x0 c:/program files/microchip/xc32/v3.01/bin/bin/../../lib/gcc/pic32c/8.3.1/../../../../pic32c/lib/thumb/v7e-m+fp/hard\libpic32c.a(_write.o)
 .bss           0x00000000        0x0 c:/program files/microchip/xc32/v3.01/bin/bin/../../lib/gcc/pic32c/8.3.1/../../../../pic32c/lib/thumb/v7e-m+fp/hard\libpic32c.a(_write.o)
 .xc_stack_usage
                0x00000000       0x14 c:/program files/microchip/xc32/v3.01/bin/bin/../../lib/gcc/pic32c/8.3.1/../../../../pic32c/lib/thumb/v7e-m+fp/hard\libpic32c.a(_write.o)
 .xc_stack_usage.hdr
                0x00000000        0xe c:/program files/microchip/xc32/v3.01/bin/bin/../../lib/gcc/pic32c/8.3.1/../../../../pic32c/lib/thumb/v7e-m+fp/hard\libpic32c.a(_write.o)
 .text          0x00000000        0x0 c:/program files/microchip/xc32/v3.01/bin/bin/../../lib/gcc/pic32c/8.3.1/../../../../pic32c/lib/thumb/v7e-m+fp/hard\libpic32c.a(close.o)
 .data          0x00000000        0x0 c:/program files/microchip/xc32/v3.01/bin/bin/../../lib/gcc/pic32c/8.3.1/../../../../pic32c/lib/thumb/v7e-m+fp/hard\libpic32c.a(close.o)
 .bss           0x00000000        0x0 c:/program files/microchip/xc32/v3.01/bin/bin/../../lib/gcc/pic32c/8.3.1/../../../../pic32c/lib/thumb/v7e-m+fp/hard\libpic32c.a(close.o)
 .xc_stack_usage
                0x00000000       0x13 c:/program files/microchip/xc32/v3.01/bin/bin/../../lib/gcc/pic32c/8.3.1/../../../../pic32c/lib/thumb/v7e-m+fp/hard\libpic32c.a(close.o)
 .gnu.warning.closestub
                0x00000000        0x0 c:/program files/microchip/xc32/v3.01/bin/bin/../../lib/gcc/pic32c/8.3.1/../../../../pic32c/lib/thumb/v7e-m+fp/hard\libpic32c.a(close.o)
 .xc_stack_usage.hdr
                0x00000000        0xe c:/program files/microchip/xc32/v3.01/bin/bin/../../lib/gcc/pic32c/8.3.1/../../../../pic32c/lib/thumb/v7e-m+fp/hard\libpic32c.a(close.o)
 .text          0x00000000        0x0 c:/program files/microchip/xc32/v3.01/bin/bin/../../lib/gcc/pic32c/8.3.1/../../../../pic32c/lib/thumb/v7e-m+fp/hard\libpic32c.a(fstat.o)
 .data          0x00000000        0x0 c:/program files/microchip/xc32/v3.01/bin/bin/../../lib/gcc/pic32c/8.3.1/../../../../pic32c/lib/thumb/v7e-m+fp/hard\libpic32c.a(fstat.o)
 .bss           0x00000000        0x0 c:/program files/microchip/xc32/v3.01/bin/bin/../../lib/gcc/pic32c/8.3.1/../../../../pic32c/lib/thumb/v7e-m+fp/hard\libpic32c.a(fstat.o)
 .xc_stack_usage
                0x00000000       0x13 c:/program files/microchip/xc32/v3.01/bin/bin/../../lib/gcc/pic32c/8.3.1/../../../../pic32c/lib/thumb/v7e-m+fp/hard\libpic32c.a(fstat.o)
 .xc_stack_usage.hdr
                0x00000000        0xe c:/program files/microchip/xc32/v3.01/bin/bin/../../lib/gcc/pic32c/8.3.1/../../../../pic32c/lib/thumb/v7e-m+fp/hard\libpic32c.a(fstat.o)
 .text          0x00000000        0x0 c:/program files/microchip/xc32/v3.01/bin/bin/../../lib/gcc/pic32c/8.3.1/../../../../pic32c/lib/thumb/v7e-m+fp/hard\libpic32c.a(isatty.o)
 .data          0x00000000        0x0 c:/program files/microchip/xc32/v3.01/bin/bin/../../lib/gcc/pic32c/8.3.1/../../../../pic32c/lib/thumb/v7e-m+fp/hard\libpic32c.a(isatty.o)
 .bss           0x00000000        0x0 c:/program files/microchip/xc32/v3.01/bin/bin/../../lib/gcc/pic32c/8.3.1/../../../../pic32c/lib/thumb/v7e-m+fp/hard\libpic32c.a(isatty.o)
 .xc_stack_usage
                0x00000000       0x14 c:/program files/microchip/xc32/v3.01/bin/bin/../../lib/gcc/pic32c/8.3.1/../../../../pic32c/lib/thumb/v7e-m+fp/hard\libpic32c.a(isatty.o)
 .xc_stack_usage.hdr
                0x00000000        0xe c:/program files/microchip/xc32/v3.01/bin/bin/../../lib/gcc/pic32c/8.3.1/../../../../pic32c/lib/thumb/v7e-m+fp/hard\libpic32c.a(isatty.o)
 .text          0x00000000        0x0 c:/program files/microchip/xc32/v3.01/bin/bin/../../lib/gcc/pic32c/8.3.1/../../../../pic32c/lib/thumb/v7e-m+fp/hard\libpic32c.a(lseek.o)
 .data          0x00000000        0x0 c:/program files/microchip/xc32/v3.01/bin/bin/../../lib/gcc/pic32c/8.3.1/../../../../pic32c/lib/thumb/v7e-m+fp/hard\libpic32c.a(lseek.o)
 .bss           0x00000000        0x0 c:/program files/microchip/xc32/v3.01/bin/bin/../../lib/gcc/pic32c/8.3.1/../../../../pic32c/lib/thumb/v7e-m+fp/hard\libpic32c.a(lseek.o)
 .xc_stack_usage
                0x00000000       0x13 c:/program files/microchip/xc32/v3.01/bin/bin/../../lib/gcc/pic32c/8.3.1/../../../../pic32c/lib/thumb/v7e-m+fp/hard\libpic32c.a(lseek.o)
 .xc_stack_usage.hdr
                0x00000000        0xe c:/program files/microchip/xc32/v3.01/bin/bin/../../lib/gcc/pic32c/8.3.1/../../../../pic32c/lib/thumb/v7e-m+fp/hard\libpic32c.a(lseek.o)
 .text          0x00000000        0x0 c:/program files/microchip/xc32/v3.01/bin/bin/../../lib/gcc/pic32c/8.3.1/../../../../pic32c/lib/thumb/v7e-m+fp/hard\libpic32c.a(read.o)
 .data          0x00000000        0x0 c:/program files/microchip/xc32/v3.01/bin/bin/../../lib/gcc/pic32c/8.3.1/../../../../pic32c/lib/thumb/v7e-m+fp/hard\libpic32c.a(read.o)
 .bss           0x00000000        0x0 c:/program files/microchip/xc32/v3.01/bin/bin/../../lib/gcc/pic32c/8.3.1/../../../../pic32c/lib/thumb/v7e-m+fp/hard\libpic32c.a(read.o)
 .xc_stack_usage
                0x00000000       0x12 c:/program files/microchip/xc32/v3.01/bin/bin/../../lib/gcc/pic32c/8.3.1/../../../../pic32c/lib/thumb/v7e-m+fp/hard\libpic32c.a(read.o)
 .xc_stack_usage.hdr
                0x00000000        0xe c:/program files/microchip/xc32/v3.01/bin/bin/../../lib/gcc/pic32c/8.3.1/../../../../pic32c/lib/thumb/v7e-m+fp/hard\libpic32c.a(read.o)
 .text          0x00000000        0x0 c:/program files/microchip/xc32/v3.01/bin/bin/../../lib/gcc/pic32c/8.3.1/../../../../pic32c/lib/thumb/v7e-m+fp/hard\libpic32c.a(write.o)
 .data          0x00000000        0x0 c:/program files/microchip/xc32/v3.01/bin/bin/../../lib/gcc/pic32c/8.3.1/../../../../pic32c/lib/thumb/v7e-m+fp/hard\libpic32c.a(write.o)
 .bss           0x00000000        0x0 c:/program files/microchip/xc32/v3.01/bin/bin/../../lib/gcc/pic32c/8.3.1/../../../../pic32c/lib/thumb/v7e-m+fp/hard\libpic32c.a(write.o)
 .xc_stack_usage
                0x00000000       0x13 c:/program files/microchip/xc32/v3.01/bin/bin/../../lib/gcc/pic32c/8.3.1/../../../../pic32c/lib/thumb/v7e-m+fp/hard\libpic32c.a(write.o)
 .xc_stack_usage.hdr
                0x00000000        0xe c:/program files/microchip/xc32/v3.01/bin/bin/../../lib/gcc/pic32c/8.3.1/../../../../pic32c/lib/thumb/v7e-m+fp/hard\libpic32c.a(write.o)
 .text          0x00000000        0x0 c:/program files/microchip/xc32/v3.01/bin/bin/../../lib/gcc/pic32c/8.3.1/thumb/v7e-m+fp/hard/crtend.o
 .data          0x00000000        0x0 c:/program files/microchip/xc32/v3.01/bin/bin/../../lib/gcc/pic32c/8.3.1/thumb/v7e-m+fp/hard/crtend.o
 .bss           0x00000000        0x0 c:/program files/microchip/xc32/v3.01/bin/bin/../../lib/gcc/pic32c/8.3.1/thumb/v7e-m+fp/hard/crtend.o
 .eh_frame      0x00000000        0x4 c:/program files/microchip/xc32/v3.01/bin/bin/../../lib/gcc/pic32c/8.3.1/thumb/v7e-m+fp/hard/crtend.o
 .xc_stack_usage.hdr
                0x00000000        0xe c:/program files/microchip/xc32/v3.01/bin/bin/../../lib/gcc/pic32c/8.3.1/thumb/v7e-m+fp/hard/crtend.o
 .comment       0x00000000       0x54 c:/program files/microchip/xc32/v3.01/bin/bin/../../lib/gcc/pic32c/8.3.1/thumb/v7e-m+fp/hard/crtend.o
 .ARM.attributes
                0x00000000       0x32 c:/program files/microchip/xc32/v3.01/bin/bin/../../lib/gcc/pic32c/8.3.1/thumb/v7e-m+fp/hard/crtend.o
 .text          0x00000000        0x0 c:/program files/microchip/xc32/v3.01/bin/bin/../../lib/gcc/pic32c/8.3.1/thumb/v7e-m+fp/hard/crtn.o
 .data          0x00000000        0x0 c:/program files/microchip/xc32/v3.01/bin/bin/../../lib/gcc/pic32c/8.3.1/thumb/v7e-m+fp/hard/crtn.o
 .bss           0x00000000        0x0 c:/program files/microchip/xc32/v3.01/bin/bin/../../lib/gcc/pic32c/8.3.1/thumb/v7e-m+fp/hard/crtn.o
 .xc_stack_usage.hdr
                0x00000000        0xe c:/program files/microchip/xc32/v3.01/bin/bin/../../lib/gcc/pic32c/8.3.1/thumb/v7e-m+fp/hard/crtn.o

Memory Configuration

Name             Origin             Length             Attributes
rom              0x00000000         0x000fe000         xrl
ram              0x20000000         0x00040000         xw !r
config_eeprom_mem 0x0003e000         0x00002000         xrl
tcm              0x03000000         0x00000000         xw
config_D0800080  0xd0800080         0x00000004
config_D0800100  0xd0800100         0x00000004
config_D0800084  0xd0800084         0x00000004
config_D0804000  0xd0804000         0x00000004
config_D0800108  0xd0800108         0x00000004
config_D0804008  0xd0804008         0x00000004
config_D0800104  0xd0800104         0x00000004
config_D0804004  0xd0804004         0x00000004
*default*        0x00000000         0xffffffff

Linker script and memory map

LOAD c:/program files/microchip/xc32/v3.01/bin/bin/../../lib/gcc/pic32c/8.3.1/thumb/v7e-m+fp/hard/crti.o
LOAD c:/program files/microchip/xc32/v3.01/bin/bin/../../lib/gcc/pic32c/8.3.1/thumb/v7e-m+fp/hard/crtbegin.o
LOAD build/LAN9255_SQI_INDIRECT_MODE/production/_ext/1984496892/plib_clock.o
LOAD build/LAN9255_SQI_INDIRECT_MODE/production/_ext/1865131932/plib_cmcc.o
LOAD build/LAN9255_SQI_INDIRECT_MODE/production/_ext/60167341/plib_eic.o
LOAD build/LAN9255_SQI_INDIRECT_MODE/production/_ext/1986646378/plib_evsys.o
LOAD build/LAN9255_SQI_INDIRECT_MODE/production/_ext/1865468468/plib_nvic.o
LOAD build/LAN9255_SQI_INDIRECT_MODE/production/_ext/1593096446/plib_nvmctrl.o
LOAD build/LAN9255_SQI_INDIRECT_MODE/production/_ext/1865488526/oledc_driver.o
LOAD build/LAN9255_SQI_INDIRECT_MODE/production/_ext/1865521619/plib_port.o
LOAD build/LAN9255_SQI_INDIRECT_MODE/production/_ext/1865555181/plib_qspi.o
LOAD build/LAN9255_SQI_INDIRECT_MODE/production/_ext/1865555181/plib_qspi_spi.o
LOAD build/LAN9255_SQI_INDIRECT_MODE/production/_ext/17022449/plib_sercom4_spi_master.o
LOAD build/LAN9255_SQI_INDIRECT_MODE/production/_ext/504274921/plib_sercom0_usart.o
LOAD build/LAN9255_SQI_INDIRECT_MODE/production/_ext/1827571544/plib_systick.o
LOAD build/LAN9255_SQI_INDIRECT_MODE/production/_ext/163028504/xc32_monitor.o
LOAD build/LAN9255_SQI_INDIRECT_MODE/production/_ext/1881668453/sys_int.o
LOAD build/LAN9255_SQI_INDIRECT_MODE/production/_ext/1171490990/exceptions.o
LOAD build/LAN9255_SQI_INDIRECT_MODE/production/_ext/1171490990/initialization.o
LOAD build/LAN9255_SQI_INDIRECT_MODE/production/_ext/1171490990/interrupts.o
LOAD build/LAN9255_SQI_INDIRECT_MODE/production/_ext/1171490990/libc_syscalls.o
LOAD build/LAN9255_SQI_INDIRECT_MODE/production/_ext/1171490990/startup_xc32.o
LOAD build/LAN9255_SQI_INDIRECT_MODE/production/_ext/1171490990/tasks.o
LOAD build/LAN9255_SQI_INDIRECT_MODE/production/_ext/1671622016/Drivers.o
LOAD build/LAN9255_SQI_INDIRECT_MODE/production/_ext/108147519/ESC_Utils.o
LOAD build/LAN9255_SQI_INDIRECT_MODE/production/_ext/108147519/LAN925x.o
LOAD build/LAN9255_SQI_INDIRECT_MODE/production/_ext/108134065/bootmode.o
LOAD build/LAN9255_SQI_INDIRECT_MODE/production/_ext/108134065/coeappl.o
LOAD build/LAN9255_SQI_INDIRECT_MODE/production/_ext/108134065/ecatappl.o
LOAD build/LAN9255_SQI_INDIRECT_MODE/production/_ext/108134065/ecatcoe.o
LOAD build/LAN9255_SQI_INDIRECT_MODE/production/_ext/108134065/ecatfoe.o
LOAD build/LAN9255_SQI_INDIRECT_MODE/production/_ext/108134065/ecatslv.o
LOAD build/LAN9255_SQI_INDIRECT_MODE/production/_ext/108134065/emcy.o
LOAD build/LAN9255_SQI_INDIRECT_MODE/production/_ext/108134065/foeappl.o
LOAD build/LAN9255_SQI_INDIRECT_MODE/production/_ext/108134065/mailbox.o
LOAD build/LAN9255_SQI_INDIRECT_MODE/production/_ext/108134065/objdef.o
LOAD build/LAN9255_SQI_INDIRECT_MODE/production/_ext/108134065/sample_app.o
LOAD build/LAN9255_SQI_INDIRECT_MODE/production/_ext/108134065/sdoserv.o
LOAD build/LAN9255_SQI_INDIRECT_MODE/production/_ext/1360937237/main.o
LOAD build/LAN9255_SQI_INDIRECT_MODE/production/_ext/1360937237/app.o
LOAD build/LAN9255_SQI_INDIRECT_MODE/production/_ext/1360937237/Developer_Test.o
                0x00000001                __MPLAB_BUILD = 0x1
                0x000fe000                __rom_end = (ORIGIN (rom) + LENGTH (rom))
                0x20040000                __ram_end = (ORIGIN (ram) + LENGTH (ram))

.config_D0800080
 *(.config_D0800080)

.config_eeprom  0x0003e000      0x800
 *(.config_eeprom)
 .config_eeprom
                0x0003e000      0x800 build/LAN9255_SQI_INDIRECT_MODE/production/_ext/1360937237/app.o
                0x0003e000                aEepromData

.config_D0800100
 *(.config_D0800100)

.config_D0800084
 *(.config_D0800084)

.config_D0804000
 *(.config_D0804000)

.config_D0800108
 *(.config_D0800108)

.config_D0804008
 *(.config_D0804008)

.config_D0800104
 *(.config_D0800104)

.config_D0804004
 *(.config_D0804004)

.vectors        0x00000000      0x260
                0x00000000                . = ALIGN (0x4)
                0x00000000                _sfixed = .
 *(.vectors .vectors.* .vectors_default .vectors_default.*)
 .vectors       0x00000000      0x260 build/LAN9255_SQI_INDIRECT_MODE/production/_ext/1171490990/interrupts.o
                0x00000000                exception_table
 *(.isr_vector)
 *(.reset*)
 *(.after_vectors)

.text           0x00000260       0x20
                0x00000260                . = ALIGN (0x4)
 *(.glue_7t)
 .glue_7t       0x00000260        0x0 linker stubs
 *(.glue_7)
 .glue_7        0x00000260        0x0 linker stubs
 *(.gnu.linkonce.r.*)
 *(.ARM.extab* .gnu.linkonce.armextab.*)
                0x00000260                . = ALIGN (0x4)
 *(.init)
 .init          0x00000260        0x4 c:/program files/microchip/xc32/v3.01/bin/bin/../../lib/gcc/pic32c/8.3.1/thumb/v7e-m+fp/hard/crti.o
                0x00000260                _init
 .init          0x00000264        0x8 c:/program files/microchip/xc32/v3.01/bin/bin/../../lib/gcc/pic32c/8.3.1/thumb/v7e-m+fp/hard/crtn.o
                0x0000026c                . = ALIGN (0x4)
                0x0000026c                __preinit_array_start = .
 *(.preinit_array)
                0x0000026c                __preinit_array_end = .
                0x0000026c                . = ALIGN (0x4)
                0x0000026c                __init_array_start = .
 *(SORT_BY_NAME(.init_array.*))
 *(.init_array)
 .init_array    0x0000026c        0x4 c:/program files/microchip/xc32/v3.01/bin/bin/../../lib/gcc/pic32c/8.3.1/thumb/v7e-m+fp/hard/crtbegin.o
                0x00000270                __init_array_end = .
                0x00000270                . = ALIGN (0x4)
 *crtbegin.o(.ctors)
 *(EXCLUDE_FILE(*crtend.o) .ctors)
 *(SORT_BY_NAME(.ctors.*))
 *crtend.o(.ctors)
                0x00000270                . = ALIGN (0x4)
 *(.fini)
 .fini          0x00000270        0x4 c:/program files/microchip/xc32/v3.01/bin/bin/../../lib/gcc/pic32c/8.3.1/thumb/v7e-m+fp/hard/crti.o
                0x00000270                _fini
 .fini          0x00000274        0x8 c:/program files/microchip/xc32/v3.01/bin/bin/../../lib/gcc/pic32c/8.3.1/thumb/v7e-m+fp/hard/crtn.o
                0x0000027c                . = ALIGN (0x4)
                0x0000027c                __fini_array_start = .
 *(.fini_array)
 .fini_array    0x0000027c        0x4 c:/program files/microchip/xc32/v3.01/bin/bin/../../lib/gcc/pic32c/8.3.1/thumb/v7e-m+fp/hard/crtbegin.o
 *(SORT_BY_NAME(.fini_array.*))
                0x00000280                __fini_array_end = .
 *crtbegin.o(.dtors)
 *(EXCLUDE_FILE(*crtend.o) .dtors)
 *(SORT_BY_NAME(.dtors.*))
 *crtend.o(.dtors)
                0x00000280                . = ALIGN (0x4)
                0x00000280                _efixed = .
                [!provide]                PROVIDE (__exidx_start = .)

.ARM.exidx      0x00000280        0x8
 *(.ARM.exidx* .gnu.linkonce.armexidx.*)
 .ARM.exidx     0x00000280        0x8 c:/program files/microchip/xc32/v3.01/bin/bin/../../lib/gcc/pic32c/8.3.1/thumb/v7e-m+fp/hard\libgcc.a(_udivmoddi4.o)
                [!provide]                PROVIDE (__exidx_end = .)
                0x00000288                . = ALIGN (0x4)
                0x00000288                _etext = .

.bss            0x20000000     0x2440
                0x20000000                . = ALIGN (0x4)
                0x20000000                __bss_start__ = .
                0x20000000                _sbss = .
                0x20000000                _szero = .
 *(COMMON)
 COMMON         0x20000000       0xc0 build/LAN9255_SQI_INDIRECT_MODE/production/_ext/60167341/plib_eic.o
                0x20000000                eicCallbackObject
 COMMON         0x200000c0       0x2c build/LAN9255_SQI_INDIRECT_MODE/production/_ext/17022449/plib_sercom4_spi_master.o
                0x200000c0                sercom4SPIObj
 COMMON         0x200000ec       0x30 build/LAN9255_SQI_INDIRECT_MODE/production/_ext/504274921/plib_sercom0_usart.o
                0x200000ec                sercom0USARTObj
 COMMON         0x2000011c        0xc build/LAN9255_SQI_INDIRECT_MODE/production/_ext/1827571544/plib_systick.o
                0x2000011c                systick
 COMMON         0x20000128        0x2 build/LAN9255_SQI_INDIRECT_MODE/production/_ext/108147519/LAN925x.o
                0x20000128                gEscALEvent
 *fill*         0x2000012a        0x2 
 COMMON         0x2000012c        0x8 build/LAN9255_SQI_INDIRECT_MODE/production/_ext/108134065/coeappl.o
                0x2000012c                u32LastDc32Value
                0x20000130                u32CheckForDcOverrunCnt
 COMMON         0x20000134       0xe0 build/LAN9255_SQI_INDIRECT_MODE/production/_ext/108134065/ecatappl.o
                0x20000134                pAPPL_EEPROM_Store
                0x20000138                bMinCycleTimeMeasurementStarted
                0x2000013c                u32CycleTimeStartValue
                0x20000140                pAPPL_EEPROM_Read
                0x20000144                pAPPL_EEPROM_Write
                0x20000148                bRunApplication
                0x2000014c                u32SystemTimeReadFailure
                0x20000150                bEcatWaitForInputUpdate
                0x20000154                u32MinCycleTimeValue
                0x20000158                aPdOutputData
                0x2000019c                pAPPL_FoeError
                0x200001a0                u16EepromStoreTimeoutCounter
                0x200001a2                EepromReadSize
                0x200001a4                pAPPL_FoeReadData
                0x200001a8                pAPPL_MainLoop
                0x200001ac                bEtherCATErrorLed
                0x200001b0                u32MinCycleTimeStartValue
                0x200001b4                aPdInputData
                0x200001f8                pEEPROM
                0x200001fc                bEtherCATRunLed
                0x20000200                pAPPL_FoeWriteData
                0x20000204                pAPPL_EEPROM_Reload
                0x20000208                pAPPL_FoeRead
                0x2000020c                u16EepromStoreTimeoutValue
                0x20000210                pAPPL_FoeWrite
 COMMON         0x20000214        0x4 build/LAN9255_SQI_INDIRECT_MODE/production/_ext/108134065/ecatcoe.o
                0x20000214                pCoeSendStored
 COMMON         0x20000218       0x16 build/LAN9255_SQI_INDIRECT_MODE/production/_ext/108134065/ecatfoe.o
                0x20000218                u32FileOffset
                0x2000021c                u16FileAccessState
                0x20000220                u32PacketNo
                0x20000224                pFoeSendStored
                0x20000228                u32LastFileOffset
                0x2000022c                u16FoeMaxSendBlockSize
 *fill*         0x2000022e        0x2 
 COMMON         0x20000230       0x52 build/LAN9255_SQI_INDIRECT_MODE/production/_ext/108134065/ecatslv.o
                0x20000230                b3BufferMode
                0x20000232                nEcatStateTrans
                0x20000234                EcatWdCounter
                0x20000236                bApplEsmPending
                0x20000237                nAlStatus
                0x20000238                nPdOutputSize
                0x2000023a                u16LocalErrorCode
                0x2000023c                Sync0WdCounter
                0x2000023e                bLocalErrorFlag
                0x20000240                LatchInputSync0Counter
                0x20000242                i16WaitForPllRunningCnt
                0x20000244                nEscAddrOutputData
                0x20000246                Sync0WdValue
                0x20000248                u8EcatRunLed
                0x2000024a                i16WaitForPllRunningTimeout
                0x2000024c                Sync1WdValue
                0x2000024e                u16ALEventMask
                0x20000250                bDcRunning
                0x20000254                u32dummy
                0x20000258                SyncManInfo
                0x20000260                b32BitDc
                0x20000262                LatchInputSync0Value
                0x20000264                bEcatWaitForAlControlRes
                0x20000266                nPdInputSize
                0x20000268                u16SmSync0Value
                0x2000026a                nMaxEscAddress
                0x2000026c                bEcatFirstOutputsReceived
                0x2000026d                bSmSyncSequenceValid
                0x2000026e                EsmTimeoutCounter
                0x20000270                bBootMode
                0x20000271                bDcSyncActive
                0x20000272                bEcatOutputUpdateRunning
                0x20000274                Sync1WdCounter
                0x20000276                EcatWdValue
                0x20000278                bEcatInputUpdateRunning
                0x20000279                bEscIntEnabled
                0x2000027a                bWdTrigger
                0x2000027c                u16SmSync0Counter
                0x2000027e                nMaxSyncMan
                0x2000027f                u8EcatErrorLed
                0x20000280                nEscAddrInputData
 *fill*         0x20000282        0x2 
 COMMON         0x20000284       0x28 build/LAN9255_SQI_INDIRECT_MODE/production/_ext/108134065/emcy.o
                0x20000284                sSendEmcyQueue
                0x20000294                asEmcy
                0x2000029c                sEmptyEmcyQueue
 COMMON         0x200002ac       0x94 build/LAN9255_SQI_INDIRECT_MODE/production/_ext/108134065/mailbox.o
                0x200002ac                u8MbxReadCounter
                0x200002b0                sMbxSendQueue
                0x200002e4                sMbxReceiveQueue
                0x20000318                bNoMbxMemoryAvailable
                0x20000319                bSendMbxIsFull
                0x2000031a                bMbxRunning
                0x2000031c                u16EscAddrReceiveMbx
                0x20000320                psStoreMbx
                0x20000324                u16SendMbxSize
                0x20000328                psReadMbx
                0x2000032c                bReceiveMbxIsLocked
                0x2000032e                u16EscAddrSendMbx
                0x20000330                psWriteMbx
                0x20000334                u8MbxWriteCounter
                0x20000335                u8MailboxSendReqStored
                0x20000336                u16ReceiveMbxSize
                0x20000338                bMbxRepeatToggle
                0x2000033c                psRepeatMbx
 COMMON         0x20000340       0x8e build/LAN9255_SQI_INDIRECT_MODE/production/_ext/108134065/objdef.o
                0x20000340                sSyncManInPar
                0x20000384                sSyncManOutPar
                0x200003c8                bSyncSetByUser
                0x200003cc                sCycleDiag
 *fill*         0x200003ce        0x2 
 COMMON         0x200003d0     0x2016 build/LAN9255_SQI_INDIRECT_MODE/production/_ext/108134065/sample_app.o
                0x200003d0                aFileData
                0x200023d0                aFileName
 *fill*         0x200023e6        0x2 
 COMMON         0x200023e8       0x4d build/LAN9255_SQI_INDIRECT_MODE/production/_ext/108134065/sdoserv.o
                0x200023e8                nSdoInfoIndex
                0x200023ec                pStoreData
                0x200023f0                nSdoSegBytesToHandle
                0x200023f4                bSdoSegAccess
                0x200023f5                bSdoSegFollows
                0x200023f8                nSdoSegCompleteSize
                0x200023fc                pSdoPendFunc
                0x20002400                u8PendingSdo
                0x20002401                bStoreCompleteAccess
                0x20002402                bSdoSegLastToggle
                0x20002403                nSdoSegService
                0x20002404                pSdoInfoObjEntry
                0x20002408                nSdoInfoFragmentsLeft
                0x2000240c                pSdoResStored
                0x20002410                u32StoreDataSize
                0x20002414                pSdoSegData
                0x20002418                nSdoSegIndex
                0x2000241c                aSdoInfoHeader
                0x2000242c                pSdoSegObjEntry
                0x20002430                nSdoSegSubindex
                0x20002432                u16StoreIndex
                0x20002434                u8StoreSubindex
 *fill*         0x20002435        0x3 
 COMMON         0x20002438        0x2 build/LAN9255_SQI_INDIRECT_MODE/production/_ext/1360937237/app.o
                0x20002438                appData
                0x20002439                u8readData
 *fill*         0x2000243a        0x2 
 COMMON         0x2000243c        0x4 c:/program files/microchip/xc32/v3.01/bin/bin/../../lib/gcc/pic32c/8.3.1/../../../../pic32c/lib/thumb/v7e-m+fp/hard\libc_nano.a(lib_a-reent.o)
                0x2000243c                errno
                0x20002440                . = ALIGN (0x4)
                0x20002440                __bss_end__ = .
                0x20002440                _ebss = .
                0x20002440                _ezero = .
                0x20002440                . = ALIGN (0x4)
                0x20002440                _end = .
                0x2003ffff                _ram_end_ = ((ORIGIN (ram) + LENGTH (ram)) - 0x1)
                0x00000800                _min_heap_size = 0x800
START GROUP
LOAD c:/program files/microchip/xc32/v3.01/bin/bin/../../lib/gcc/pic32c/8.3.1/../../../../pic32c/lib/thumb/v7e-m+fp/hard\libpic32c.a
LOAD c:/program files/microchip/xc32/v3.01/bin/bin/../../lib/gcc/pic32c/8.3.1/thumb/v7e-m+fp/hard\libgcc.a
LOAD c:/program files/microchip/xc32/v3.01/bin/bin/../../lib/gcc/pic32c/8.3.1/../../../../pic32c/lib/thumb/v7e-m+fp/hard\libm_nano.a
LOAD c:/program files/microchip/xc32/v3.01/bin/bin/../../lib/gcc/pic32c/8.3.1/../../../../pic32c/lib/thumb/v7e-m+fp/hard\libc_nano.a
END GROUP
LOAD c:/program files/microchip/xc32/v3.01/bin/bin/../../lib/gcc/pic32c/8.3.1/thumb/v7e-m+fp/hard/crtend.o
LOAD c:/program files/microchip/xc32/v3.01/bin/bin/../../lib/gcc/pic32c/8.3.1/thumb/v7e-m+fp/hard/crtn.o
OUTPUT(dist/LAN9255_SQI_INDIRECT_MODE/production/EVB_LAN9255_Counter_FoE.X.production.elf elf32-littlearm)
LOAD stack
LOAD data_init

.ARM.attributes
                0x00000000       0x30
 .ARM.attributes
                0x00000000       0x1e c:/program files/microchip/xc32/v3.01/bin/bin/../../lib/gcc/pic32c/8.3.1/thumb/v7e-m+fp/hard/crti.o
 .ARM.attributes
                0x0000001e       0x34 c:/program files/microchip/xc32/v3.01/bin/bin/../../lib/gcc/pic32c/8.3.1/thumb/v7e-m+fp/hard/crtbegin.o
 .ARM.attributes
                0x00000052       0x34 build/LAN9255_SQI_INDIRECT_MODE/production/_ext/1984496892/plib_clock.o
 .ARM.attributes
                0x00000086       0x34 build/LAN9255_SQI_INDIRECT_MODE/production/_ext/60167341/plib_eic.o
 .ARM.attributes
                0x000000ba       0x34 build/LAN9255_SQI_INDIRECT_MODE/production/_ext/1986646378/plib_evsys.o
 .ARM.attributes
                0x000000ee       0x34 build/LAN9255_SQI_INDIRECT_MODE/production/_ext/1865468468/plib_nvic.o
 .ARM.attributes
                0x00000122       0x34 build/LAN9255_SQI_INDIRECT_MODE/production/_ext/1593096446/plib_nvmctrl.o
 .ARM.attributes
                0x00000156       0x34 build/LAN9255_SQI_INDIRECT_MODE/production/_ext/1865488526/oledc_driver.o
 .ARM.attributes
                0x0000018a       0x34 build/LAN9255_SQI_INDIRECT_MODE/production/_ext/1865521619/plib_port.o
 .ARM.attributes
                0x000001be       0x34 build/LAN9255_SQI_INDIRECT_MODE/production/_ext/1865555181/plib_qspi.o
 .ARM.attributes
                0x000001f2       0x34 build/LAN9255_SQI_INDIRECT_MODE/production/_ext/17022449/plib_sercom4_spi_master.o
 .ARM.attributes
                0x00000226       0x34 build/LAN9255_SQI_INDIRECT_MODE/production/_ext/504274921/plib_sercom0_usart.o
 .ARM.attributes
                0x0000025a       0x34 build/LAN9255_SQI_INDIRECT_MODE/production/_ext/1827571544/plib_systick.o
 .ARM.attributes
                0x0000028e       0x34 build/LAN9255_SQI_INDIRECT_MODE/production/_ext/163028504/xc32_monitor.o
 .ARM.attributes
                0x000002c2       0x34 build/LAN9255_SQI_INDIRECT_MODE/production/_ext/1171490990/exceptions.o
 .ARM.attributes
                0x000002f6       0x34 build/LAN9255_SQI_INDIRECT_MODE/production/_ext/1171490990/initialization.o
 .ARM.attributes
                0x0000032a       0x34 build/LAN9255_SQI_INDIRECT_MODE/production/_ext/1171490990/interrupts.o
 .ARM.attributes
                0x0000035e       0x34 build/LAN9255_SQI_INDIRECT_MODE/production/_ext/1171490990/startup_xc32.o
 .ARM.attributes
                0x00000392       0x34 build/LAN9255_SQI_INDIRECT_MODE/production/_ext/1171490990/tasks.o
 .ARM.attributes
                0x000003c6       0x34 build/LAN9255_SQI_INDIRECT_MODE/production/_ext/1671622016/Drivers.o
 .ARM.attributes
                0x000003fa       0x34 build/LAN9255_SQI_INDIRECT_MODE/production/_ext/108147519/ESC_Utils.o
 .ARM.attributes
                0x0000042e       0x34 build/LAN9255_SQI_INDIRECT_MODE/production/_ext/108147519/LAN925x.o
 .ARM.attributes
                0x00000462       0x34 build/LAN9255_SQI_INDIRECT_MODE/production/_ext/108134065/bootmode.o
 .ARM.attributes
                0x00000496       0x34 build/LAN9255_SQI_INDIRECT_MODE/production/_ext/108134065/coeappl.o
 .ARM.attributes
                0x000004ca       0x34 build/LAN9255_SQI_INDIRECT_MODE/production/_ext/108134065/ecatappl.o
 .ARM.attributes
                0x000004fe       0x34 build/LAN9255_SQI_INDIRECT_MODE/production/_ext/108134065/ecatcoe.o
 .ARM.attributes
                0x00000532       0x34 build/LAN9255_SQI_INDIRECT_MODE/production/_ext/108134065/ecatfoe.o
 .ARM.attributes
                0x00000566       0x34 build/LAN9255_SQI_INDIRECT_MODE/production/_ext/108134065/ecatslv.o
 .ARM.attributes
                0x0000059a       0x34 build/LAN9255_SQI_INDIRECT_MODE/production/_ext/108134065/emcy.o
 .ARM.attributes
                0x000005ce       0x34 build/LAN9255_SQI_INDIRECT_MODE/production/_ext/108134065/foeappl.o
 .ARM.attributes
                0x00000602       0x34 build/LAN9255_SQI_INDIRECT_MODE/production/_ext/108134065/mailbox.o
 .ARM.attributes
                0x00000636       0x34 build/LAN9255_SQI_INDIRECT_MODE/production/_ext/108134065/objdef.o
 .ARM.attributes
                0x0000066a       0x34 build/LAN9255_SQI_INDIRECT_MODE/production/_ext/108134065/sample_app.o
 .ARM.attributes
                0x0000069e       0x34 build/LAN9255_SQI_INDIRECT_MODE/production/_ext/108134065/sdoserv.o
 .ARM.attributes
                0x000006d2       0x34 build/LAN9255_SQI_INDIRECT_MODE/production/_ext/1360937237/main.o
 .ARM.attributes
                0x00000706       0x34 build/LAN9255_SQI_INDIRECT_MODE/production/_ext/1360937237/app.o
 .ARM.attributes
                0x0000073a       0x34 c:/program files/microchip/xc32/v3.01/bin/bin/../../lib/gcc/pic32c/8.3.1/../../../../pic32c/lib/thumb/v7e-m+fp/hard\libpic32c.a(data_init.o)
 .ARM.attributes
                0x0000076e       0x1e c:/program files/microchip/xc32/v3.01/bin/bin/../../lib/gcc/pic32c/8.3.1/thumb/v7e-m+fp/hard\libgcc.a(_aeabi_uldivmod.o)
 .ARM.attributes
                0x0000078c       0x34 c:/program files/microchip/xc32/v3.01/bin/bin/../../lib/gcc/pic32c/8.3.1/thumb/v7e-m+fp/hard\libgcc.a(_udivmoddi4.o)
 .ARM.attributes
                0x000007c0       0x1e c:/program files/microchip/xc32/v3.01/bin/bin/../../lib/gcc/pic32c/8.3.1/thumb/v7e-m+fp/hard\libgcc.a(_dvmd_tls.o)
 .ARM.attributes
                0x000007de       0x34 c:/program files/microchip/xc32/v3.01/bin/bin/../../lib/gcc/pic32c/8.3.1/../../../../pic32c/lib/thumb/v7e-m+fp/hard\libc_nano.a(_lib_a-sprintf.cdnopuxX.o)
 .ARM.attributes
                0x00000812       0x34 c:/program files/microchip/xc32/v3.01/bin/bin/../../lib/gcc/pic32c/8.3.1/../../../../pic32c/lib/thumb/v7e-m+fp/hard\libc_nano.a(lib_a-init.o)
 .ARM.attributes
                0x00000846       0x34 c:/program files/microchip/xc32/v3.01/bin/bin/../../lib/gcc/pic32c/8.3.1/../../../../pic32c/lib/thumb/v7e-m+fp/hard\libc_nano.a(lib_a-malloc.o)
 .ARM.attributes
                0x0000087a       0x34 c:/program files/microchip/xc32/v3.01/bin/bin/../../lib/gcc/pic32c/8.3.1/../../../../pic32c/lib/thumb/v7e-m+fp/hard\libc_nano.a(lib_a-memcpy-stub.o)
 .ARM.attributes
                0x000008ae       0x34 c:/program files/microchip/xc32/v3.01/bin/bin/../../lib/gcc/pic32c/8.3.1/../../../../pic32c/lib/thumb/v7e-m+fp/hard\libc_nano.a(lib_a-memset.o)
 .ARM.attributes
                0x000008e2       0x34 c:/program files/microchip/xc32/v3.01/bin/bin/../../lib/gcc/pic32c/8.3.1/../../../../pic32c/lib/thumb/v7e-m+fp/hard\libc_nano.a(lib_a-nano-freer.o)
 .ARM.attributes
                0x00000916       0x34 c:/program files/microchip/xc32/v3.01/bin/bin/../../lib/gcc/pic32c/8.3.1/../../../../pic32c/lib/thumb/v7e-m+fp/hard\libc_nano.a(lib_a-nano-mallocr.o)
 .ARM.attributes
                0x0000094a       0x34 c:/program files/microchip/xc32/v3.01/bin/bin/../../lib/gcc/pic32c/8.3.1/../../../../pic32c/lib/thumb/v7e-m+fp/hard\libc_nano.a(lib_a-sbrkr.o)
 .ARM.attributes
                0x0000097e       0x17 c:/program files/microchip/xc32/v3.01/bin/bin/../../lib/gcc/pic32c/8.3.1/../../../../pic32c/lib/thumb/v7e-m+fp/hard\libc_nano.a(lib_a-strlen.o)
 .ARM.attributes
                0x00000995       0x34 c:/program files/microchip/xc32/v3.01/bin/bin/../../lib/gcc/pic32c/8.3.1/../../../../pic32c/lib/thumb/v7e-m+fp/hard\libc_nano.a(_lib_a-nano-vfprintf.cdnopuxX.o)
 .ARM.attributes
                0x000009c9       0x34 c:/program files/microchip/xc32/v3.01/bin/bin/../../lib/gcc/pic32c/8.3.1/../../../../pic32c/lib/thumb/v7e-m+fp/hard\libc_nano.a(lib_a-__ssfputs.o)
 .ARM.attributes
                0x000009fd       0x34 c:/program files/microchip/xc32/v3.01/bin/bin/../../lib/gcc/pic32c/8.3.1/../../../../pic32c/lib/thumb/v7e-m+fp/hard\libc_nano.a(lib_a-findfp.o)
 .ARM.attributes
                0x00000a31       0x34 c:/program files/microchip/xc32/v3.01/bin/bin/../../lib/gcc/pic32c/8.3.1/../../../../pic32c/lib/thumb/v7e-m+fp/hard\libc_nano.a(lib_a-fputwc.o)
 .ARM.attributes
                0x00000a65       0x34 c:/program files/microchip/xc32/v3.01/bin/bin/../../lib/gcc/pic32c/8.3.1/../../../../pic32c/lib/thumb/v7e-m+fp/hard\libc_nano.a(lib_a-fwalk.o)
 .ARM.attributes
                0x00000a99       0x32 c:/program files/microchip/xc32/v3.01/bin/bin/../../lib/gcc/pic32c/8.3.1/../../../../pic32c/lib/thumb/v7e-m+fp/hard\libc_nano.a(lib_a-impure.o)
 .ARM.attributes
                0x00000acb       0x34 c:/program files/microchip/xc32/v3.01/bin/bin/../../lib/gcc/pic32c/8.3.1/../../../../pic32c/lib/thumb/v7e-m+fp/hard\libc_nano.a(lib_a-locale.o)
 .ARM.attributes
                0x00000aff       0x34 c:/program files/microchip/xc32/v3.01/bin/bin/../../lib/gcc/pic32c/8.3.1/../../../../pic32c/lib/thumb/v7e-m+fp/hard\libc_nano.a(lib_a-mbtowc_r.o)
 .ARM.attributes
                0x00000b33       0x1c c:/program files/microchip/xc32/v3.01/bin/bin/../../lib/gcc/pic32c/8.3.1/../../../../pic32c/lib/thumb/v7e-m+fp/hard\libc_nano.a(lib_a-memchr.o)
 .ARM.attributes
                0x00000b4f       0x34 c:/program files/microchip/xc32/v3.01/bin/bin/../../lib/gcc/pic32c/8.3.1/../../../../pic32c/lib/thumb/v7e-m+fp/hard\libc_nano.a(lib_a-mlock.o)
 .ARM.attributes
                0x00000b83       0x34 c:/program files/microchip/xc32/v3.01/bin/bin/../../lib/gcc/pic32c/8.3.1/../../../../pic32c/lib/thumb/v7e-m+fp/hard\libc_nano.a(lib_a-nano-vfprintf_i.o)
 .ARM.attributes
                0x00000bb7       0x34 c:/program files/microchip/xc32/v3.01/bin/bin/../../lib/gcc/pic32c/8.3.1/../../../../pic32c/lib/thumb/v7e-m+fp/hard\libc_nano.a(lib_a-reent.o)
 .ARM.attributes
                0x00000beb       0x34 c:/program files/microchip/xc32/v3.01/bin/bin/../../lib/gcc/pic32c/8.3.1/../../../../pic32c/lib/thumb/v7e-m+fp/hard\libc_nano.a(lib_a-stdio.o)
 .ARM.attributes
                0x00000c1f       0x34 c:/program files/microchip/xc32/v3.01/bin/bin/../../lib/gcc/pic32c/8.3.1/../../../../pic32c/lib/thumb/v7e-m+fp/hard\libc_nano.a(lib_a-wbuf.o)
 .ARM.attributes
                0x00000c53       0x34 c:/program files/microchip/xc32/v3.01/bin/bin/../../lib/gcc/pic32c/8.3.1/../../../../pic32c/lib/thumb/v7e-m+fp/hard\libc_nano.a(lib_a-wcrtomb.o)
 .ARM.attributes
                0x00000c87       0x34 c:/program files/microchip/xc32/v3.01/bin/bin/../../lib/gcc/pic32c/8.3.1/../../../../pic32c/lib/thumb/v7e-m+fp/hard\libc_nano.a(lib_a-wctomb_r.o)
 .ARM.attributes
                0x00000cbb       0x34 c:/program files/microchip/xc32/v3.01/bin/bin/../../lib/gcc/pic32c/8.3.1/../../../../pic32c/lib/thumb/v7e-m+fp/hard\libc_nano.a(lib_a-writer.o)
 .ARM.attributes
                0x00000cef       0x34 c:/program files/microchip/xc32/v3.01/bin/bin/../../lib/gcc/pic32c/8.3.1/../../../../pic32c/lib/thumb/v7e-m+fp/hard\libc_nano.a(lib_a-wsetup.o)
 .ARM.attributes
                0x00000d23       0x34 c:/program files/microchip/xc32/v3.01/bin/bin/../../lib/gcc/pic32c/8.3.1/../../../../pic32c/lib/thumb/v7e-m+fp/hard\libc_nano.a(lib_a-closer.o)
 .ARM.attributes
                0x00000d57       0x32 c:/program files/microchip/xc32/v3.01/bin/bin/../../lib/gcc/pic32c/8.3.1/../../../../pic32c/lib/thumb/v7e-m+fp/hard\libc_nano.a(lib_a-ctype_.o)
 .ARM.attributes
                0x00000d89       0x34 c:/program files/microchip/xc32/v3.01/bin/bin/../../lib/gcc/pic32c/8.3.1/../../../../pic32c/lib/thumb/v7e-m+fp/hard\libc_nano.a(lib_a-fflush.o)
 .ARM.attributes
                0x00000dbd       0x34 c:/program files/microchip/xc32/v3.01/bin/bin/../../lib/gcc/pic32c/8.3.1/../../../../pic32c/lib/thumb/v7e-m+fp/hard\libc_nano.a(lib_a-lseekr.o)
 .ARM.attributes
                0x00000df1       0x34 c:/program files/microchip/xc32/v3.01/bin/bin/../../lib/gcc/pic32c/8.3.1/../../../../pic32c/lib/thumb/v7e-m+fp/hard\libc_nano.a(lib_a-makebuf.o)
 .ARM.attributes
                0x00000e25       0x34 c:/program files/microchip/xc32/v3.01/bin/bin/../../lib/gcc/pic32c/8.3.1/../../../../pic32c/lib/thumb/v7e-m+fp/hard\libc_nano.a(lib_a-readr.o)
 .ARM.attributes
                0x00000e59       0x34 c:/program files/microchip/xc32/v3.01/bin/bin/../../lib/gcc/pic32c/8.3.1/../../../../pic32c/lib/thumb/v7e-m+fp/hard\libc_nano.a(lib_a-fstatr.o)
 .ARM.attributes
                0x00000e8d       0x34 c:/program files/microchip/xc32/v3.01/bin/bin/../../lib/gcc/pic32c/8.3.1/../../../../pic32c/lib/thumb/v7e-m+fp/hard\libc_nano.a(lib_a-isattyr.o)
 .ARM.attributes
                0x00000ec1       0x34 c:/program files/microchip/xc32/v3.01/bin/bin/../../lib/gcc/pic32c/8.3.1/../../../../pic32c/lib/thumb/v7e-m+fp/hard\libpic32c.a(_close.o)
 .ARM.attributes
                0x00000ef5       0x34 c:/program files/microchip/xc32/v3.01/bin/bin/../../lib/gcc/pic32c/8.3.1/../../../../pic32c/lib/thumb/v7e-m+fp/hard\libpic32c.a(_fstat.o)
 .ARM.attributes
                0x00000f29       0x34 c:/program files/microchip/xc32/v3.01/bin/bin/../../lib/gcc/pic32c/8.3.1/../../../../pic32c/lib/thumb/v7e-m+fp/hard\libpic32c.a(_isatty.o)
 .ARM.attributes
                0x00000f5d       0x34 c:/program files/microchip/xc32/v3.01/bin/bin/../../lib/gcc/pic32c/8.3.1/../../../../pic32c/lib/thumb/v7e-m+fp/hard\libpic32c.a(_lseek.o)
 .ARM.attributes
                0x00000f91       0x34 c:/program files/microchip/xc32/v3.01/bin/bin/../../lib/gcc/pic32c/8.3.1/../../../../pic32c/lib/thumb/v7e-m+fp/hard\libpic32c.a(_read.o)
 .ARM.attributes
                0x00000fc5       0x34 c:/program files/microchip/xc32/v3.01/bin/bin/../../lib/gcc/pic32c/8.3.1/../../../../pic32c/lib/thumb/v7e-m+fp/hard\libpic32c.a(sbrk.o)
 .ARM.attributes
                0x00000ff9       0x34 c:/program files/microchip/xc32/v3.01/bin/bin/../../lib/gcc/pic32c/8.3.1/../../../../pic32c/lib/thumb/v7e-m+fp/hard\libpic32c.a(_write.o)
 .ARM.attributes
                0x0000102d       0x34 c:/program files/microchip/xc32/v3.01/bin/bin/../../lib/gcc/pic32c/8.3.1/../../../../pic32c/lib/thumb/v7e-m+fp/hard\libpic32c.a(close.o)
 .ARM.attributes
                0x00001061       0x34 c:/program files/microchip/xc32/v3.01/bin/bin/../../lib/gcc/pic32c/8.3.1/../../../../pic32c/lib/thumb/v7e-m+fp/hard\libpic32c.a(fstat.o)
 .ARM.attributes
                0x00001095       0x34 c:/program files/microchip/xc32/v3.01/bin/bin/../../lib/gcc/pic32c/8.3.1/../../../../pic32c/lib/thumb/v7e-m+fp/hard\libpic32c.a(isatty.o)
 .ARM.attributes
                0x000010c9       0x34 c:/program files/microchip/xc32/v3.01/bin/bin/../../lib/gcc/pic32c/8.3.1/../../../../pic32c/lib/thumb/v7e-m+fp/hard\libpic32c.a(lseek.o)
 .ARM.attributes
                0x000010fd       0x34 c:/program files/microchip/xc32/v3.01/bin/bin/../../lib/gcc/pic32c/8.3.1/../../../../pic32c/lib/thumb/v7e-m+fp/hard\libpic32c.a(read.o)
 .ARM.attributes
                0x00001131       0x34 c:/program files/microchip/xc32/v3.01/bin/bin/../../lib/gcc/pic32c/8.3.1/../../../../pic32c/lib/thumb/v7e-m+fp/hard\libpic32c.a(write.o)
 .ARM.attributes
                0x00001165       0x1e c:/program files/microchip/xc32/v3.01/bin/bin/../../lib/gcc/pic32c/8.3.1/thumb/v7e-m+fp/hard/crtn.o

.comment        0x00000000       0x53
 .comment       0x00000000       0x53 c:/program files/microchip/xc32/v3.01/bin/bin/../../lib/gcc/pic32c/8.3.1/thumb/v7e-m+fp/hard/crtbegin.o
                                 0x54 (size before relaxing)
 .comment       0x00000053       0x54 build/LAN9255_SQI_INDIRECT_MODE/production/_ext/1984496892/plib_clock.o
 .comment       0x00000053       0x54 build/LAN9255_SQI_INDIRECT_MODE/production/_ext/60167341/plib_eic.o
 .comment       0x00000053       0x54 build/LAN9255_SQI_INDIRECT_MODE/production/_ext/1986646378/plib_evsys.o
 .comment       0x00000053       0x54 build/LAN9255_SQI_INDIRECT_MODE/production/_ext/1865468468/plib_nvic.o
 .comment       0x00000053       0x54 build/LAN9255_SQI_INDIRECT_MODE/production/_ext/1593096446/plib_nvmctrl.o
 .comment       0x00000053       0x54 build/LAN9255_SQI_INDIRECT_MODE/production/_ext/1865488526/oledc_driver.o
 .comment       0x00000053       0x54 build/LAN9255_SQI_INDIRECT_MODE/production/_ext/1865521619/plib_port.o
 .comment       0x00000053       0x54 build/LAN9255_SQI_INDIRECT_MODE/production/_ext/1865555181/plib_qspi.o
 .comment       0x00000053       0x54 build/LAN9255_SQI_INDIRECT_MODE/production/_ext/17022449/plib_sercom4_spi_master.o
 .comment       0x00000053       0x54 build/LAN9255_SQI_INDIRECT_MODE/production/_ext/504274921/plib_sercom0_usart.o
 .comment       0x00000053       0x54 build/LAN9255_SQI_INDIRECT_MODE/production/_ext/1827571544/plib_systick.o
 .comment       0x00000053       0x54 build/LAN9255_SQI_INDIRECT_MODE/production/_ext/163028504/xc32_monitor.o
 .comment       0x00000053       0x54 build/LAN9255_SQI_INDIRECT_MODE/production/_ext/1171490990/exceptions.o
 .comment       0x00000053       0x54 build/LAN9255_SQI_INDIRECT_MODE/production/_ext/1171490990/initialization.o
 .comment       0x00000053       0x54 build/LAN9255_SQI_INDIRECT_MODE/production/_ext/1171490990/interrupts.o
 .comment       0x00000053       0x54 build/LAN9255_SQI_INDIRECT_MODE/production/_ext/1171490990/startup_xc32.o
 .comment       0x00000053       0x54 build/LAN9255_SQI_INDIRECT_MODE/production/_ext/1171490990/tasks.o
 .comment       0x00000053       0x54 build/LAN9255_SQI_INDIRECT_MODE/production/_ext/1671622016/Drivers.o
 .comment       0x00000053       0x54 build/LAN9255_SQI_INDIRECT_MODE/production/_ext/108147519/ESC_Utils.o
 .comment       0x00000053       0x54 build/LAN9255_SQI_INDIRECT_MODE/production/_ext/108147519/LAN925x.o
 .comment       0x00000053       0x54 build/LAN9255_SQI_INDIRECT_MODE/production/_ext/108134065/bootmode.o
 .comment       0x00000053       0x54 build/LAN9255_SQI_INDIRECT_MODE/production/_ext/108134065/coeappl.o
 .comment       0x00000053       0x54 build/LAN9255_SQI_INDIRECT_MODE/production/_ext/108134065/ecatappl.o
 .comment       0x00000053       0x54 build/LAN9255_SQI_INDIRECT_MODE/production/_ext/108134065/ecatcoe.o
 .comment       0x00000053       0x54 build/LAN9255_SQI_INDIRECT_MODE/production/_ext/108134065/ecatfoe.o
 .comment       0x00000053       0x54 build/LAN9255_SQI_INDIRECT_MODE/production/_ext/108134065/ecatslv.o
 .comment       0x00000053       0x54 build/LAN9255_SQI_INDIRECT_MODE/production/_ext/108134065/emcy.o
 .comment       0x00000053       0x54 build/LAN9255_SQI_INDIRECT_MODE/production/_ext/108134065/foeappl.o
 .comment       0x00000053       0x54 build/LAN9255_SQI_INDIRECT_MODE/production/_ext/108134065/mailbox.o
 .comment       0x00000053       0x54 build/LAN9255_SQI_INDIRECT_MODE/production/_ext/108134065/objdef.o
 .comment       0x00000053       0x54 build/LAN9255_SQI_INDIRECT_MODE/production/_ext/108134065/sample_app.o
 .comment       0x00000053       0x54 build/LAN9255_SQI_INDIRECT_MODE/production/_ext/108134065/sdoserv.o
 .comment       0x00000053       0x54 build/LAN9255_SQI_INDIRECT_MODE/production/_ext/1360937237/main.o
 .comment       0x00000053       0x54 build/LAN9255_SQI_INDIRECT_MODE/production/_ext/1360937237/app.o
 .comment       0x00000053       0x54 c:/program files/microchip/xc32/v3.01/bin/bin/../../lib/gcc/pic32c/8.3.1/../../../../pic32c/lib/thumb/v7e-m+fp/hard\libpic32c.a(data_init.o)
 .comment       0x00000053       0x54 c:/program files/microchip/xc32/v3.01/bin/bin/../../lib/gcc/pic32c/8.3.1/thumb/v7e-m+fp/hard\libgcc.a(_udivmoddi4.o)
 .comment       0x00000053       0x54 c:/program files/microchip/xc32/v3.01/bin/bin/../../lib/gcc/pic32c/8.3.1/../../../../pic32c/lib/thumb/v7e-m+fp/hard\libc_nano.a(_lib_a-sprintf.cdnopuxX.o)
 .comment       0x00000053       0x54 c:/program files/microchip/xc32/v3.01/bin/bin/../../lib/gcc/pic32c/8.3.1/../../../../pic32c/lib/thumb/v7e-m+fp/hard\libc_nano.a(lib_a-init.o)
 .comment       0x00000053       0x54 c:/program files/microchip/xc32/v3.01/bin/bin/../../lib/gcc/pic32c/8.3.1/../../../../pic32c/lib/thumb/v7e-m+fp/hard\libc_nano.a(lib_a-malloc.o)
 .comment       0x00000053       0x54 c:/program files/microchip/xc32/v3.01/bin/bin/../../lib/gcc/pic32c/8.3.1/../../../../pic32c/lib/thumb/v7e-m+fp/hard\libc_nano.a(lib_a-memcpy-stub.o)
 .comment       0x00000053       0x54 c:/program files/microchip/xc32/v3.01/bin/bin/../../lib/gcc/pic32c/8.3.1/../../../../pic32c/lib/thumb/v7e-m+fp/hard\libc_nano.a(lib_a-memset.o)
 .comment       0x00000053       0x54 c:/program files/microchip/xc32/v3.01/bin/bin/../../lib/gcc/pic32c/8.3.1/../../../../pic32c/lib/thumb/v7e-m+fp/hard\libc_nano.a(lib_a-nano-freer.o)
 .comment       0x00000053       0x54 c:/program files/microchip/xc32/v3.01/bin/bin/../../lib/gcc/pic32c/8.3.1/../../../../pic32c/lib/thumb/v7e-m+fp/hard\libc_nano.a(lib_a-nano-mallocr.o)
 .comment       0x00000053       0x54 c:/program files/microchip/xc32/v3.01/bin/bin/../../lib/gcc/pic32c/8.3.1/../../../../pic32c/lib/thumb/v7e-m+fp/hard\libc_nano.a(lib_a-sbrkr.o)
 .comment       0x00000053       0x54 c:/program files/microchip/xc32/v3.01/bin/bin/../../lib/gcc/pic32c/8.3.1/../../../../pic32c/lib/thumb/v7e-m+fp/hard\libc_nano.a(_lib_a-nano-vfprintf.cdnopuxX.o)
 .comment       0x00000053       0x54 c:/program files/microchip/xc32/v3.01/bin/bin/../../lib/gcc/pic32c/8.3.1/../../../../pic32c/lib/thumb/v7e-m+fp/hard\libc_nano.a(lib_a-__ssfputs.o)
 .comment       0x00000053       0x54 c:/program files/microchip/xc32/v3.01/bin/bin/../../lib/gcc/pic32c/8.3.1/../../../../pic32c/lib/thumb/v7e-m+fp/hard\libc_nano.a(lib_a-findfp.o)
 .comment       0x00000053       0x54 c:/program files/microchip/xc32/v3.01/bin/bin/../../lib/gcc/pic32c/8.3.1/../../../../pic32c/lib/thumb/v7e-m+fp/hard\libc_nano.a(lib_a-fputwc.o)
 .comment       0x00000053       0x54 c:/program files/microchip/xc32/v3.01/bin/bin/../../lib/gcc/pic32c/8.3.1/../../../../pic32c/lib/thumb/v7e-m+fp/hard\libc_nano.a(lib_a-fwalk.o)
 .comment       0x00000053       0x54 c:/program files/microchip/xc32/v3.01/bin/bin/../../lib/gcc/pic32c/8.3.1/../../../../pic32c/lib/thumb/v7e-m+fp/hard\libc_nano.a(lib_a-impure.o)
 .comment       0x00000053       0x54 c:/program files/microchip/xc32/v3.01/bin/bin/../../lib/gcc/pic32c/8.3.1/../../../../pic32c/lib/thumb/v7e-m+fp/hard\libc_nano.a(lib_a-locale.o)
 .comment       0x00000053       0x54 c:/program files/microchip/xc32/v3.01/bin/bin/../../lib/gcc/pic32c/8.3.1/../../../../pic32c/lib/thumb/v7e-m+fp/hard\libc_nano.a(lib_a-mbtowc_r.o)
 .comment       0x00000053       0x54 c:/program files/microchip/xc32/v3.01/bin/bin/../../lib/gcc/pic32c/8.3.1/../../../../pic32c/lib/thumb/v7e-m+fp/hard\libc_nano.a(lib_a-mlock.o)
 .comment       0x00000053       0x54 c:/program files/microchip/xc32/v3.01/bin/bin/../../lib/gcc/pic32c/8.3.1/../../../../pic32c/lib/thumb/v7e-m+fp/hard\libc_nano.a(lib_a-nano-vfprintf_i.o)
 .comment       0x00000053       0x54 c:/program files/microchip/xc32/v3.01/bin/bin/../../lib/gcc/pic32c/8.3.1/../../../../pic32c/lib/thumb/v7e-m+fp/hard\libc_nano.a(lib_a-reent.o)
 .comment       0x00000053       0x54 c:/program files/microchip/xc32/v3.01/bin/bin/../../lib/gcc/pic32c/8.3.1/../../../../pic32c/lib/thumb/v7e-m+fp/hard\libc_nano.a(lib_a-stdio.o)
 .comment       0x00000053       0x54 c:/program files/microchip/xc32/v3.01/bin/bin/../../lib/gcc/pic32c/8.3.1/../../../../pic32c/lib/thumb/v7e-m+fp/hard\libc_nano.a(lib_a-wbuf.o)
 .comment       0x00000053       0x54 c:/program files/microchip/xc32/v3.01/bin/bin/../../lib/gcc/pic32c/8.3.1/../../../../pic32c/lib/thumb/v7e-m+fp/hard\libc_nano.a(lib_a-wcrtomb.o)
 .comment       0x00000053       0x54 c:/program files/microchip/xc32/v3.01/bin/bin/../../lib/gcc/pic32c/8.3.1/../../../../pic32c/lib/thumb/v7e-m+fp/hard\libc_nano.a(lib_a-wctomb_r.o)
 .comment       0x00000053       0x54 c:/program files/microchip/xc32/v3.01/bin/bin/../../lib/gcc/pic32c/8.3.1/../../../../pic32c/lib/thumb/v7e-m+fp/hard\libc_nano.a(lib_a-writer.o)
 .comment       0x00000053       0x54 c:/program files/microchip/xc32/v3.01/bin/bin/../../lib/gcc/pic32c/8.3.1/../../../../pic32c/lib/thumb/v7e-m+fp/hard\libc_nano.a(lib_a-wsetup.o)
 .comment       0x00000053       0x54 c:/program files/microchip/xc32/v3.01/bin/bin/../../lib/gcc/pic32c/8.3.1/../../../../pic32c/lib/thumb/v7e-m+fp/hard\libc_nano.a(lib_a-closer.o)
 .comment       0x00000053       0x54 c:/program files/microchip/xc32/v3.01/bin/bin/../../lib/gcc/pic32c/8.3.1/../../../../pic32c/lib/thumb/v7e-m+fp/hard\libc_nano.a(lib_a-ctype_.o)
 .comment       0x00000053       0x54 c:/program files/microchip/xc32/v3.01/bin/bin/../../lib/gcc/pic32c/8.3.1/../../../../pic32c/lib/thumb/v7e-m+fp/hard\libc_nano.a(lib_a-fflush.o)
 .comment       0x00000053       0x54 c:/program files/microchip/xc32/v3.01/bin/bin/../../lib/gcc/pic32c/8.3.1/../../../../pic32c/lib/thumb/v7e-m+fp/hard\libc_nano.a(lib_a-lseekr.o)
 .comment       0x00000053       0x54 c:/program files/microchip/xc32/v3.01/bin/bin/../../lib/gcc/pic32c/8.3.1/../../../../pic32c/lib/thumb/v7e-m+fp/hard\libc_nano.a(lib_a-makebuf.o)
 .comment       0x00000053       0x54 c:/program files/microchip/xc32/v3.01/bin/bin/../../lib/gcc/pic32c/8.3.1/../../../../pic32c/lib/thumb/v7e-m+fp/hard\libc_nano.a(lib_a-readr.o)
 .comment       0x00000053       0x54 c:/program files/microchip/xc32/v3.01/bin/bin/../../lib/gcc/pic32c/8.3.1/../../../../pic32c/lib/thumb/v7e-m+fp/hard\libc_nano.a(lib_a-fstatr.o)
 .comment       0x00000053       0x54 c:/program files/microchip/xc32/v3.01/bin/bin/../../lib/gcc/pic32c/8.3.1/../../../../pic32c/lib/thumb/v7e-m+fp/hard\libc_nano.a(lib_a-isattyr.o)
 .comment       0x00000053       0x54 c:/program files/microchip/xc32/v3.01/bin/bin/../../lib/gcc/pic32c/8.3.1/../../../../pic32c/lib/thumb/v7e-m+fp/hard\libpic32c.a(_close.o)
 .comment       0x00000053       0x54 c:/program files/microchip/xc32/v3.01/bin/bin/../../lib/gcc/pic32c/8.3.1/../../../../pic32c/lib/thumb/v7e-m+fp/hard\libpic32c.a(_fstat.o)
 .comment       0x00000053       0x54 c:/program files/microchip/xc32/v3.01/bin/bin/../../lib/gcc/pic32c/8.3.1/../../../../pic32c/lib/thumb/v7e-m+fp/hard\libpic32c.a(_isatty.o)
 .comment       0x00000053       0x54 c:/program files/microchip/xc32/v3.01/bin/bin/../../lib/gcc/pic32c/8.3.1/../../../../pic32c/lib/thumb/v7e-m+fp/hard\libpic32c.a(_lseek.o)
 .comment       0x00000053       0x54 c:/program files/microchip/xc32/v3.01/bin/bin/../../lib/gcc/pic32c/8.3.1/../../../../pic32c/lib/thumb/v7e-m+fp/hard\libpic32c.a(_read.o)
 .comment       0x00000053       0x54 c:/program files/microchip/xc32/v3.01/bin/bin/../../lib/gcc/pic32c/8.3.1/../../../../pic32c/lib/thumb/v7e-m+fp/hard\libpic32c.a(sbrk.o)
 .comment       0x00000053       0x54 c:/program files/microchip/xc32/v3.01/bin/bin/../../lib/gcc/pic32c/8.3.1/../../../../pic32c/lib/thumb/v7e-m+fp/hard\libpic32c.a(_write.o)
 .comment       0x00000053       0x54 c:/program files/microchip/xc32/v3.01/bin/bin/../../lib/gcc/pic32c/8.3.1/../../../../pic32c/lib/thumb/v7e-m+fp/hard\libpic32c.a(close.o)
 .comment       0x00000053       0x54 c:/program files/microchip/xc32/v3.01/bin/bin/../../lib/gcc/pic32c/8.3.1/../../../../pic32c/lib/thumb/v7e-m+fp/hard\libpic32c.a(fstat.o)
 .comment       0x00000053       0x54 c:/program files/microchip/xc32/v3.01/bin/bin/../../lib/gcc/pic32c/8.3.1/../../../../pic32c/lib/thumb/v7e-m+fp/hard\libpic32c.a(isatty.o)
 .comment       0x00000053       0x54 c:/program files/microchip/xc32/v3.01/bin/bin/../../lib/gcc/pic32c/8.3.1/../../../../pic32c/lib/thumb/v7e-m+fp/hard\libpic32c.a(lseek.o)
 .comment       0x00000053       0x54 c:/program files/microchip/xc32/v3.01/bin/bin/../../lib/gcc/pic32c/8.3.1/../../../../pic32c/lib/thumb/v7e-m+fp/hard\libpic32c.a(read.o)
 .comment       0x00000053       0x54 c:/program files/microchip/xc32/v3.01/bin/bin/../../lib/gcc/pic32c/8.3.1/../../../../pic32c/lib/thumb/v7e-m+fp/hard\libpic32c.a(write.o)

.debug_info     0x00000000    0x40785
 .debug_info    0x00000000      0xc69 build/LAN9255_SQI_INDIRECT_MODE/production/_ext/1984496892/plib_clock.o
 .debug_info    0x00000c69      0x84e build/LAN9255_SQI_INDIRECT_MODE/production/_ext/60167341/plib_eic.o
 .debug_info    0x000014b7      0x397 build/LAN9255_SQI_INDIRECT_MODE/production/_ext/1986646378/plib_evsys.o
 .debug_info    0x0000184e     0x15fc build/LAN9255_SQI_INDIRECT_MODE/production/_ext/1865468468/plib_nvic.o
 .debug_info    0x00002e4a     0x189c build/LAN9255_SQI_INDIRECT_MODE/production/_ext/1593096446/plib_nvmctrl.o
 .debug_info    0x000046e6     0x20f9 build/LAN9255_SQI_INDIRECT_MODE/production/_ext/1865488526/oledc_driver.o
 .debug_info    0x000067df      0x880 build/LAN9255_SQI_INDIRECT_MODE/production/_ext/1865521619/plib_port.o
 .debug_info    0x0000705f      0xf5c build/LAN9255_SQI_INDIRECT_MODE/production/_ext/1865555181/plib_qspi.o
 .debug_info    0x00007fbb     0x1519 build/LAN9255_SQI_INDIRECT_MODE/production/_ext/17022449/plib_sercom4_spi_master.o
 .debug_info    0x000094d4     0x1901 build/LAN9255_SQI_INDIRECT_MODE/production/_ext/504274921/plib_sercom0_usart.o
 .debug_info    0x0000add5      0x71d build/LAN9255_SQI_INDIRECT_MODE/production/_ext/1827571544/plib_systick.o
 .debug_info    0x0000b4f2      0x2e9 build/LAN9255_SQI_INDIRECT_MODE/production/_ext/163028504/xc32_monitor.o
 .debug_info    0x0000b7db     0x10a3 build/LAN9255_SQI_INDIRECT_MODE/production/_ext/1171490990/exceptions.o
 .debug_info    0x0000c87e     0x1102 build/LAN9255_SQI_INDIRECT_MODE/production/_ext/1171490990/initialization.o
 .debug_info    0x0000d980     0x2384 build/LAN9255_SQI_INDIRECT_MODE/production/_ext/1171490990/interrupts.o
 .debug_info    0x0000fd04     0x15e4 build/LAN9255_SQI_INDIRECT_MODE/production/_ext/1171490990/startup_xc32.o
 .debug_info    0x000112e8      0xfea build/LAN9255_SQI_INDIRECT_MODE/production/_ext/1171490990/tasks.o
 .debug_info    0x000122d2     0x3ade build/LAN9255_SQI_INDIRECT_MODE/production/_ext/1671622016/Drivers.o
 .debug_info    0x00015db0     0x140f build/LAN9255_SQI_INDIRECT_MODE/production/_ext/108147519/ESC_Utils.o
 .debug_info    0x000171bf     0x2600 build/LAN9255_SQI_INDIRECT_MODE/production/_ext/108147519/LAN925x.o
 .debug_info    0x000197bf     0x1333 build/LAN9255_SQI_INDIRECT_MODE/production/_ext/108134065/bootmode.o
 .debug_info    0x0001aaf2     0x32b8 build/LAN9255_SQI_INDIRECT_MODE/production/_ext/108134065/coeappl.o
 .debug_info    0x0001ddaa     0x2f81 build/LAN9255_SQI_INDIRECT_MODE/production/_ext/108134065/ecatappl.o
 .debug_info    0x00020d2b     0x181e build/LAN9255_SQI_INDIRECT_MODE/production/_ext/108134065/ecatcoe.o
 .debug_info    0x00022549     0x1d01 build/LAN9255_SQI_INDIRECT_MODE/production/_ext/108134065/ecatfoe.o
 .debug_info    0x0002424a     0x3a86 build/LAN9255_SQI_INDIRECT_MODE/production/_ext/108134065/ecatslv.o
 .debug_info    0x00027cd0     0x1cd1 build/LAN9255_SQI_INDIRECT_MODE/production/_ext/108134065/emcy.o
 .debug_info    0x000299a1     0x222e build/LAN9255_SQI_INDIRECT_MODE/production/_ext/108134065/foeappl.o
 .debug_info    0x0002bbcf     0x28fa build/LAN9255_SQI_INDIRECT_MODE/production/_ext/108134065/mailbox.o
 .debug_info    0x0002e4c9     0x2ded build/LAN9255_SQI_INDIRECT_MODE/production/_ext/108134065/objdef.o
 .debug_info    0x000312b6     0x371c build/LAN9255_SQI_INDIRECT_MODE/production/_ext/108134065/sample_app.o
 .debug_info    0x000349d2     0x3284 build/LAN9255_SQI_INDIRECT_MODE/production/_ext/108134065/sdoserv.o
 .debug_info    0x00037c56      0xffa build/LAN9255_SQI_INDIRECT_MODE/production/_ext/1360937237/main.o
 .debug_info    0x00038c50     0x353c build/LAN9255_SQI_INDIRECT_MODE/production/_ext/1360937237/app.o
 .debug_info    0x0003c18c      0x2cd c:/program files/microchip/xc32/v3.01/bin/bin/../../lib/gcc/pic32c/8.3.1/../../../../pic32c/lib/thumb/v7e-m+fp/hard\libpic32c.a(data_init.o)
 .debug_info    0x0003c459       0x26 c:/program files/microchip/xc32/v3.01/bin/bin/../../lib/gcc/pic32c/8.3.1/thumb/v7e-m+fp/hard\libgcc.a(_aeabi_uldivmod.o)
 .debug_info    0x0003c47f     0x1fdc c:/program files/microchip/xc32/v3.01/bin/bin/../../lib/gcc/pic32c/8.3.1/thumb/v7e-m+fp/hard\libgcc.a(_udivmoddi4.o)
 .debug_info    0x0003e45b       0x26 c:/program files/microchip/xc32/v3.01/bin/bin/../../lib/gcc/pic32c/8.3.1/thumb/v7e-m+fp/hard\libgcc.a(_dvmd_tls.o)
 .debug_info    0x0003e481      0x2b2 c:/program files/microchip/xc32/v3.01/bin/bin/../../lib/gcc/pic32c/8.3.1/../../../../pic32c/lib/thumb/v7e-m+fp/hard\libpic32c.a(_close.o)
 .debug_info    0x0003e733      0x2b2 c:/program files/microchip/xc32/v3.01/bin/bin/../../lib/gcc/pic32c/8.3.1/../../../../pic32c/lib/thumb/v7e-m+fp/hard\libpic32c.a(_fstat.o)
 .debug_info    0x0003e9e5      0x2b4 c:/program files/microchip/xc32/v3.01/bin/bin/../../lib/gcc/pic32c/8.3.1/../../../../pic32c/lib/thumb/v7e-m+fp/hard\libpic32c.a(_isatty.o)
 .debug_info    0x0003ec99      0x2b2 c:/program files/microchip/xc32/v3.01/bin/bin/../../lib/gcc/pic32c/8.3.1/../../../../pic32c/lib/thumb/v7e-m+fp/hard\libpic32c.a(_lseek.o)
 .debug_info    0x0003ef4b      0x2b0 c:/program files/microchip/xc32/v3.01/bin/bin/../../lib/gcc/pic32c/8.3.1/../../../../pic32c/lib/thumb/v7e-m+fp/hard\libpic32c.a(_read.o)
 .debug_info    0x0003f1fb      0x2b0 c:/program files/microchip/xc32/v3.01/bin/bin/../../lib/gcc/pic32c/8.3.1/../../../../pic32c/lib/thumb/v7e-m+fp/hard\libpic32c.a(sbrk.o)
 .debug_info    0x0003f4ab      0x2b2 c:/program files/microchip/xc32/v3.01/bin/bin/../../lib/gcc/pic32c/8.3.1/../../../../pic32c/lib/thumb/v7e-m+fp/hard\libpic32c.a(_write.o)
 .debug_info    0x0003f75d      0x2b1 c:/program files/microchip/xc32/v3.01/bin/bin/../../lib/gcc/pic32c/8.3.1/../../../../pic32c/lib/thumb/v7e-m+fp/hard\libpic32c.a(close.o)
 .debug_info    0x0003fa0e      0x2b1 c:/program files/microchip/xc32/v3.01/bin/bin/../../lib/gcc/pic32c/8.3.1/../../../../pic32c/lib/thumb/v7e-m+fp/hard\libpic32c.a(fstat.o)
 .debug_info    0x0003fcbf      0x2b3 c:/program files/microchip/xc32/v3.01/bin/bin/../../lib/gcc/pic32c/8.3.1/../../../../pic32c/lib/thumb/v7e-m+fp/hard\libpic32c.a(isatty.o)
 .debug_info    0x0003ff72      0x2b1 c:/program files/microchip/xc32/v3.01/bin/bin/../../lib/gcc/pic32c/8.3.1/../../../../pic32c/lib/thumb/v7e-m+fp/hard\libpic32c.a(lseek.o)
 .debug_info    0x00040223      0x2b0 c:/program files/microchip/xc32/v3.01/bin/bin/../../lib/gcc/pic32c/8.3.1/../../../../pic32c/lib/thumb/v7e-m+fp/hard\libpic32c.a(read.o)
 .debug_info    0x000404d3      0x2b2 c:/program files/microchip/xc32/v3.01/bin/bin/../../lib/gcc/pic32c/8.3.1/../../../../pic32c/lib/thumb/v7e-m+fp/hard\libpic32c.a(write.o)

.debug_abbrev   0x00000000     0x630f
 .debug_abbrev  0x00000000      0x135 build/LAN9255_SQI_INDIRECT_MODE/production/_ext/1984496892/plib_clock.o
 .debug_abbrev  0x00000135      0x1ad build/LAN9255_SQI_INDIRECT_MODE/production/_ext/60167341/plib_eic.o
 .debug_abbrev  0x000002e2       0x64 build/LAN9255_SQI_INDIRECT_MODE/production/_ext/1986646378/plib_evsys.o
 .debug_abbrev  0x00000346      0x1bf build/LAN9255_SQI_INDIRECT_MODE/production/_ext/1865468468/plib_nvic.o
 .debug_abbrev  0x00000505      0x30a build/LAN9255_SQI_INDIRECT_MODE/production/_ext/1593096446/plib_nvmctrl.o
 .debug_abbrev  0x0000080f      0x412 build/LAN9255_SQI_INDIRECT_MODE/production/_ext/1865488526/oledc_driver.o
 .debug_abbrev  0x00000c21      0x188 build/LAN9255_SQI_INDIRECT_MODE/production/_ext/1865521619/plib_port.o
 .debug_abbrev  0x00000da9      0x2eb build/LAN9255_SQI_INDIRECT_MODE/production/_ext/1865555181/plib_qspi.o
 .debug_abbrev  0x00001094      0x291 build/LAN9255_SQI_INDIRECT_MODE/production/_ext/17022449/plib_sercom4_spi_master.o
 .debug_abbrev  0x00001325      0x3be build/LAN9255_SQI_INDIRECT_MODE/production/_ext/504274921/plib_sercom0_usart.o
 .debug_abbrev  0x000016e3      0x1af build/LAN9255_SQI_INDIRECT_MODE/production/_ext/1827571544/plib_systick.o
 .debug_abbrev  0x00001892       0x80 build/LAN9255_SQI_INDIRECT_MODE/production/_ext/163028504/xc32_monitor.o
 .debug_abbrev  0x00001912      0x1bf build/LAN9255_SQI_INDIRECT_MODE/production/_ext/1171490990/exceptions.o
 .debug_abbrev  0x00001ad1      0x214 build/LAN9255_SQI_INDIRECT_MODE/production/_ext/1171490990/initialization.o
 .debug_abbrev  0x00001ce5      0x1d2 build/LAN9255_SQI_INDIRECT_MODE/production/_ext/1171490990/interrupts.o
 .debug_abbrev  0x00001eb7      0x2ba build/LAN9255_SQI_INDIRECT_MODE/production/_ext/1171490990/startup_xc32.o
 .debug_abbrev  0x00002171      0x1dd build/LAN9255_SQI_INDIRECT_MODE/production/_ext/1171490990/tasks.o
 .debug_abbrev  0x0000234e      0x4da build/LAN9255_SQI_INDIRECT_MODE/production/_ext/1671622016/Drivers.o
 .debug_abbrev  0x00002828      0x301 build/LAN9255_SQI_INDIRECT_MODE/production/_ext/108147519/ESC_Utils.o
 .debug_abbrev  0x00002b29      0x376 build/LAN9255_SQI_INDIRECT_MODE/production/_ext/108147519/LAN925x.o
 .debug_abbrev  0x00002e9f      0x23d build/LAN9255_SQI_INDIRECT_MODE/production/_ext/108134065/bootmode.o
 .debug_abbrev  0x000030dc      0x390 build/LAN9255_SQI_INDIRECT_MODE/production/_ext/108134065/coeappl.o
 .debug_abbrev  0x0000346c      0x379 build/LAN9255_SQI_INDIRECT_MODE/production/_ext/108134065/ecatappl.o
 .debug_abbrev  0x000037e5      0x28f build/LAN9255_SQI_INDIRECT_MODE/production/_ext/108134065/ecatcoe.o
 .debug_abbrev  0x00003a74      0x2ee build/LAN9255_SQI_INDIRECT_MODE/production/_ext/108134065/ecatfoe.o
 .debug_abbrev  0x00003d62      0x3e0 build/LAN9255_SQI_INDIRECT_MODE/production/_ext/108134065/ecatslv.o
 .debug_abbrev  0x00004142      0x327 build/LAN9255_SQI_INDIRECT_MODE/production/_ext/108134065/emcy.o
 .debug_abbrev  0x00004469      0x2d3 build/LAN9255_SQI_INDIRECT_MODE/production/_ext/108134065/foeappl.o
 .debug_abbrev  0x0000473c      0x3b1 build/LAN9255_SQI_INDIRECT_MODE/production/_ext/108134065/mailbox.o
 .debug_abbrev  0x00004aed      0x3bd build/LAN9255_SQI_INDIRECT_MODE/production/_ext/108134065/objdef.o
 .debug_abbrev  0x00004eaa      0x4f4 build/LAN9255_SQI_INDIRECT_MODE/production/_ext/108134065/sample_app.o
 .debug_abbrev  0x0000539e      0x451 build/LAN9255_SQI_INDIRECT_MODE/production/_ext/108134065/sdoserv.o
 .debug_abbrev  0x000057ef      0x1f8 build/LAN9255_SQI_INDIRECT_MODE/production/_ext/1360937237/main.o
 .debug_abbrev  0x000059e7      0x4fc build/LAN9255_SQI_INDIRECT_MODE/production/_ext/1360937237/app.o
 .debug_abbrev  0x00005ee3       0x2e c:/program files/microchip/xc32/v3.01/bin/bin/../../lib/gcc/pic32c/8.3.1/../../../../pic32c/lib/thumb/v7e-m+fp/hard\libpic32c.a(data_init.o)
 .debug_abbrev  0x00005f11       0x14 c:/program files/microchip/xc32/v3.01/bin/bin/../../lib/gcc/pic32c/8.3.1/thumb/v7e-m+fp/hard\libgcc.a(_aeabi_uldivmod.o)
 .debug_abbrev  0x00005f25      0x192 c:/program files/microchip/xc32/v3.01/bin/bin/../../lib/gcc/pic32c/8.3.1/thumb/v7e-m+fp/hard\libgcc.a(_udivmoddi4.o)
 .debug_abbrev  0x000060b7       0x14 c:/program files/microchip/xc32/v3.01/bin/bin/../../lib/gcc/pic32c/8.3.1/thumb/v7e-m+fp/hard\libgcc.a(_dvmd_tls.o)
 .debug_abbrev  0x000060cb       0x2b c:/program files/microchip/xc32/v3.01/bin/bin/../../lib/gcc/pic32c/8.3.1/../../../../pic32c/lib/thumb/v7e-m+fp/hard\libpic32c.a(_close.o)
 .debug_abbrev  0x000060f6       0x2b c:/program files/microchip/xc32/v3.01/bin/bin/../../lib/gcc/pic32c/8.3.1/../../../../pic32c/lib/thumb/v7e-m+fp/hard\libpic32c.a(_fstat.o)
 .debug_abbrev  0x00006121       0x2b c:/program files/microchip/xc32/v3.01/bin/bin/../../lib/gcc/pic32c/8.3.1/../../../../pic32c/lib/thumb/v7e-m+fp/hard\libpic32c.a(_isatty.o)
 .debug_abbrev  0x0000614c       0x2b c:/program files/microchip/xc32/v3.01/bin/bin/../../lib/gcc/pic32c/8.3.1/../../../../pic32c/lib/thumb/v7e-m+fp/hard\libpic32c.a(_lseek.o)
 .debug_abbrev  0x00006177       0x2b c:/program files/microchip/xc32/v3.01/bin/bin/../../lib/gcc/pic32c/8.3.1/../../../../pic32c/lib/thumb/v7e-m+fp/hard\libpic32c.a(_read.o)
 .debug_abbrev  0x000061a2       0x2e c:/program files/microchip/xc32/v3.01/bin/bin/../../lib/gcc/pic32c/8.3.1/../../../../pic32c/lib/thumb/v7e-m+fp/hard\libpic32c.a(sbrk.o)
 .debug_abbrev  0x000061d0       0x2b c:/program files/microchip/xc32/v3.01/bin/bin/../../lib/gcc/pic32c/8.3.1/../../../../pic32c/lib/thumb/v7e-m+fp/hard\libpic32c.a(_write.o)
 .debug_abbrev  0x000061fb       0x2e c:/program files/microchip/xc32/v3.01/bin/bin/../../lib/gcc/pic32c/8.3.1/../../../../pic32c/lib/thumb/v7e-m+fp/hard\libpic32c.a(close.o)
 .debug_abbrev  0x00006229       0x2e c:/program files/microchip/xc32/v3.01/bin/bin/../../lib/gcc/pic32c/8.3.1/../../../../pic32c/lib/thumb/v7e-m+fp/hard\libpic32c.a(fstat.o)
 .debug_abbrev  0x00006257       0x2e c:/program files/microchip/xc32/v3.01/bin/bin/../../lib/gcc/pic32c/8.3.1/../../../../pic32c/lib/thumb/v7e-m+fp/hard\libpic32c.a(isatty.o)
 .debug_abbrev  0x00006285       0x2e c:/program files/microchip/xc32/v3.01/bin/bin/../../lib/gcc/pic32c/8.3.1/../../../../pic32c/lib/thumb/v7e-m+fp/hard\libpic32c.a(lseek.o)
 .debug_abbrev  0x000062b3       0x2e c:/program files/microchip/xc32/v3.01/bin/bin/../../lib/gcc/pic32c/8.3.1/../../../../pic32c/lib/thumb/v7e-m+fp/hard\libpic32c.a(read.o)
 .debug_abbrev  0x000062e1       0x2e c:/program files/microchip/xc32/v3.01/bin/bin/../../lib/gcc/pic32c/8.3.1/../../../../pic32c/lib/thumb/v7e-m+fp/hard\libpic32c.a(write.o)

.debug_aranges  0x00000000      0xe18
 .debug_aranges
                0x00000000       0x20 build/LAN9255_SQI_INDIRECT_MODE/production/_ext/1984496892/plib_clock.o
 .debug_aranges
                0x00000020       0x50 build/LAN9255_SQI_INDIRECT_MODE/production/_ext/60167341/plib_eic.o
 .debug_aranges
                0x00000070       0x20 build/LAN9255_SQI_INDIRECT_MODE/production/_ext/1986646378/plib_evsys.o
 .debug_aranges
                0x00000090       0x20 build/LAN9255_SQI_INDIRECT_MODE/production/_ext/1865468468/plib_nvic.o
 .debug_aranges
                0x000000b0       0xb0 build/LAN9255_SQI_INDIRECT_MODE/production/_ext/1593096446/plib_nvmctrl.o
 .debug_aranges
                0x00000160       0x80 build/LAN9255_SQI_INDIRECT_MODE/production/_ext/1865488526/oledc_driver.o
 .debug_aranges
                0x000001e0       0x60 build/LAN9255_SQI_INDIRECT_MODE/production/_ext/1865521619/plib_port.o
 .debug_aranges
                0x00000240       0x58 build/LAN9255_SQI_INDIRECT_MODE/production/_ext/1865555181/plib_qspi.o
 .debug_aranges
                0x00000298       0x58 build/LAN9255_SQI_INDIRECT_MODE/production/_ext/17022449/plib_sercom4_spi_master.o
 .debug_aranges
                0x000002f0       0xb0 build/LAN9255_SQI_INDIRECT_MODE/production/_ext/504274921/plib_sercom0_usart.o
 .debug_aranges
                0x000003a0       0x70 build/LAN9255_SQI_INDIRECT_MODE/production/_ext/1827571544/plib_systick.o
 .debug_aranges
                0x00000410       0x28 build/LAN9255_SQI_INDIRECT_MODE/production/_ext/163028504/xc32_monitor.o
 .debug_aranges
                0x00000438       0x48 build/LAN9255_SQI_INDIRECT_MODE/production/_ext/1171490990/exceptions.o
 .debug_aranges
                0x00000480       0x20 build/LAN9255_SQI_INDIRECT_MODE/production/_ext/1171490990/initialization.o
 .debug_aranges
                0x000004a0       0x20 build/LAN9255_SQI_INDIRECT_MODE/production/_ext/1171490990/interrupts.o
 .debug_aranges
                0x000004c0       0x20 build/LAN9255_SQI_INDIRECT_MODE/production/_ext/1171490990/startup_xc32.o
 .debug_aranges
                0x000004e0       0x20 build/LAN9255_SQI_INDIRECT_MODE/production/_ext/1171490990/tasks.o
 .debug_aranges
                0x00000500       0xc0 build/LAN9255_SQI_INDIRECT_MODE/production/_ext/1671622016/Drivers.o
 .debug_aranges
                0x000005c0       0x38 build/LAN9255_SQI_INDIRECT_MODE/production/_ext/108147519/ESC_Utils.o
 .debug_aranges
                0x000005f8       0x80 build/LAN9255_SQI_INDIRECT_MODE/production/_ext/108147519/LAN925x.o
 .debug_aranges
                0x00000678       0x38 build/LAN9255_SQI_INDIRECT_MODE/production/_ext/108134065/bootmode.o
 .debug_aranges
                0x000006b0       0x70 build/LAN9255_SQI_INDIRECT_MODE/production/_ext/108134065/coeappl.o
 .debug_aranges
                0x00000720       0x78 build/LAN9255_SQI_INDIRECT_MODE/production/_ext/108134065/ecatappl.o
 .debug_aranges
                0x00000798       0x30 build/LAN9255_SQI_INDIRECT_MODE/production/_ext/108134065/ecatcoe.o
 .debug_aranges
                0x000007c8       0x30 build/LAN9255_SQI_INDIRECT_MODE/production/_ext/108134065/ecatfoe.o
 .debug_aranges
                0x000007f8       0xc8 build/LAN9255_SQI_INDIRECT_MODE/production/_ext/108134065/ecatslv.o
 .debug_aranges
                0x000008c0       0x60 build/LAN9255_SQI_INDIRECT_MODE/production/_ext/108134065/emcy.o
 .debug_aranges
                0x00000920       0x48 build/LAN9255_SQI_INDIRECT_MODE/production/_ext/108134065/foeappl.o
 .debug_aranges
                0x00000968       0x80 build/LAN9255_SQI_INDIRECT_MODE/production/_ext/108134065/mailbox.o
 .debug_aranges
                0x000009e8       0x78 build/LAN9255_SQI_INDIRECT_MODE/production/_ext/108134065/objdef.o
 .debug_aranges
                0x00000a60       0xd0 build/LAN9255_SQI_INDIRECT_MODE/production/_ext/108134065/sample_app.o
 .debug_aranges
                0x00000b30       0x40 build/LAN9255_SQI_INDIRECT_MODE/production/_ext/108134065/sdoserv.o
 .debug_aranges
                0x00000b70       0x20 build/LAN9255_SQI_INDIRECT_MODE/production/_ext/1360937237/main.o
 .debug_aranges
                0x00000b90       0x68 build/LAN9255_SQI_INDIRECT_MODE/production/_ext/1360937237/app.o
 .debug_aranges
                0x00000bf8       0x20 c:/program files/microchip/xc32/v3.01/bin/bin/../../lib/gcc/pic32c/8.3.1/../../../../pic32c/lib/thumb/v7e-m+fp/hard\libpic32c.a(data_init.o)
 .debug_aranges
                0x00000c18       0x20 c:/program files/microchip/xc32/v3.01/bin/bin/../../lib/gcc/pic32c/8.3.1/thumb/v7e-m+fp/hard\libgcc.a(_aeabi_uldivmod.o)
 .debug_aranges
                0x00000c38       0x20 c:/program files/microchip/xc32/v3.01/bin/bin/../../lib/gcc/pic32c/8.3.1/thumb/v7e-m+fp/hard\libgcc.a(_udivmoddi4.o)
 .debug_aranges
                0x00000c58       0x20 c:/program files/microchip/xc32/v3.01/bin/bin/../../lib/gcc/pic32c/8.3.1/thumb/v7e-m+fp/hard\libgcc.a(_dvmd_tls.o)
 .debug_aranges
                0x00000c78       0x20 c:/program files/microchip/xc32/v3.01/bin/bin/../../lib/gcc/pic32c/8.3.1/../../../../pic32c/lib/thumb/v7e-m+fp/hard\libpic32c.a(_close.o)
 .debug_aranges
                0x00000c98       0x20 c:/program files/microchip/xc32/v3.01/bin/bin/../../lib/gcc/pic32c/8.3.1/../../../../pic32c/lib/thumb/v7e-m+fp/hard\libpic32c.a(_fstat.o)
 .debug_aranges
                0x00000cb8       0x20 c:/program files/microchip/xc32/v3.01/bin/bin/../../lib/gcc/pic32c/8.3.1/../../../../pic32c/lib/thumb/v7e-m+fp/hard\libpic32c.a(_isatty.o)
 .debug_aranges
                0x00000cd8       0x20 c:/program files/microchip/xc32/v3.01/bin/bin/../../lib/gcc/pic32c/8.3.1/../../../../pic32c/lib/thumb/v7e-m+fp/hard\libpic32c.a(_lseek.o)
 .debug_aranges
                0x00000cf8       0x20 c:/program files/microchip/xc32/v3.01/bin/bin/../../lib/gcc/pic32c/8.3.1/../../../../pic32c/lib/thumb/v7e-m+fp/hard\libpic32c.a(_read.o)
 .debug_aranges
                0x00000d18       0x20 c:/program files/microchip/xc32/v3.01/bin/bin/../../lib/gcc/pic32c/8.3.1/../../../../pic32c/lib/thumb/v7e-m+fp/hard\libpic32c.a(sbrk.o)
 .debug_aranges
                0x00000d38       0x20 c:/program files/microchip/xc32/v3.01/bin/bin/../../lib/gcc/pic32c/8.3.1/../../../../pic32c/lib/thumb/v7e-m+fp/hard\libpic32c.a(_write.o)
 .debug_aranges
                0x00000d58       0x20 c:/program files/microchip/xc32/v3.01/bin/bin/../../lib/gcc/pic32c/8.3.1/../../../../pic32c/lib/thumb/v7e-m+fp/hard\libpic32c.a(close.o)
 .debug_aranges
                0x00000d78       0x20 c:/program files/microchip/xc32/v3.01/bin/bin/../../lib/gcc/pic32c/8.3.1/../../../../pic32c/lib/thumb/v7e-m+fp/hard\libpic32c.a(fstat.o)
 .debug_aranges
                0x00000d98       0x20 c:/program files/microchip/xc32/v3.01/bin/bin/../../lib/gcc/pic32c/8.3.1/../../../../pic32c/lib/thumb/v7e-m+fp/hard\libpic32c.a(isatty.o)
 .debug_aranges
                0x00000db8       0x20 c:/program files/microchip/xc32/v3.01/bin/bin/../../lib/gcc/pic32c/8.3.1/../../../../pic32c/lib/thumb/v7e-m+fp/hard\libpic32c.a(lseek.o)
 .debug_aranges
                0x00000dd8       0x20 c:/program files/microchip/xc32/v3.01/bin/bin/../../lib/gcc/pic32c/8.3.1/../../../../pic32c/lib/thumb/v7e-m+fp/hard\libpic32c.a(read.o)
 .debug_aranges
                0x00000df8       0x20 c:/program files/microchip/xc32/v3.01/bin/bin/../../lib/gcc/pic32c/8.3.1/../../../../pic32c/lib/thumb/v7e-m+fp/hard\libpic32c.a(write.o)

.debug_ranges   0x00000000     0x13a8
 .debug_ranges  0x00000000       0x10 build/LAN9255_SQI_INDIRECT_MODE/production/_ext/1984496892/plib_clock.o
 .debug_ranges  0x00000010       0x40 build/LAN9255_SQI_INDIRECT_MODE/production/_ext/60167341/plib_eic.o
 .debug_ranges  0x00000050       0x10 build/LAN9255_SQI_INDIRECT_MODE/production/_ext/1986646378/plib_evsys.o
 .debug_ranges  0x00000060       0x10 build/LAN9255_SQI_INDIRECT_MODE/production/_ext/1865468468/plib_nvic.o
 .debug_ranges  0x00000070       0xa0 build/LAN9255_SQI_INDIRECT_MODE/production/_ext/1593096446/plib_nvmctrl.o
 .debug_ranges  0x00000110       0xb0 build/LAN9255_SQI_INDIRECT_MODE/production/_ext/1865488526/oledc_driver.o
 .debug_ranges  0x000001c0       0x50 build/LAN9255_SQI_INDIRECT_MODE/production/_ext/1865521619/plib_port.o
 .debug_ranges  0x00000210       0x48 build/LAN9255_SQI_INDIRECT_MODE/production/_ext/1865555181/plib_qspi.o
 .debug_ranges  0x00000258       0x48 build/LAN9255_SQI_INDIRECT_MODE/production/_ext/17022449/plib_sercom4_spi_master.o
 .debug_ranges  0x000002a0       0xa0 build/LAN9255_SQI_INDIRECT_MODE/production/_ext/504274921/plib_sercom0_usart.o
 .debug_ranges  0x00000340       0x60 build/LAN9255_SQI_INDIRECT_MODE/production/_ext/1827571544/plib_systick.o
 .debug_ranges  0x000003a0       0x18 build/LAN9255_SQI_INDIRECT_MODE/production/_ext/163028504/xc32_monitor.o
 .debug_ranges  0x000003b8       0x38 build/LAN9255_SQI_INDIRECT_MODE/production/_ext/1171490990/exceptions.o
 .debug_ranges  0x000003f0       0x10 build/LAN9255_SQI_INDIRECT_MODE/production/_ext/1171490990/initialization.o
 .debug_ranges  0x00000400       0x10 build/LAN9255_SQI_INDIRECT_MODE/production/_ext/1171490990/interrupts.o
 .debug_ranges  0x00000410       0x10 build/LAN9255_SQI_INDIRECT_MODE/production/_ext/1171490990/startup_xc32.o
 .debug_ranges  0x00000420       0x10 build/LAN9255_SQI_INDIRECT_MODE/production/_ext/1171490990/tasks.o
 .debug_ranges  0x00000430      0x110 build/LAN9255_SQI_INDIRECT_MODE/production/_ext/1671622016/Drivers.o
 .debug_ranges  0x00000540       0x80 build/LAN9255_SQI_INDIRECT_MODE/production/_ext/108147519/ESC_Utils.o
 .debug_ranges  0x000005c0       0x70 build/LAN9255_SQI_INDIRECT_MODE/production/_ext/108147519/LAN925x.o
 .debug_ranges  0x00000630       0x28 build/LAN9255_SQI_INDIRECT_MODE/production/_ext/108134065/bootmode.o
 .debug_ranges  0x00000658       0xb0 build/LAN9255_SQI_INDIRECT_MODE/production/_ext/108134065/coeappl.o
 .debug_ranges  0x00000708       0xd0 build/LAN9255_SQI_INDIRECT_MODE/production/_ext/108134065/ecatappl.o
 .debug_ranges  0x000007d8       0x20 build/LAN9255_SQI_INDIRECT_MODE/production/_ext/108134065/ecatcoe.o
 .debug_ranges  0x000007f8       0x90 build/LAN9255_SQI_INDIRECT_MODE/production/_ext/108134065/ecatfoe.o
 .debug_ranges  0x00000888      0x138 build/LAN9255_SQI_INDIRECT_MODE/production/_ext/108134065/ecatslv.o
 .debug_ranges  0x000009c0       0x80 build/LAN9255_SQI_INDIRECT_MODE/production/_ext/108134065/emcy.o
 .debug_ranges  0x00000a40       0x38 build/LAN9255_SQI_INDIRECT_MODE/production/_ext/108134065/foeappl.o
 .debug_ranges  0x00000a78      0x100 build/LAN9255_SQI_INDIRECT_MODE/production/_ext/108134065/mailbox.o
 .debug_ranges  0x00000b78      0x338 build/LAN9255_SQI_INDIRECT_MODE/production/_ext/108134065/objdef.o
 .debug_ranges  0x00000eb0       0xd8 build/LAN9255_SQI_INDIRECT_MODE/production/_ext/108134065/sample_app.o
 .debug_ranges  0x00000f88      0x1c8 build/LAN9255_SQI_INDIRECT_MODE/production/_ext/108134065/sdoserv.o
 .debug_ranges  0x00001150       0x10 build/LAN9255_SQI_INDIRECT_MODE/production/_ext/1360937237/main.o
 .debug_ranges  0x00001160       0x90 build/LAN9255_SQI_INDIRECT_MODE/production/_ext/1360937237/app.o
 .debug_ranges  0x000011f0       0x10 c:/program files/microchip/xc32/v3.01/bin/bin/../../lib/gcc/pic32c/8.3.1/../../../../pic32c/lib/thumb/v7e-m+fp/hard\libpic32c.a(data_init.o)
 .debug_ranges  0x00001200       0xd8 c:/program files/microchip/xc32/v3.01/bin/bin/../../lib/gcc/pic32c/8.3.1/thumb/v7e-m+fp/hard\libgcc.a(_udivmoddi4.o)
 .debug_ranges  0x000012d8       0x10 c:/program files/microchip/xc32/v3.01/bin/bin/../../lib/gcc/pic32c/8.3.1/../../../../pic32c/lib/thumb/v7e-m+fp/hard\libpic32c.a(_close.o)
 .debug_ranges  0x000012e8       0x10 c:/program files/microchip/xc32/v3.01/bin/bin/../../lib/gcc/pic32c/8.3.1/../../../../pic32c/lib/thumb/v7e-m+fp/hard\libpic32c.a(_fstat.o)
 .debug_ranges  0x000012f8       0x10 c:/program files/microchip/xc32/v3.01/bin/bin/../../lib/gcc/pic32c/8.3.1/../../../../pic32c/lib/thumb/v7e-m+fp/hard\libpic32c.a(_isatty.o)
 .debug_ranges  0x00001308       0x10 c:/program files/microchip/xc32/v3.01/bin/bin/../../lib/gcc/pic32c/8.3.1/../../../../pic32c/lib/thumb/v7e-m+fp/hard\libpic32c.a(_lseek.o)
 .debug_ranges  0x00001318       0x10 c:/program files/microchip/xc32/v3.01/bin/bin/../../lib/gcc/pic32c/8.3.1/../../../../pic32c/lib/thumb/v7e-m+fp/hard\libpic32c.a(_read.o)
 .debug_ranges  0x00001328       0x10 c:/program files/microchip/xc32/v3.01/bin/bin/../../lib/gcc/pic32c/8.3.1/../../../../pic32c/lib/thumb/v7e-m+fp/hard\libpic32c.a(sbrk.o)
 .debug_ranges  0x00001338       0x10 c:/program files/microchip/xc32/v3.01/bin/bin/../../lib/gcc/pic32c/8.3.1/../../../../pic32c/lib/thumb/v7e-m+fp/hard\libpic32c.a(_write.o)
 .debug_ranges  0x00001348       0x10 c:/program files/microchip/xc32/v3.01/bin/bin/../../lib/gcc/pic32c/8.3.1/../../../../pic32c/lib/thumb/v7e-m+fp/hard\libpic32c.a(close.o)
 .debug_ranges  0x00001358       0x10 c:/program files/microchip/xc32/v3.01/bin/bin/../../lib/gcc/pic32c/8.3.1/../../../../pic32c/lib/thumb/v7e-m+fp/hard\libpic32c.a(fstat.o)
 .debug_ranges  0x00001368       0x10 c:/program files/microchip/xc32/v3.01/bin/bin/../../lib/gcc/pic32c/8.3.1/../../../../pic32c/lib/thumb/v7e-m+fp/hard\libpic32c.a(isatty.o)
 .debug_ranges  0x00001378       0x10 c:/program files/microchip/xc32/v3.01/bin/bin/../../lib/gcc/pic32c/8.3.1/../../../../pic32c/lib/thumb/v7e-m+fp/hard\libpic32c.a(lseek.o)
 .debug_ranges  0x00001388       0x10 c:/program files/microchip/xc32/v3.01/bin/bin/../../lib/gcc/pic32c/8.3.1/../../../../pic32c/lib/thumb/v7e-m+fp/hard\libpic32c.a(read.o)
 .debug_ranges  0x00001398       0x10 c:/program files/microchip/xc32/v3.01/bin/bin/../../lib/gcc/pic32c/8.3.1/../../../../pic32c/lib/thumb/v7e-m+fp/hard\libpic32c.a(write.o)

.debug_line     0x00000000     0xf500
 .debug_line    0x00000000      0x356 build/LAN9255_SQI_INDIRECT_MODE/production/_ext/1984496892/plib_clock.o
 .debug_line    0x00000356      0x332 build/LAN9255_SQI_INDIRECT_MODE/production/_ext/60167341/plib_eic.o
 .debug_line    0x00000688      0x131 build/LAN9255_SQI_INDIRECT_MODE/production/_ext/1986646378/plib_evsys.o
 .debug_line    0x000007b9      0x4b8 build/LAN9255_SQI_INDIRECT_MODE/production/_ext/1865468468/plib_nvic.o
 .debug_line    0x00000c71      0x51e build/LAN9255_SQI_INDIRECT_MODE/production/_ext/1593096446/plib_nvmctrl.o
 .debug_line    0x0000118f      0x89e build/LAN9255_SQI_INDIRECT_MODE/production/_ext/1865488526/oledc_driver.o
 .debug_line    0x00001a2d      0x323 build/LAN9255_SQI_INDIRECT_MODE/production/_ext/1865521619/plib_port.o
 .debug_line    0x00001d50      0x5ad build/LAN9255_SQI_INDIRECT_MODE/production/_ext/1865555181/plib_qspi.o
 .debug_line    0x000022fd      0x75c build/LAN9255_SQI_INDIRECT_MODE/production/_ext/17022449/plib_sercom4_spi_master.o
 .debug_line    0x00002a59      0x862 build/LAN9255_SQI_INDIRECT_MODE/production/_ext/504274921/plib_sercom0_usart.o
 .debug_line    0x000032bb      0x2f7 build/LAN9255_SQI_INDIRECT_MODE/production/_ext/1827571544/plib_systick.o
 .debug_line    0x000035b2       0x76 build/LAN9255_SQI_INDIRECT_MODE/production/_ext/163028504/xc32_monitor.o
 .debug_line    0x00003628      0x263 build/LAN9255_SQI_INDIRECT_MODE/production/_ext/1171490990/exceptions.o
 .debug_line    0x0000388b      0x45a build/LAN9255_SQI_INDIRECT_MODE/production/_ext/1171490990/initialization.o
 .debug_line    0x00003ce5      0x226 build/LAN9255_SQI_INDIRECT_MODE/production/_ext/1171490990/interrupts.o
 .debug_line    0x00003f0b      0x359 build/LAN9255_SQI_INDIRECT_MODE/production/_ext/1171490990/startup_xc32.o
 .debug_line    0x00004264      0x1f6 build/LAN9255_SQI_INDIRECT_MODE/production/_ext/1171490990/tasks.o
 .debug_line    0x0000445a      0x8e4 build/LAN9255_SQI_INDIRECT_MODE/production/_ext/1671622016/Drivers.o
 .debug_line    0x00004d3e      0x45c build/LAN9255_SQI_INDIRECT_MODE/production/_ext/108147519/ESC_Utils.o
 .debug_line    0x0000519a      0x83e build/LAN9255_SQI_INDIRECT_MODE/production/_ext/108147519/LAN925x.o
 .debug_line    0x000059d8      0x197 build/LAN9255_SQI_INDIRECT_MODE/production/_ext/108134065/bootmode.o
 .debug_line    0x00005b6f      0x827 build/LAN9255_SQI_INDIRECT_MODE/production/_ext/108134065/coeappl.o
 .debug_line    0x00006396      0xb81 build/LAN9255_SQI_INDIRECT_MODE/production/_ext/108134065/ecatappl.o
 .debug_line    0x00006f17      0x213 build/LAN9255_SQI_INDIRECT_MODE/production/_ext/108134065/ecatcoe.o
 .debug_line    0x0000712a      0x67a build/LAN9255_SQI_INDIRECT_MODE/production/_ext/108134065/ecatfoe.o
 .debug_line    0x000077a4     0x1f38 build/LAN9255_SQI_INDIRECT_MODE/production/_ext/108134065/ecatslv.o
 .debug_line    0x000096dc      0x4f0 build/LAN9255_SQI_INDIRECT_MODE/production/_ext/108134065/emcy.o
 .debug_line    0x00009bcc      0x3a7 build/LAN9255_SQI_INDIRECT_MODE/production/_ext/108134065/foeappl.o
 .debug_line    0x00009f73      0xb70 build/LAN9255_SQI_INDIRECT_MODE/production/_ext/108134065/mailbox.o
 .debug_line    0x0000aae3     0x13e5 build/LAN9255_SQI_INDIRECT_MODE/production/_ext/108134065/objdef.o
 .debug_line    0x0000bec8      0xb87 build/LAN9255_SQI_INDIRECT_MODE/production/_ext/108134065/sample_app.o
 .debug_line    0x0000ca4f     0x10a4 build/LAN9255_SQI_INDIRECT_MODE/production/_ext/108134065/sdoserv.o
 .debug_line    0x0000daf3      0x1f2 build/LAN9255_SQI_INDIRECT_MODE/production/_ext/1360937237/main.o
 .debug_line    0x0000dce5      0x777 build/LAN9255_SQI_INDIRECT_MODE/production/_ext/1360937237/app.o
 .debug_line    0x0000e45c      0x110 c:/program files/microchip/xc32/v3.01/bin/bin/../../lib/gcc/pic32c/8.3.1/../../../../pic32c/lib/thumb/v7e-m+fp/hard\libpic32c.a(data_init.o)
 .debug_line    0x0000e56c       0x9c c:/program files/microchip/xc32/v3.01/bin/bin/../../lib/gcc/pic32c/8.3.1/thumb/v7e-m+fp/hard\libgcc.a(_aeabi_uldivmod.o)
 .debug_line    0x0000e608      0x57e c:/program files/microchip/xc32/v3.01/bin/bin/../../lib/gcc/pic32c/8.3.1/thumb/v7e-m+fp/hard\libgcc.a(_udivmoddi4.o)
 .debug_line    0x0000eb86       0x9c c:/program files/microchip/xc32/v3.01/bin/bin/../../lib/gcc/pic32c/8.3.1/thumb/v7e-m+fp/hard\libgcc.a(_dvmd_tls.o)
 .debug_line    0x0000ec22       0x9f c:/program files/microchip/xc32/v3.01/bin/bin/../../lib/gcc/pic32c/8.3.1/../../../../pic32c/lib/thumb/v7e-m+fp/hard\libpic32c.a(_close.o)
 .debug_line    0x0000ecc1       0x9f c:/program files/microchip/xc32/v3.01/bin/bin/../../lib/gcc/pic32c/8.3.1/../../../../pic32c/lib/thumb/v7e-m+fp/hard\libpic32c.a(_fstat.o)
 .debug_line    0x0000ed60       0xa0 c:/program files/microchip/xc32/v3.01/bin/bin/../../lib/gcc/pic32c/8.3.1/../../../../pic32c/lib/thumb/v7e-m+fp/hard\libpic32c.a(_isatty.o)
 .debug_line    0x0000ee00       0x9f c:/program files/microchip/xc32/v3.01/bin/bin/../../lib/gcc/pic32c/8.3.1/../../../../pic32c/lib/thumb/v7e-m+fp/hard\libpic32c.a(_lseek.o)
 .debug_line    0x0000ee9f       0x9e c:/program files/microchip/xc32/v3.01/bin/bin/../../lib/gcc/pic32c/8.3.1/../../../../pic32c/lib/thumb/v7e-m+fp/hard\libpic32c.a(_read.o)
 .debug_line    0x0000ef3d       0xb5 c:/program files/microchip/xc32/v3.01/bin/bin/../../lib/gcc/pic32c/8.3.1/../../../../pic32c/lib/thumb/v7e-m+fp/hard\libpic32c.a(sbrk.o)
 .debug_line    0x0000eff2       0x9f c:/program files/microchip/xc32/v3.01/bin/bin/../../lib/gcc/pic32c/8.3.1/../../../../pic32c/lib/thumb/v7e-m+fp/hard\libpic32c.a(_write.o)
 .debug_line    0x0000f091       0x9e c:/program files/microchip/xc32/v3.01/bin/bin/../../lib/gcc/pic32c/8.3.1/../../../../pic32c/lib/thumb/v7e-m+fp/hard\libpic32c.a(close.o)
 .debug_line    0x0000f12f      0x106 c:/program files/microchip/xc32/v3.01/bin/bin/../../lib/gcc/pic32c/8.3.1/../../../../pic32c/lib/thumb/v7e-m+fp/hard\libpic32c.a(fstat.o)
 .debug_line    0x0000f235       0x9d c:/program files/microchip/xc32/v3.01/bin/bin/../../lib/gcc/pic32c/8.3.1/../../../../pic32c/lib/thumb/v7e-m+fp/hard\libpic32c.a(isatty.o)
 .debug_line    0x0000f2d2       0x9e c:/program files/microchip/xc32/v3.01/bin/bin/../../lib/gcc/pic32c/8.3.1/../../../../pic32c/lib/thumb/v7e-m+fp/hard\libpic32c.a(lseek.o)
 .debug_line    0x0000f370       0xc0 c:/program files/microchip/xc32/v3.01/bin/bin/../../lib/gcc/pic32c/8.3.1/../../../../pic32c/lib/thumb/v7e-m+fp/hard\libpic32c.a(read.o)
 .debug_line    0x0000f430       0xd0 c:/program files/microchip/xc32/v3.01/bin/bin/../../lib/gcc/pic32c/8.3.1/../../../../pic32c/lib/thumb/v7e-m+fp/hard\libpic32c.a(write.o)

.debug_str      0x00000000     0x16a2
 .debug_str     0x00000000       0x1e build/LAN9255_SQI_INDIRECT_MODE/production/_ext/1984496892/plib_clock.o
 .debug_str     0x0000001e        0x9 build/LAN9255_SQI_INDIRECT_MODE/production/_ext/60167341/plib_eic.o
 .debug_str     0x00000027        0x0 build/LAN9255_SQI_INDIRECT_MODE/production/_ext/1986646378/plib_evsys.o
 .debug_str     0x00000027        0xa build/LAN9255_SQI_INDIRECT_MODE/production/_ext/1865468468/plib_nvic.o
 .debug_str     0x00000031       0x29 build/LAN9255_SQI_INDIRECT_MODE/production/_ext/1593096446/plib_nvmctrl.o
 .debug_str     0x0000005a       0x3a build/LAN9255_SQI_INDIRECT_MODE/production/_ext/1865488526/oledc_driver.o
 .debug_str     0x00000094        0xb build/LAN9255_SQI_INDIRECT_MODE/production/_ext/1865521619/plib_port.o
 .debug_str     0x0000009f       0x9a build/LAN9255_SQI_INDIRECT_MODE/production/_ext/1865555181/plib_qspi.o
 .debug_str     0x00000139      0x149 build/LAN9255_SQI_INDIRECT_MODE/production/_ext/17022449/plib_sercom4_spi_master.o
 .debug_str     0x00000282      0x12c build/LAN9255_SQI_INDIRECT_MODE/production/_ext/504274921/plib_sercom0_usart.o
 .debug_str     0x000003ae        0x9 build/LAN9255_SQI_INDIRECT_MODE/production/_ext/1827571544/plib_systick.o
 .debug_str     0x000003b7        0x0 build/LAN9255_SQI_INDIRECT_MODE/production/_ext/163028504/xc32_monitor.o
 .debug_str     0x000003b7        0xe build/LAN9255_SQI_INDIRECT_MODE/production/_ext/1171490990/exceptions.o
 .debug_str     0x000003c5       0xd9 build/LAN9255_SQI_INDIRECT_MODE/production/_ext/1171490990/initialization.o
 .debug_str     0x0000049e        0xe build/LAN9255_SQI_INDIRECT_MODE/production/_ext/1171490990/interrupts.o
 .debug_str     0x000004ac       0x79 build/LAN9255_SQI_INDIRECT_MODE/production/_ext/1171490990/startup_xc32.o
 .debug_str     0x00000525       0x18 build/LAN9255_SQI_INDIRECT_MODE/production/_ext/1171490990/tasks.o
 .debug_str     0x0000053d      0x16a build/LAN9255_SQI_INDIRECT_MODE/production/_ext/1671622016/Drivers.o
 .debug_str     0x000006a7       0x30 build/LAN9255_SQI_INDIRECT_MODE/production/_ext/108147519/ESC_Utils.o
 .debug_str     0x000006d7      0x122 build/LAN9255_SQI_INDIRECT_MODE/production/_ext/108147519/LAN925x.o
 .debug_str     0x000007f9        0xe build/LAN9255_SQI_INDIRECT_MODE/production/_ext/108134065/bootmode.o
 .debug_str     0x00000807       0x5f build/LAN9255_SQI_INDIRECT_MODE/production/_ext/108134065/coeappl.o
 .debug_str     0x00000866      0x1ac build/LAN9255_SQI_INDIRECT_MODE/production/_ext/108134065/ecatappl.o
 .debug_str     0x00000a12       0x64 build/LAN9255_SQI_INDIRECT_MODE/production/_ext/108134065/ecatcoe.o
 .debug_str     0x00000a76       0x7c build/LAN9255_SQI_INDIRECT_MODE/production/_ext/108134065/ecatfoe.o
 .debug_str     0x00000af2      0x263 build/LAN9255_SQI_INDIRECT_MODE/production/_ext/108134065/ecatslv.o
 .debug_str     0x00000d55       0x40 build/LAN9255_SQI_INDIRECT_MODE/production/_ext/108134065/emcy.o
 .debug_str     0x00000d95       0x31 build/LAN9255_SQI_INDIRECT_MODE/production/_ext/108134065/foeappl.o
 .debug_str     0x00000dc6      0x154 build/LAN9255_SQI_INDIRECT_MODE/production/_ext/108134065/mailbox.o
 .debug_str     0x00000f1a       0xbd build/LAN9255_SQI_INDIRECT_MODE/production/_ext/108134065/objdef.o
 .debug_str     0x00000fd7      0x179 build/LAN9255_SQI_INDIRECT_MODE/production/_ext/108134065/sample_app.o
 .debug_str     0x00001150      0x147 build/LAN9255_SQI_INDIRECT_MODE/production/_ext/108134065/sdoserv.o
 .debug_str     0x00001297       0x27 build/LAN9255_SQI_INDIRECT_MODE/production/_ext/1360937237/main.o
 .debug_str     0x000012be      0x204 build/LAN9255_SQI_INDIRECT_MODE/production/_ext/1360937237/app.o
 .debug_str     0x000014c2        0x0 c:/program files/microchip/xc32/v3.01/bin/bin/../../lib/gcc/pic32c/8.3.1/../../../../pic32c/lib/thumb/v7e-m+fp/hard\libpic32c.a(data_init.o)
 .debug_str     0x000014c2       0xee c:/program files/microchip/xc32/v3.01/bin/bin/../../lib/gcc/pic32c/8.3.1/thumb/v7e-m+fp/hard\libgcc.a(_aeabi_uldivmod.o)
 .debug_str     0x000015b0        0x0 c:/program files/microchip/xc32/v3.01/bin/bin/../../lib/gcc/pic32c/8.3.1/thumb/v7e-m+fp/hard\libgcc.a(_udivmoddi4.o)
 .debug_str     0x000015b0       0xf2 c:/program files/microchip/xc32/v3.01/bin/bin/../../lib/gcc/pic32c/8.3.1/thumb/v7e-m+fp/hard\libgcc.a(_dvmd_tls.o)
 .debug_str     0x000016a2        0x0 c:/program files/microchip/xc32/v3.01/bin/bin/../../lib/gcc/pic32c/8.3.1/../../../../pic32c/lib/thumb/v7e-m+fp/hard\libpic32c.a(_close.o)
 .debug_str     0x000016a2        0x0 c:/program files/microchip/xc32/v3.01/bin/bin/../../lib/gcc/pic32c/8.3.1/../../../../pic32c/lib/thumb/v7e-m+fp/hard\libpic32c.a(_fstat.o)
 .debug_str     0x000016a2        0x0 c:/program files/microchip/xc32/v3.01/bin/bin/../../lib/gcc/pic32c/8.3.1/../../../../pic32c/lib/thumb/v7e-m+fp/hard\libpic32c.a(_isatty.o)
 .debug_str     0x000016a2        0x0 c:/program files/microchip/xc32/v3.01/bin/bin/../../lib/gcc/pic32c/8.3.1/../../../../pic32c/lib/thumb/v7e-m+fp/hard\libpic32c.a(_lseek.o)
 .debug_str     0x000016a2        0x0 c:/program files/microchip/xc32/v3.01/bin/bin/../../lib/gcc/pic32c/8.3.1/../../../../pic32c/lib/thumb/v7e-m+fp/hard\libpic32c.a(_read.o)
 .debug_str     0x000016a2        0x0 c:/program files/microchip/xc32/v3.01/bin/bin/../../lib/gcc/pic32c/8.3.1/../../../../pic32c/lib/thumb/v7e-m+fp/hard\libpic32c.a(sbrk.o)
 .debug_str     0x000016a2        0x0 c:/program files/microchip/xc32/v3.01/bin/bin/../../lib/gcc/pic32c/8.3.1/../../../../pic32c/lib/thumb/v7e-m+fp/hard\libpic32c.a(_write.o)
 .debug_str     0x000016a2        0x0 c:/program files/microchip/xc32/v3.01/bin/bin/../../lib/gcc/pic32c/8.3.1/../../../../pic32c/lib/thumb/v7e-m+fp/hard\libpic32c.a(close.o)
 .debug_str     0x000016a2        0x0 c:/program files/microchip/xc32/v3.01/bin/bin/../../lib/gcc/pic32c/8.3.1/../../../../pic32c/lib/thumb/v7e-m+fp/hard\libpic32c.a(fstat.o)
 .debug_str     0x000016a2        0x0 c:/program files/microchip/xc32/v3.01/bin/bin/../../lib/gcc/pic32c/8.3.1/../../../../pic32c/lib/thumb/v7e-m+fp/hard\libpic32c.a(isatty.o)
 .debug_str     0x000016a2        0x0 c:/program files/microchip/xc32/v3.01/bin/bin/../../lib/gcc/pic32c/8.3.1/../../../../pic32c/lib/thumb/v7e-m+fp/hard\libpic32c.a(lseek.o)
 .debug_str     0x000016a2        0x0 c:/program files/microchip/xc32/v3.01/bin/bin/../../lib/gcc/pic32c/8.3.1/../../../../pic32c/lib/thumb/v7e-m+fp/hard\libpic32c.a(read.o)
 .debug_str     0x000016a2        0x0 c:/program files/microchip/xc32/v3.01/bin/bin/../../lib/gcc/pic32c/8.3.1/../../../../pic32c/lib/thumb/v7e-m+fp/hard\libpic32c.a(write.o)

.debug_frame    0x00000000     0x1fd0
 .debug_frame   0x00000000       0x20 build/LAN9255_SQI_INDIRECT_MODE/production/_ext/1984496892/plib_clock.o
 .debug_frame   0x00000020       0xa8 build/LAN9255_SQI_INDIRECT_MODE/production/_ext/60167341/plib_eic.o
 .debug_frame   0x000000c8       0x20 build/LAN9255_SQI_INDIRECT_MODE/production/_ext/1986646378/plib_evsys.o
 .debug_frame   0x000000e8       0x20 build/LAN9255_SQI_INDIRECT_MODE/production/_ext/1865468468/plib_nvic.o
 .debug_frame   0x00000108      0x170 build/LAN9255_SQI_INDIRECT_MODE/production/_ext/1593096446/plib_nvmctrl.o
 .debug_frame   0x00000278      0x19c build/LAN9255_SQI_INDIRECT_MODE/production/_ext/1865488526/oledc_driver.o
 .debug_frame   0x00000414       0xa0 build/LAN9255_SQI_INDIRECT_MODE/production/_ext/1865521619/plib_port.o
 .debug_frame   0x000004b4       0xd0 build/LAN9255_SQI_INDIRECT_MODE/production/_ext/1865555181/plib_qspi.o
 .debug_frame   0x00000584       0xcc build/LAN9255_SQI_INDIRECT_MODE/production/_ext/17022449/plib_sercom4_spi_master.o
 .debug_frame   0x00000650      0x188 build/LAN9255_SQI_INDIRECT_MODE/production/_ext/504274921/plib_sercom0_usart.o
 .debug_frame   0x000007d8       0xd4 build/LAN9255_SQI_INDIRECT_MODE/production/_ext/1827571544/plib_systick.o
 .debug_frame   0x000008ac       0x30 build/LAN9255_SQI_INDIRECT_MODE/production/_ext/163028504/xc32_monitor.o
 .debug_frame   0x000008dc       0x70 build/LAN9255_SQI_INDIRECT_MODE/production/_ext/1171490990/exceptions.o
 .debug_frame   0x0000094c       0x28 build/LAN9255_SQI_INDIRECT_MODE/production/_ext/1171490990/initialization.o
 .debug_frame   0x00000974       0x20 build/LAN9255_SQI_INDIRECT_MODE/production/_ext/1171490990/interrupts.o
 .debug_frame   0x00000994       0x28 build/LAN9255_SQI_INDIRECT_MODE/production/_ext/1171490990/startup_xc32.o
 .debug_frame   0x000009bc       0x28 build/LAN9255_SQI_INDIRECT_MODE/production/_ext/1171490990/tasks.o
 .debug_frame   0x000009e4      0x220 build/LAN9255_SQI_INDIRECT_MODE/production/_ext/1671622016/Drivers.o
 .debug_frame   0x00000c04       0x84 build/LAN9255_SQI_INDIRECT_MODE/production/_ext/108147519/ESC_Utils.o
 .debug_frame   0x00000c88      0x1d4 build/LAN9255_SQI_INDIRECT_MODE/production/_ext/108147519/LAN925x.o
 .debug_frame   0x00000e5c       0x50 build/LAN9255_SQI_INDIRECT_MODE/production/_ext/108134065/bootmode.o
 .debug_frame   0x00000eac      0x134 build/LAN9255_SQI_INDIRECT_MODE/production/_ext/108134065/coeappl.o
 .debug_frame   0x00000fe0      0x160 build/LAN9255_SQI_INDIRECT_MODE/production/_ext/108134065/ecatappl.o
 .debug_frame   0x00001140       0x54 build/LAN9255_SQI_INDIRECT_MODE/production/_ext/108134065/ecatcoe.o
 .debug_frame   0x00001194       0x54 build/LAN9255_SQI_INDIRECT_MODE/production/_ext/108134065/ecatfoe.o
 .debug_frame   0x000011e8      0x27c build/LAN9255_SQI_INDIRECT_MODE/production/_ext/108134065/ecatslv.o
 .debug_frame   0x00001464       0xc4 build/LAN9255_SQI_INDIRECT_MODE/production/_ext/108134065/emcy.o
 .debug_frame   0x00001528       0xb0 build/LAN9255_SQI_INDIRECT_MODE/production/_ext/108134065/foeappl.o
 .debug_frame   0x000015d8      0x180 build/LAN9255_SQI_INDIRECT_MODE/production/_ext/108134065/mailbox.o
 .debug_frame   0x00001758      0x18c build/LAN9255_SQI_INDIRECT_MODE/production/_ext/108134065/objdef.o
 .debug_frame   0x000018e4      0x280 build/LAN9255_SQI_INDIRECT_MODE/production/_ext/108134065/sample_app.o
 .debug_frame   0x00001b64       0xd4 build/LAN9255_SQI_INDIRECT_MODE/production/_ext/108134065/sdoserv.o
 .debug_frame   0x00001c38       0x28 build/LAN9255_SQI_INDIRECT_MODE/production/_ext/1360937237/main.o
 .debug_frame   0x00001c60      0x120 build/LAN9255_SQI_INDIRECT_MODE/production/_ext/1360937237/app.o
 .debug_frame   0x00001d80       0x38 c:/program files/microchip/xc32/v3.01/bin/bin/../../lib/gcc/pic32c/8.3.1/../../../../pic32c/lib/thumb/v7e-m+fp/hard\libpic32c.a(data_init.o)
 .debug_frame   0x00001db8       0x2c c:/program files/microchip/xc32/v3.01/bin/bin/../../lib/gcc/pic32c/8.3.1/thumb/v7e-m+fp/hard\libgcc.a(_aeabi_uldivmod.o)
 .debug_frame   0x00001de4       0x34 c:/program files/microchip/xc32/v3.01/bin/bin/../../lib/gcc/pic32c/8.3.1/thumb/v7e-m+fp/hard\libgcc.a(_udivmoddi4.o)
 .debug_frame   0x00001e18       0x20 c:/program files/microchip/xc32/v3.01/bin/bin/../../lib/gcc/pic32c/8.3.1/../../../../pic32c/lib/thumb/v7e-m+fp/hard\libpic32c.a(_close.o)
 .debug_frame   0x00001e38       0x20 c:/program files/microchip/xc32/v3.01/bin/bin/../../lib/gcc/pic32c/8.3.1/../../../../pic32c/lib/thumb/v7e-m+fp/hard\libpic32c.a(_fstat.o)
 .debug_frame   0x00001e58       0x20 c:/program files/microchip/xc32/v3.01/bin/bin/../../lib/gcc/pic32c/8.3.1/../../../../pic32c/lib/thumb/v7e-m+fp/hard\libpic32c.a(_isatty.o)
 .debug_frame   0x00001e78       0x20 c:/program files/microchip/xc32/v3.01/bin/bin/../../lib/gcc/pic32c/8.3.1/../../../../pic32c/lib/thumb/v7e-m+fp/hard\libpic32c.a(_lseek.o)
 .debug_frame   0x00001e98       0x20 c:/program files/microchip/xc32/v3.01/bin/bin/../../lib/gcc/pic32c/8.3.1/../../../../pic32c/lib/thumb/v7e-m+fp/hard\libpic32c.a(_read.o)
 .debug_frame   0x00001eb8       0x20 c:/program files/microchip/xc32/v3.01/bin/bin/../../lib/gcc/pic32c/8.3.1/../../../../pic32c/lib/thumb/v7e-m+fp/hard\libpic32c.a(sbrk.o)
 .debug_frame   0x00001ed8       0x20 c:/program files/microchip/xc32/v3.01/bin/bin/../../lib/gcc/pic32c/8.3.1/../../../../pic32c/lib/thumb/v7e-m+fp/hard\libpic32c.a(_write.o)
 .debug_frame   0x00001ef8       0x20 c:/program files/microchip/xc32/v3.01/bin/bin/../../lib/gcc/pic32c/8.3.1/../../../../pic32c/lib/thumb/v7e-m+fp/hard\libpic32c.a(close.o)
 .debug_frame   0x00001f18       0x20 c:/program files/microchip/xc32/v3.01/bin/bin/../../lib/gcc/pic32c/8.3.1/../../../../pic32c/lib/thumb/v7e-m+fp/hard\libpic32c.a(fstat.o)
 .debug_frame   0x00001f38       0x20 c:/program files/microchip/xc32/v3.01/bin/bin/../../lib/gcc/pic32c/8.3.1/../../../../pic32c/lib/thumb/v7e-m+fp/hard\libpic32c.a(isatty.o)
 .debug_frame   0x00001f58       0x20 c:/program files/microchip/xc32/v3.01/bin/bin/../../lib/gcc/pic32c/8.3.1/../../../../pic32c/lib/thumb/v7e-m+fp/hard\libpic32c.a(lseek.o)
 .debug_frame   0x00001f78       0x2c c:/program files/microchip/xc32/v3.01/bin/bin/../../lib/gcc/pic32c/8.3.1/../../../../pic32c/lib/thumb/v7e-m+fp/hard\libpic32c.a(read.o)
 .debug_frame   0x00001fa4       0x2c c:/program files/microchip/xc32/v3.01/bin/bin/../../lib/gcc/pic32c/8.3.1/../../../../pic32c/lib/thumb/v7e-m+fp/hard\libpic32c.a(write.o)

.debug_loc      0x00000000     0xe970
 .debug_loc     0x00000000       0xe2 build/LAN9255_SQI_INDIRECT_MODE/production/_ext/60167341/plib_eic.o
 .debug_loc     0x000000e2      0x39c build/LAN9255_SQI_INDIRECT_MODE/production/_ext/1865468468/plib_nvic.o
 .debug_loc     0x0000047e      0x4bf build/LAN9255_SQI_INDIRECT_MODE/production/_ext/1593096446/plib_nvmctrl.o
 .debug_loc     0x0000093d     0x1347 build/LAN9255_SQI_INDIRECT_MODE/production/_ext/1865488526/oledc_driver.o
 .debug_loc     0x00001c84       0x6f build/LAN9255_SQI_INDIRECT_MODE/production/_ext/1865521619/plib_port.o
 .debug_loc     0x00001cf3      0xa89 build/LAN9255_SQI_INDIRECT_MODE/production/_ext/1865555181/plib_qspi.o
 .debug_loc     0x0000277c      0x602 build/LAN9255_SQI_INDIRECT_MODE/production/_ext/17022449/plib_sercom4_spi_master.o
 .debug_loc     0x00002d7e      0x655 build/LAN9255_SQI_INDIRECT_MODE/production/_ext/504274921/plib_sercom0_usart.o
 .debug_loc     0x000033d3       0xd0 build/LAN9255_SQI_INDIRECT_MODE/production/_ext/1827571544/plib_systick.o
 .debug_loc     0x000034a3       0x25 build/LAN9255_SQI_INDIRECT_MODE/production/_ext/163028504/xc32_monitor.o
 .debug_loc     0x000034c8       0x45 build/LAN9255_SQI_INDIRECT_MODE/production/_ext/1171490990/initialization.o
 .debug_loc     0x0000350d       0x60 build/LAN9255_SQI_INDIRECT_MODE/production/_ext/1171490990/startup_xc32.o
 .debug_loc     0x0000356d       0x20 build/LAN9255_SQI_INDIRECT_MODE/production/_ext/1171490990/tasks.o
 .debug_loc     0x0000358d      0xb2f build/LAN9255_SQI_INDIRECT_MODE/production/_ext/1671622016/Drivers.o
 .debug_loc     0x000040bc      0x6df build/LAN9255_SQI_INDIRECT_MODE/production/_ext/108147519/ESC_Utils.o
 .debug_loc     0x0000479b      0xb24 build/LAN9255_SQI_INDIRECT_MODE/production/_ext/108147519/LAN925x.o
 .debug_loc     0x000052bf       0x25 build/LAN9255_SQI_INDIRECT_MODE/production/_ext/108134065/bootmode.o
 .debug_loc     0x000052e4      0x625 build/LAN9255_SQI_INDIRECT_MODE/production/_ext/108134065/coeappl.o
 .debug_loc     0x00005909      0x4dd build/LAN9255_SQI_INDIRECT_MODE/production/_ext/108134065/ecatappl.o
 .debug_loc     0x00005de6      0x18b build/LAN9255_SQI_INDIRECT_MODE/production/_ext/108134065/ecatcoe.o
 .debug_loc     0x00005f71      0x54c build/LAN9255_SQI_INDIRECT_MODE/production/_ext/108134065/ecatfoe.o
 .debug_loc     0x000064bd     0x188b build/LAN9255_SQI_INDIRECT_MODE/production/_ext/108134065/ecatslv.o
 .debug_loc     0x00007d48      0x291 build/LAN9255_SQI_INDIRECT_MODE/production/_ext/108134065/emcy.o
 .debug_loc     0x00007fd9      0x456 build/LAN9255_SQI_INDIRECT_MODE/production/_ext/108134065/foeappl.o
 .debug_loc     0x0000842f      0x8c1 build/LAN9255_SQI_INDIRECT_MODE/production/_ext/108134065/mailbox.o
 .debug_loc     0x00008cf0     0x235b build/LAN9255_SQI_INDIRECT_MODE/production/_ext/108134065/objdef.o
 .debug_loc     0x0000b04b      0xec5 build/LAN9255_SQI_INDIRECT_MODE/production/_ext/108134065/sample_app.o
 .debug_loc     0x0000bf10     0x1508 build/LAN9255_SQI_INDIRECT_MODE/production/_ext/108134065/sdoserv.o
 .debug_loc     0x0000d418       0x20 build/LAN9255_SQI_INDIRECT_MODE/production/_ext/1360937237/main.o
 .debug_loc     0x0000d438      0x4bb build/LAN9255_SQI_INDIRECT_MODE/production/_ext/1360937237/app.o
 .debug_loc     0x0000d8f3       0x14 c:/program files/microchip/xc32/v3.01/bin/bin/../../lib/gcc/pic32c/8.3.1/../../../../pic32c/lib/thumb/v7e-m+fp/hard\libpic32c.a(data_init.o)
 .debug_loc     0x0000d907     0x1041 c:/program files/microchip/xc32/v3.01/bin/bin/../../lib/gcc/pic32c/8.3.1/thumb/v7e-m+fp/hard\libgcc.a(_udivmoddi4.o)
 .debug_loc     0x0000e948       0x14 c:/program files/microchip/xc32/v3.01/bin/bin/../../lib/gcc/pic32c/8.3.1/../../../../pic32c/lib/thumb/v7e-m+fp/hard\libpic32c.a(read.o)
 .debug_loc     0x0000e95c       0x14 c:/program files/microchip/xc32/v3.01/bin/bin/../../lib/gcc/pic32c/8.3.1/../../../../pic32c/lib/thumb/v7e-m+fp/hard\libpic32c.a(write.o)

.stack          0x20003460      0x100
 .stack         0x20003460      0x100 stack

.data.GenObjDic%1
                0x20002440      0x1e0
 .data.GenObjDic
                0x20002440      0x1e0 build/LAN9255_SQI_INDIRECT_MODE/production/_ext/108134065/coeappl.o
                0x20002440                GenObjDic

.data.ApplicationObjDic%2
                0x20002620      0x1b8
 .data.ApplicationObjDic
                0x20002620      0x1b8 build/LAN9255_SQI_INDIRECT_MODE/production/_ext/108134065/coeappl.o
                0x20002620                ApplicationObjDic

.data.__global_locale%3
                0x200027d8      0x16c
 .data.__global_locale
                0x200027d8      0x16c c:/program files/microchip/xc32/v3.01/bin/bin/../../lib/gcc/pic32c/8.3.1/../../../../pic32c/lib/thumb/v7e-m+fp/hard\libc_nano.a(lib_a-locale.o)
                0x200027d8                __global_locale

.bss.gau8rx_data%4
                0x20002944       0x80
 .bss.gau8rx_data
                0x20002944       0x80 build/LAN9255_SQI_INDIRECT_MODE/production/_ext/1671622016/Drivers.o

.data.impure_data%5
                0x200029c4       0x60
 .data.impure_data
                0x200029c4       0x60 c:/program files/microchip/xc32/v3.01/bin/bin/../../lib/gcc/pic32c/8.3.1/../../../../pic32c/lib/thumb/v7e-m+fp/hard\libc_nano.a(lib_a-impure.o)

.data.gau8DummyCntArr%6
                0x20002a24       0x27
 .data.gau8DummyCntArr
                0x20002a24       0x27 build/LAN9255_SQI_INDIRECT_MODE/production/_ext/108147519/LAN925x.o
                0x20002a24                gau8DummyCntArr

.data.Configure_uartProcessDataMapping0x1600%7
                0x20002a4c       0x20
 .data.Configure_uartProcessDataMapping0x1600
                0x20002a4c       0x20 build/LAN9255_SQI_INDIRECT_MODE/production/_ext/108134065/sample_app.o
                0x20002a4c                Configure_uartProcessDataMapping0x1600

.bss.__sf_fake_stderr%8
                0x20002a6c       0x20
 .bss.__sf_fake_stderr
                0x20002a6c       0x20 c:/program files/microchip/xc32/v3.01/bin/bin/../../lib/gcc/pic32c/8.3.1/../../../../pic32c/lib/thumb/v7e-m+fp/hard\libc_nano.a(lib_a-findfp.o)
                0x20002a6c                __sf_fake_stderr

.bss.__sf_fake_stdin%9
                0x20002a8c       0x20
 .bss.__sf_fake_stdin
                0x20002a8c       0x20 c:/program files/microchip/xc32/v3.01/bin/bin/../../lib/gcc/pic32c/8.3.1/../../../../pic32c/lib/thumb/v7e-m+fp/hard\libc_nano.a(lib_a-findfp.o)
                0x20002a8c                __sf_fake_stdin

.bss.__sf_fake_stdout%10
                0x20002aac       0x20
 .bss.__sf_fake_stdout
                0x20002aac       0x20 c:/program files/microchip/xc32/v3.01/bin/bin/../../lib/gcc/pic32c/8.3.1/../../../../pic32c/lib/thumb/v7e-m+fp/hard\libc_nano.a(lib_a-findfp.o)
                0x20002aac                __sf_fake_stdout

.bss%11         0x20002acc       0x1c
 .bss           0x20002acc       0x1c c:/program files/microchip/xc32/v3.01/bin/bin/../../lib/gcc/pic32c/8.3.1/thumb/v7e-m+fp/hard/crtbegin.o

.data.acDevicename%12
                0x20002ae8       0x16
 .data.acDevicename
                0x20002ae8       0x16 build/LAN9255_SQI_INDIRECT_MODE/production/_ext/108134065/coeappl.o
                0x20002ae8                acDevicename

.data.sIdentity%13
                0x20002b00       0x14
 .data.sIdentity
                0x20002b00       0x14 build/LAN9255_SQI_INDIRECT_MODE/production/_ext/108134065/coeappl.o
                0x20002b00                sIdentity

.data.OutputsProcessDataMapping0x1601%14
                0x20002b14       0x14
 .data.OutputsProcessDataMapping0x1601
                0x20002b14       0x14 build/LAN9255_SQI_INDIRECT_MODE/production/_ext/108134065/sample_app.o
                0x20002b14                OutputsProcessDataMapping0x1601

.data.text2%15  0x20002b28       0x11
 .data.text2    0x20002b28       0x11 build/LAN9255_SQI_INDIRECT_MODE/production/_ext/1360937237/app.o
                0x20002b28                text2

.data.text3%16  0x20002b3c       0x11
 .data.text3    0x20002b3c       0x11 build/LAN9255_SQI_INDIRECT_MODE/production/_ext/1360937237/app.o
                0x20002b3c                text3

.data.aSubindexDesc%17
                0x20002b50        0xd
 .data.aSubindexDesc
                0x20002b50        0xd build/LAN9255_SQI_INDIRECT_MODE/production/_ext/108134065/objdef.o
                0x20002b50                aSubindexDesc

.data.sErrorSettings%18
                0x20002b60        0xc
 .data.sErrorSettings
                0x20002b60        0xc build/LAN9255_SQI_INDIRECT_MODE/production/_ext/108134065/objdef.o
                0x20002b60                sErrorSettings

.data.Configure_uart0x8000%19
                0x20002b6c        0xc
 .data.Configure_uart0x8000
                0x20002b6c        0xc build/LAN9255_SQI_INDIRECT_MODE/production/_ext/108134065/sample_app.o
                0x20002b6c                Configure_uart0x8000

.data.Inputs0x6000%20
                0x20002b78        0xc
 .data.Inputs0x6000
                0x20002b78        0xc build/LAN9255_SQI_INDIRECT_MODE/production/_ext/108134065/sample_app.o
                0x20002b78                Inputs0x6000

.data.InputsProcessDataMapping0x1A00%21
                0x20002b84        0xc
 .data.InputsProcessDataMapping0x1A00
                0x20002b84        0xc build/LAN9255_SQI_INDIRECT_MODE/production/_ext/108134065/sample_app.o
                0x20002b84                InputsProcessDataMapping0x1A00

.data.Outputs0x7010%22
                0x20002b90        0xc
 .data.Outputs0x7010
                0x20002b90        0xc build/LAN9255_SQI_INDIRECT_MODE/production/_ext/108134065/sample_app.o
                0x20002b90                Outputs0x7010

.bss.u64Timestamp%23
                0x20002ba0        0x8
 .bss.u64Timestamp
                0x20002ba0        0x8 build/LAN9255_SQI_INDIRECT_MODE/production/_ext/108134065/coeappl.o
                0x20002ba0                u64Timestamp

.data.Uart_status0x6021%24
                0x20002ba8        0x8
 .data.Uart_status0x6021
                0x20002ba8        0x8 build/LAN9255_SQI_INDIRECT_MODE/production/_ext/108134065/sample_app.o
                0x20002ba8                Uart_status0x6021

.data.Uart_statusProcessDataMapping0x1A02%25
                0x20002bb0        0x8
 .data.Uart_statusProcessDataMapping0x1A02
                0x20002bb0        0x8 build/LAN9255_SQI_INDIRECT_MODE/production/_ext/108134065/sample_app.o
                0x20002bb0                Uart_statusProcessDataMapping0x1A02

.data.uart_config%26
                0x20002bb8        0x8
 .data.uart_config
                0x20002bb8        0x8 build/LAN9255_SQI_INDIRECT_MODE/production/_ext/108134065/sample_app.o

.data.text1%27  0x20002bc0        0x7
 .data.text1    0x20002bc0        0x7 build/LAN9255_SQI_INDIRECT_MODE/production/_ext/1360937237/app.o
                0x20002bc0                text1

.data.sSyncmanagertype%28
                0x20002bc8        0x6
 .data.sSyncmanagertype
                0x20002bc8        0x6 build/LAN9255_SQI_INDIRECT_MODE/production/_ext/108134065/coeappl.o
                0x20002bc8                sSyncmanagertype

.data.sRxPDOassign%29
                0x20002bd0        0x6
 .data.sRxPDOassign
                0x20002bd0        0x6 build/LAN9255_SQI_INDIRECT_MODE/production/_ext/108134065/sample_app.o
                0x20002bd0                sRxPDOassign

.data.sTxPDOassign%30
                0x20002bd8        0x6
 .data.sTxPDOassign
                0x20002bd8        0x6 build/LAN9255_SQI_INDIRECT_MODE/production/_ext/108134065/sample_app.o
                0x20002bd8                sTxPDOassign

.bss._font%31   0x20002b9c        0x4
 .bss._font     0x20002b9c        0x4 build/LAN9255_SQI_INDIRECT_MODE/production/_ext/1865488526/oledc_driver.o

.bss.ObjDicList%32
                0x20002be0        0x4
 .bss.ObjDicList
                0x20002be0        0x4 build/LAN9255_SQI_INDIRECT_MODE/production/_ext/108134065/coeappl.o
                0x20002be0                ObjDicList

.data.acHardwareversion%33
                0x20002be4        0x4
 .data.acHardwareversion
                0x20002be4        0x4 build/LAN9255_SQI_INDIRECT_MODE/production/_ext/108134065/coeappl.o
                0x20002be4                acHardwareversion

.data.acSoftwareversion%34
                0x20002be8        0x4
 .data.acSoftwareversion
                0x20002be8        0x4 build/LAN9255_SQI_INDIRECT_MODE/production/_ext/108134065/coeappl.o
                0x20002be8                acSoftwareversion

.data.u32Devicetype%35
                0x20002bec        0x4
 .data.u32Devicetype
                0x20002bec        0x4 build/LAN9255_SQI_INDIRECT_MODE/production/_ext/108134065/coeappl.o
                0x20002bec                u32Devicetype

.bss.SMActivate%36
                0x20002bf0        0x4
 .bss.SMActivate
                0x20002bf0        0x4 build/LAN9255_SQI_INDIRECT_MODE/production/_ext/108134065/ecatslv.o
                0x20002bf0                SMActivate

.bss.gTriggerCounterValMeasure%37
                0x20002bf4        0x4
 .bss.gTriggerCounterValMeasure
                0x20002bf4        0x4 build/LAN9255_SQI_INDIRECT_MODE/production/_ext/108134065/sample_app.o
                0x20002bf4                gTriggerCounterValMeasure

.bss.nFileStartWriteAddress%38
                0x20002bf8        0x4
 .bss.nFileStartWriteAddress
                0x20002bf8        0x4 build/LAN9255_SQI_INDIRECT_MODE/production/_ext/108134065/sample_app.o
                0x20002bf8                nFileStartWriteAddress

.bss.nFileTotalLengthOffset%39
                0x20002bfc        0x4
 .bss.nFileTotalLengthOffset
                0x20002bfc        0x4 build/LAN9255_SQI_INDIRECT_MODE/production/_ext/108134065/sample_app.o
                0x20002bfc                nFileTotalLengthOffset

.bss.nFileWriteOffset%40
                0x20002c00        0x4
 .bss.nFileWriteOffset
                0x20002c00        0x4 build/LAN9255_SQI_INDIRECT_MODE/production/_ext/108134065/sample_app.o
                0x20002c00                nFileWriteOffset

.bss.u32FileSize%41
                0x20002c04        0x4
 .bss.u32FileSize
                0x20002c04        0x4 build/LAN9255_SQI_INDIRECT_MODE/production/_ext/108134065/sample_app.o
                0x20002c04                u32FileSize

.data.gFOETestFrameSize%42
                0x20002c08        0x4
 .data.gFOETestFrameSize
                0x20002c08        0x4 build/LAN9255_SQI_INDIRECT_MODE/production/_ext/108134065/sample_app.o
                0x20002c08                gFOETestFrameSize

.data.uart_rd_status%43
                0x20002c0c        0x4
 .data.uart_rd_status
                0x20002c0c        0x4 build/LAN9255_SQI_INDIRECT_MODE/production/_ext/108134065/sample_app.o
                0x20002c0c                uart_rd_status

.bss%44         0x20002c10        0x4
 .bss           0x20002c10        0x4 c:/program files/microchip/xc32/v3.01/bin/bin/../../lib/gcc/pic32c/8.3.1/../../../../pic32c/lib/thumb/v7e-m+fp/hard\libpic32c.a(data_init.o)

.bss.__malloc_free_list%45
                0x20002c14        0x4
 .bss.__malloc_free_list
                0x20002c14        0x4 c:/program files/microchip/xc32/v3.01/bin/bin/../../lib/gcc/pic32c/8.3.1/../../../../pic32c/lib/thumb/v7e-m+fp/hard\libc_nano.a(lib_a-nano-mallocr.o)
                0x20002c14                __malloc_free_list

.bss.__malloc_sbrk_start%46
                0x20002c18        0x4
 .bss.__malloc_sbrk_start
                0x20002c18        0x4 c:/program files/microchip/xc32/v3.01/bin/bin/../../lib/gcc/pic32c/8.3.1/../../../../pic32c/lib/thumb/v7e-m+fp/hard\libc_nano.a(lib_a-nano-mallocr.o)
                0x20002c18                __malloc_sbrk_start

.data._impure_ptr%47
                0x20002c1c        0x4
 .data._impure_ptr
                0x20002c1c        0x4 c:/program files/microchip/xc32/v3.01/bin/bin/../../lib/gcc/pic32c/8.3.1/../../../../pic32c/lib/thumb/v7e-m+fp/hard\libc_nano.a(lib_a-impure.o)
                0x20002c1c                _impure_ptr

.bss%48         0x20002c20        0x4
 .bss           0x20002c20        0x4 c:/program files/microchip/xc32/v3.01/bin/bin/../../lib/gcc/pic32c/8.3.1/../../../../pic32c/lib/thumb/v7e-m+fp/hard\libpic32c.a(sbrk.o)

.data.rows%49   0x20002c24        0x2
 .data.rows     0x20002c24        0x2 build/LAN9255_SQI_INDIRECT_MODE/production/_ext/1865488526/oledc_driver.o

.data.cols%50   0x20002c28        0x2
 .data.cols     0x20002c28        0x2 build/LAN9255_SQI_INDIRECT_MODE/production/_ext/1865488526/oledc_driver.o

.data._OLEDC_DEFAULT_VSL%51
                0x20002c2c        0x3
 .data._OLEDC_DEFAULT_VSL
                0x20002c2c        0x3 build/LAN9255_SQI_INDIRECT_MODE/production/_ext/1865488526/oledc_driver.o

.data._OLEDC_DEFAULT_CONTRAST%52
                0x20002c30        0x3
 .data._OLEDC_DEFAULT_CONTRAST
                0x20002c30        0x3 build/LAN9255_SQI_INDIRECT_MODE/production/_ext/1865488526/oledc_driver.o

.bss.nvm_error%53
                0x20002afe        0x2
 .bss.nvm_error
                0x20002afe        0x2 build/LAN9255_SQI_INDIRECT_MODE/production/_ext/1593096446/plib_nvmctrl.o

.bss._font_color%54
                0x20002bce        0x2
 .bss._font_color
                0x20002bce        0x2 build/LAN9255_SQI_INDIRECT_MODE/production/_ext/1865488526/oledc_driver.o

.bss._font_first_char%55
                0x20002bd6        0x2
 .bss._font_first_char
                0x20002bd6        0x2 build/LAN9255_SQI_INDIRECT_MODE/production/_ext/1865488526/oledc_driver.o

.bss._font_height%56
                0x20002bde        0x2
 .bss._font_height
                0x20002bde        0x2 build/LAN9255_SQI_INDIRECT_MODE/production/_ext/1865488526/oledc_driver.o

.bss._font_last_char%57
                0x20002c26        0x2
 .bss._font_last_char
                0x20002c26        0x2 build/LAN9255_SQI_INDIRECT_MODE/production/_ext/1865488526/oledc_driver.o

.bss.x_cord%58  0x20002c2a        0x2
 .bss.x_cord    0x20002c2a        0x2 build/LAN9255_SQI_INDIRECT_MODE/production/_ext/1865488526/oledc_driver.o

.bss.y_cord%59  0x20002b3a        0x2
 .bss.y_cord    0x20002b3a        0x2 build/LAN9255_SQI_INDIRECT_MODE/production/_ext/1865488526/oledc_driver.o

.bss.u16ErrorRegister%60
                0x20002b4e        0x2
 .bss.u16ErrorRegister
                0x20002b4e        0x2 build/LAN9255_SQI_INDIRECT_MODE/production/_ext/108134065/coeappl.o
                0x20002b4e                u16ErrorRegister

.bss._font_orientation%61
                0x20002a4b        0x1
 .bss._font_orientation
                0x20002a4b        0x1 build/LAN9255_SQI_INDIRECT_MODE/production/_ext/1865488526/oledc_driver.o

.data._OLEDC_DEFAULT_CMD_LOCK%62
                0x20002bc7        0x1
 .data._OLEDC_DEFAULT_CMD_LOCK
                0x20002bc7        0x1 build/LAN9255_SQI_INDIRECT_MODE/production/_ext/1865488526/oledc_driver.o

.data._OLEDC_DEFAULT_DIVSET%63
                0x20002c2f        0x1
 .data._OLEDC_DEFAULT_DIVSET
                0x20002c2f        0x1 build/LAN9255_SQI_INDIRECT_MODE/production/_ext/1865488526/oledc_driver.o

.data._OLEDC_DEFAULT_MASTER_CONT%64
                0x20002b39        0x1
 .data._OLEDC_DEFAULT_MASTER_CONT
                0x20002b39        0x1 build/LAN9255_SQI_INDIRECT_MODE/production/_ext/1865488526/oledc_driver.o

.data._OLEDC_DEFAULT_MUX_RATIO%65
                0x20002b4d        0x1
 .data._OLEDC_DEFAULT_MUX_RATIO
                0x20002b4d        0x1 build/LAN9255_SQI_INDIRECT_MODE/production/_ext/1865488526/oledc_driver.o

.data._OLEDC_DEFAULT_OFFSET%66
                0x20002b5d        0x1
 .data._OLEDC_DEFAULT_OFFSET
                0x20002b5d        0x1 build/LAN9255_SQI_INDIRECT_MODE/production/_ext/1865488526/oledc_driver.o

.data._OLEDC_DEFAULT_OLED_LOCK%67
                0x20002b5e        0x1
 .data._OLEDC_DEFAULT_OLED_LOCK
                0x20002b5e        0x1 build/LAN9255_SQI_INDIRECT_MODE/production/_ext/1865488526/oledc_driver.o

.data._OLEDC_DEFAULT_PRECHARGE%68
                0x20002b5f        0x1
 .data._OLEDC_DEFAULT_PRECHARGE
                0x20002b5f        0x1 build/LAN9255_SQI_INDIRECT_MODE/production/_ext/1865488526/oledc_driver.o

.data._OLEDC_DEFAULT_PRECHARGE_2%69
                0x20002c33        0x1
 .data._OLEDC_DEFAULT_PRECHARGE_2
                0x20002c33        0x1 build/LAN9255_SQI_INDIRECT_MODE/production/_ext/1865488526/oledc_driver.o

.data._OLEDC_DEFAULT_REMAP%70
                0x20002c34        0x1
 .data._OLEDC_DEFAULT_REMAP
                0x20002c34        0x1 build/LAN9255_SQI_INDIRECT_MODE/production/_ext/1865488526/oledc_driver.o

.data._OLEDC_DEFAULT_START_LINE%71
                0x20002c35        0x1
 .data._OLEDC_DEFAULT_START_LINE
                0x20002c35        0x1 build/LAN9255_SQI_INDIRECT_MODE/production/_ext/1865488526/oledc_driver.o

.data._OLEDC_DEFAULT_VCOMH%72
                0x20002c36        0x1
 .data._OLEDC_DEFAULT_VCOMH
                0x20002c36        0x1 build/LAN9255_SQI_INDIRECT_MODE/production/_ext/1865488526/oledc_driver.o

.bss.isLastByteTransferInProgress.8353%73
                0x20002c37        0x1
 .bss.isLastByteTransferInProgress.8353
                0x20002c37        0x1 build/LAN9255_SQI_INDIRECT_MODE/production/_ext/17022449/plib_sercom4_spi_master.o

.bss.gbALEvtOpEnabled%74
                0x20002c38        0x1
 .bss.gbALEvtOpEnabled
                0x20002c38        0x1 build/LAN9255_SQI_INDIRECT_MODE/production/_ext/108147519/LAN925x.o
                0x20002c38                gbALEvtOpEnabled

.bss.bInitFinished%75
                0x20002c39        0x1
 .bss.bInitFinished
                0x20002c39        0x1 build/LAN9255_SQI_INDIRECT_MODE/production/_ext/108134065/ecatappl.o
                0x20002c39                bInitFinished

.bss.EepromLoaded%76
                0x20002c3a        0x1
 .bss.EepromLoaded
                0x20002c3a        0x1 build/LAN9255_SQI_INDIRECT_MODE/production/_ext/108134065/ecatslv.o
                0x20002c3a                EepromLoaded

.bss.gFirmwareDownload_Finished%77
                0x20002c3b        0x1
 .bss.gFirmwareDownload_Finished
                0x20002c3b        0x1 build/LAN9255_SQI_INDIRECT_MODE/production/_ext/108134065/sample_app.o
                0x20002c3b                gFirmwareDownload_Finished

.bss.gFirmwareDownload_Started%78
                0x20002c3c        0x1
 .bss.gFirmwareDownload_Started
                0x20002c3c        0x1 build/LAN9255_SQI_INDIRECT_MODE/production/_ext/108134065/sample_app.o
                0x20002c3c                gFirmwareDownload_Started

.bss.bSdoInWork%79
                0x20002c3d        0x1
 .bss.bSdoInWork
                0x20002c3d        0x1 build/LAN9255_SQI_INDIRECT_MODE/production/_ext/108134065/sdoserv.o
                0x20002c3d                bSdoInWork

.bss.gsu8oledflag%80
                0x20002c3e        0x1
 .bss.gsu8oledflag
                0x20002c3e        0x1 build/LAN9255_SQI_INDIRECT_MODE/production/_ext/1360937237/app.o

.data.spi_sync%81
                0x20002c3f        0x1
 .data.spi_sync
                0x20002c3f        0x1 build/LAN9255_SQI_INDIRECT_MODE/production/_ext/1360937237/app.o
                0x20002c3f                spi_sync

.eh_frame%z1    0x00000000        0x0
 .eh_frame      0x00000000        0x0 c:/program files/microchip/xc32/v3.01/bin/bin/../../lib/gcc/pic32c/8.3.1/thumb/v7e-m+fp/hard/crtbegin.o

.config_00804000%82
                0x00804000        0x4
 .config_00804000
                0x00804000        0x4 build/LAN9255_SQI_INDIRECT_MODE/production/_ext/1171490990/initialization.o
                0x00804000                __config_00804000

.config_00804004%83
                0x00804004        0x4
 .config_00804004
                0x00804004        0x4 build/LAN9255_SQI_INDIRECT_MODE/production/_ext/1171490990/initialization.o
                0x00804004                __config_00804004

.config_00804008%84
                0x00804008        0x4
 .config_00804008
                0x00804008        0x4 build/LAN9255_SQI_INDIRECT_MODE/production/_ext/1171490990/initialization.o
                0x00804008                __config_00804008

.dinit%85       0x00000288      0xb90
 .dinit         0x00000288      0xb90 data_init

.text.SDOS_SdoInd%86
                0x00000e18      0x7f4
 .text.SDOS_SdoInd
                0x00000e18      0x7f4 build/LAN9255_SQI_INDIRECT_MODE/production/_ext/108134065/sdoserv.o
                0x00000e18                SDOS_SdoInd

.rodata.guiFont_Tahoma_8_Regular%87
                0x0000160c      0x690
 .rodata.guiFont_Tahoma_8_Regular
                0x0000160c      0x690 build/LAN9255_SQI_INDIRECT_MODE/production/_ext/1360937237/app.o
                0x0000160c                guiFont_Tahoma_8_Regular

.text.StartInputHandler%88
                0x00001c9c      0x658
 .text.StartInputHandler
                0x00001c9c      0x658 build/LAN9255_SQI_INDIRECT_MODE/production/_ext/108134065/ecatslv.o
                0x00001c9c                StartInputHandler

.text.AL_ControlInd%89
                0x000022f4      0x618
 .text.AL_ControlInd
                0x000022f4      0x618 build/LAN9255_SQI_INDIRECT_MODE/production/_ext/108134065/ecatslv.o
                0x000022f4                AL_ControlInd

.text.OBJ_Write%90
                0x0000290c      0x528
 .text.OBJ_Write
                0x0000290c      0x528 build/LAN9255_SQI_INDIRECT_MODE/production/_ext/108134065/objdef.o
                0x0000290c                OBJ_Write

.text.OBJ_Read%91
                0x00002e34      0x474
 .text.OBJ_Read
                0x00002e34      0x474 build/LAN9255_SQI_INDIRECT_MODE/production/_ext/108134065/objdef.o
                0x00002e34                OBJ_Read

.text._vfprintf_r_cdnopuxX%92
                0x000032a8      0x384
 .text._vfprintf_r_cdnopuxX
                0x000032a8      0x384 c:/program files/microchip/xc32/v3.01/bin/bin/../../lib/gcc/pic32c/8.3.1/../../../../pic32c/lib/thumb/v7e-m+fp/hard\libc_nano.a(_lib_a-nano-vfprintf.cdnopuxX.o)
                0x000032a8                _vfprintf_r_cdnopuxX

.text.FOE_ServiceInd%93
                0x0000362c      0x2ec
 .text.FOE_ServiceInd
                0x0000362c      0x2ec build/LAN9255_SQI_INDIRECT_MODE/production/_ext/108134065/ecatfoe.o
                0x0000362c                FOE_ServiceInd

.text%94        0x00003918      0x2d0
 .text          0x00003918      0x2d0 c:/program files/microchip/xc32/v3.01/bin/bin/../../lib/gcc/pic32c/8.3.1/thumb/v7e-m+fp/hard\libgcc.a(_udivmoddi4.o)
                0x00003918                __udivmoddi4

.text.SDOS_SdoInfoInd%95
                0x00003be8      0x2bc
 .text.SDOS_SdoInfoInd
                0x00003be8      0x2bc build/LAN9255_SQI_INDIRECT_MODE/production/_ext/108134065/sdoserv.o
                0x00003be8                SDOS_SdoInfoInd

.text.AL_ControlRes%96
                0x00003ea4      0x244
 .text.AL_ControlRes
                0x00003ea4      0x244 build/LAN9255_SQI_INDIRECT_MODE/production/_ext/108134065/ecatslv.o
                0x00003ea4                AL_ControlRes

.text.APP_Tasks%97
                0x000040e8      0x200
 .text.APP_Tasks
                0x000040e8      0x200 build/LAN9255_SQI_INDIRECT_MODE/production/_ext/1360937237/app.o
                0x000040e8                APP_Tasks

.text.EEPROM_CommandHandler%98
                0x000042e8      0x1f4
 .text.EEPROM_CommandHandler
                0x000042e8      0x1f4 build/LAN9255_SQI_INDIRECT_MODE/production/_ext/108134065/ecatappl.o
                0x000042e8                EEPROM_CommandHandler

.text.CheckSmSettings%99
                0x000044dc      0x1ec
 .text.CheckSmSettings
                0x000044dc      0x1ec build/LAN9255_SQI_INDIRECT_MODE/production/_ext/108134065/ecatslv.o
                0x000044dc                CheckSmSettings

.text.oledc_text%100
                0x000046c8      0x1ac
 .text.oledc_text
                0x000046c8      0x1ac build/LAN9255_SQI_INDIRECT_MODE/production/_ext/1865488526/oledc_driver.o
                0x000046c8                oledc_text

.text.SERCOM4_SPI_InterruptHandler%101
                0x00004874      0x190
 .text.SERCOM4_SPI_InterruptHandler
                0x00004874      0x190 build/LAN9255_SQI_INDIRECT_MODE/production/_ext/17022449/plib_sercom4_spi_master.o
                0x00004874                SERCOM4_SPI_InterruptHandler

.text.SERCOM0_USART_SerialSetup%102
                0x00004a04      0x158
 .text.SERCOM0_USART_SerialSetup
                0x00004a04      0x158 build/LAN9255_SQI_INDIRECT_MODE/production/_ext/504274921/plib_sercom0_usart.o
                0x00004a04                SERCOM0_USART_SerialSetup

.text.ECAT_Main%103
                0x00004b5c      0x154
 .text.ECAT_Main
                0x00004b5c      0x154 build/LAN9255_SQI_INDIRECT_MODE/production/_ext/108134065/ecatslv.o
                0x00004b5c                ECAT_Main

.text.SERCOM4_SPI_WriteRead%104
                0x00004cb0      0x140
 .text.SERCOM4_SPI_WriteRead
                0x00004cb0      0x140 build/LAN9255_SQI_INDIRECT_MODE/production/_ext/17022449/plib_sercom4_spi_master.o
                0x00004cb0                SERCOM4_SPI_WriteRead

.text.CheckSyncTypeValue%105
                0x00004df0      0x138
 .text.CheckSyncTypeValue
                0x00004df0      0x138 build/LAN9255_SQI_INDIRECT_MODE/production/_ext/108134065/objdef.o
                0x00004df0                CheckSyncTypeValue

.text.ECAT_Init%106
                0x00004f28      0x124
 .text.ECAT_Init
                0x00004f28      0x124 build/LAN9255_SQI_INDIRECT_MODE/production/_ext/108134065/ecatslv.o
                0x00004f28                ECAT_Init

.text.CLOCK_Initialize%107
                0x0000504c      0x120
 .text.CLOCK_Initialize
                0x0000504c      0x120 build/LAN9255_SQI_INDIRECT_MODE/production/_ext/1984496892/plib_clock.o
                0x0000504c                CLOCK_Initialize

.text.FoE_WriteData%108
                0x0000516c      0x120
 .text.FoE_WriteData
                0x0000516c      0x120 build/LAN9255_SQI_INDIRECT_MODE/production/_ext/108134065/sample_app.o
                0x0000516c                FoE_WriteData

.text.MBX_StopMailboxHandler%109
                0x0000528c      0x118
 .text.MBX_StopMailboxHandler
                0x0000528c      0x118 build/LAN9255_SQI_INDIRECT_MODE/production/_ext/108134065/mailbox.o
                0x0000528c                MBX_StopMailboxHandler

.text.SetALStatus%110
                0x000053a4      0x114
 .text.SetALStatus
                0x000053a4      0x114 build/LAN9255_SQI_INDIRECT_MODE/production/_ext/108134065/ecatslv.o
                0x000053a4                SetALStatus

.text.PDI_Isr%111
                0x000054b8      0x110
 .text.PDI_Isr  0x000054b8      0x110 build/LAN9255_SQI_INDIRECT_MODE/production/_ext/108134065/ecatappl.o
                0x000054b8                PDI_Isr

.text.APPL_GenerateMapping%112
                0x000055c8      0x110
 .text.APPL_GenerateMapping
                0x000055c8      0x110 build/LAN9255_SQI_INDIRECT_MODE/production/_ext/108134065/sample_app.o
                0x000055c8                APPL_GenerateMapping

.text.__sflush_r%113
                0x000056d8      0x10c
 .text.__sflush_r
                0x000056d8      0x10c c:/program files/microchip/xc32/v3.01/bin/bin/../../lib/gcc/pic32c/8.3.1/../../../../pic32c/lib/thumb/v7e-m+fp/hard\libc_nano.a(lib_a-fflush.o)
                0x000056d8                __sflush_r

.text.Sync0_Isr%114
                0x000057e4      0x108
 .text.Sync0_Isr
                0x000057e4      0x108 build/LAN9255_SQI_INDIRECT_MODE/production/_ext/108134065/ecatappl.o
                0x000057e4                Sync0_Isr

.rodata._ctype_%115
                0x000058ec      0x101
 .rodata._ctype_
                0x000058ec      0x101 c:/program files/microchip/xc32/v3.01/bin/bin/../../lib/gcc/pic32c/8.3.1/../../../../pic32c/lib/thumb/v7e-m+fp/hard\libc_nano.a(lib_a-ctype_.o)
                0x000058ec                _ctype_

.rodata.aName0x1C32%116
                0x000059f0      0x100
 .rodata.aName0x1C32
                0x000059f0      0x100 build/LAN9255_SQI_INDIRECT_MODE/production/_ext/108134065/coeappl.o
                0x000059f0                aName0x1C32

.rodata.aName0x1C33%117
                0x00005af0      0x100
 .rodata.aName0x1C33
                0x00005af0      0x100 build/LAN9255_SQI_INDIRECT_MODE/production/_ext/108134065/coeappl.o
                0x00005af0                aName0x1C33

.text.MainInit%118
                0x00005bf0      0x100
 .text.MainInit
                0x00005bf0      0x100 build/LAN9255_SQI_INDIRECT_MODE/production/_ext/108134065/ecatappl.o
                0x00005bf0                MainInit

.text.MBX_CheckAndCopyMailbox%119
                0x00005cf0      0x100
 .text.MBX_CheckAndCopyMailbox
                0x00005cf0      0x100 build/LAN9255_SQI_INDIRECT_MODE/production/_ext/108134065/mailbox.o
                0x00005cf0                MBX_CheckAndCopyMailbox

.text.SendSmFailedEmergency%120
                0x00005df0       0xf8
 .text.SendSmFailedEmergency
                0x00005df0       0xf8 build/LAN9255_SQI_INDIRECT_MODE/production/_ext/108134065/ecatslv.o
                0x00005df0                SendSmFailedEmergency

.text.box_area%121
                0x00005ee8       0xf4
 .text.box_area
                0x00005ee8       0xf4 build/LAN9255_SQI_INDIRECT_MODE/production/_ext/1865488526/oledc_driver.o
                0x00005ee8                box_area

.text.SdoRes%122
                0x00005fdc       0xf4
 .text.SdoRes   0x00005fdc       0xf4 build/LAN9255_SQI_INDIRECT_MODE/production/_ext/108134065/sdoserv.o
                0x00005fdc                SdoRes

.text.oledc_init%123
                0x000060d0       0xf0
 .text.oledc_init
                0x000060d0       0xf0 build/LAN9255_SQI_INDIRECT_MODE/production/_ext/1865488526/oledc_driver.o
                0x000060d0                oledc_init

.text.GetDummyBytesRequired%124
                0x000061c0       0xee
 .text.GetDummyBytesRequired
                0x000061c0       0xee build/LAN9255_SQI_INDIRECT_MODE/production/_ext/108147519/ESC_Utils.o
                0x000061c0                GetDummyBytesRequired

.text.SERCOM0_USART_InterruptHandler%125
                0x000062b0       0xec
 .text.SERCOM0_USART_InterruptHandler
                0x000062b0       0xec build/LAN9255_SQI_INDIRECT_MODE/production/_ext/504274921/plib_sercom0_usart.o
                0x000062b0                SERCOM0_USART_InterruptHandler

.text.COE_ObjInit%126
                0x0000639c       0xec
 .text.COE_ObjInit
                0x0000639c       0xec build/LAN9255_SQI_INDIRECT_MODE/production/_ext/108134065/coeappl.o
                0x0000639c                COE_ObjInit

.text._printf_common%127
                0x00006488       0xea
 .text._printf_common
                0x00006488       0xea c:/program files/microchip/xc32/v3.01/bin/bin/../../lib/gcc/pic32c/8.3.1/../../../../pic32c/lib/thumb/v7e-m+fp/hard\libc_nano.a(lib_a-nano-vfprintf_i.o)
                0x00006488                _printf_common

.text.OBJ_GetDesc%128
                0x00006574       0xe8
 .text.OBJ_GetDesc
                0x00006574       0xe8 build/LAN9255_SQI_INDIRECT_MODE/production/_ext/108134065/objdef.o
                0x00006574                OBJ_GetDesc

.text.SDOS_SdoRes%129
                0x0000665c       0xe0
 .text.SDOS_SdoRes
                0x0000665c       0xe0 build/LAN9255_SQI_INDIRECT_MODE/production/_ext/108134065/sdoserv.o
                0x0000665c                SDOS_SdoRes

.text.StopInputHandler%130
                0x0000673c       0xdc
 .text.StopInputHandler
                0x0000673c       0xdc build/LAN9255_SQI_INDIRECT_MODE/production/_ext/108134065/ecatslv.o
                0x0000673c                StopInputHandler

.text.__swsetup_r%131
                0x00006818       0xdc
 .text.__swsetup_r
                0x00006818       0xdc c:/program files/microchip/xc32/v3.01/bin/bin/../../lib/gcc/pic32c/8.3.1/../../../../pic32c/lib/thumb/v7e-m+fp/hard\libc_nano.a(lib_a-wsetup.o)
                0x00006818                __swsetup_r

.text.HW_EscRead%132
                0x000068f4       0xd8
 .text.HW_EscRead
                0x000068f4       0xd8 build/LAN9255_SQI_INDIRECT_MODE/production/_ext/108147519/LAN925x.o
                0x000068f4                HW_EscRead

.text.MainLoop%133
                0x000069cc       0xd0
 .text.MainLoop
                0x000069cc       0xd0 build/LAN9255_SQI_INDIRECT_MODE/production/_ext/108134065/ecatappl.o
                0x000069cc                MainLoop

.text.DC_CheckWatchdog%134
                0x00006a9c       0xd0
 .text.DC_CheckWatchdog
                0x00006a9c       0xd0 build/LAN9255_SQI_INDIRECT_MODE/production/_ext/108134065/ecatslv.o
                0x00006a9c                DC_CheckWatchdog

.text.MBX_CopyToSendMailbox%135
                0x00006b6c       0xd0
 .text.MBX_CopyToSendMailbox
                0x00006b6c       0xd0 build/LAN9255_SQI_INDIRECT_MODE/production/_ext/108134065/mailbox.o
                0x00006b6c                MBX_CopyToSendMailbox

.text.MBX_Init%136
                0x00006c3c       0xcc
 .text.MBX_Init
                0x00006c3c       0xcc build/LAN9255_SQI_INDIRECT_MODE/production/_ext/108134065/mailbox.o
                0x00006c3c                MBX_Init

.text.OBJ_GetEntryOffset%137
                0x00006d08       0xcc
 .text.OBJ_GetEntryOffset
                0x00006d08       0xcc build/LAN9255_SQI_INDIRECT_MODE/production/_ext/108134065/objdef.o
                0x00006d08                OBJ_GetEntryOffset

.text.EscRead%138
                0x00006dd4       0xc8
 .text.EscRead  0x00006dd4       0xc8 build/LAN9255_SQI_INDIRECT_MODE/production/_ext/108147519/LAN925x.o
                0x00006dd4                EscRead

.rodata.asEntryDesc0x1C3x%139
                0x00006e9c       0xc8
 .rodata.asEntryDesc0x1C3x
                0x00006e9c       0xc8 build/LAN9255_SQI_INDIRECT_MODE/production/_ext/108134065/coeappl.o
                0x00006e9c                asEntryDesc0x1C3x

.text.MBX_MailboxReadInd%140
                0x00006f64       0xc8
 .text.MBX_MailboxReadInd
                0x00006f64       0xc8 build/LAN9255_SQI_INDIRECT_MODE/production/_ext/108134065/mailbox.o
                0x00006f64                MBX_MailboxReadInd

.text.APPL_UpdateUARTConfig%141
                0x0000702c       0xc8
 .text.APPL_UpdateUARTConfig
                0x0000702c       0xc8 build/LAN9255_SQI_INDIRECT_MODE/production/_ext/108134065/sample_app.o
                0x0000702c                APPL_UpdateUARTConfig

.text.__swbuf_r%142
                0x000070f4       0xbc
 .text.__swbuf_r
                0x000070f4       0xbc c:/program files/microchip/xc32/v3.01/bin/bin/../../lib/gcc/pic32c/8.3.1/../../../../pic32c/lib/thumb/v7e-m+fp/hard\libc_nano.a(lib_a-wbuf.o)
                0x000070f4                __swbuf_r

.text._malloc_r%143
                0x000071b0       0xb4
 .text._malloc_r
                0x000071b0       0xb4 c:/program files/microchip/xc32/v3.01/bin/bin/../../lib/gcc/pic32c/8.3.1/../../../../pic32c/lib/thumb/v7e-m+fp/hard\libc_nano.a(lib_a-nano-mallocr.o)
                0x000071b0                _malloc_r

.text.ECAT_CheckTimer%144
                0x00007264       0xb0
 .text.ECAT_CheckTimer
                0x00007264       0xb0 build/LAN9255_SQI_INDIRECT_MODE/production/_ext/108134065/ecatappl.o
                0x00007264                ECAT_CheckTimer

.text.MBX_StartMailboxHandler%145
                0x00007314       0xb0
 .text.MBX_StartMailboxHandler
                0x00007314       0xb0 build/LAN9255_SQI_INDIRECT_MODE/production/_ext/108134065/mailbox.o
                0x00007314                MBX_StartMailboxHandler

.text.pixel%146
                0x000073c4       0xac
 .text.pixel    0x000073c4       0xac build/LAN9255_SQI_INDIRECT_MODE/production/_ext/1865488526/oledc_driver.o

.text.HW_EscWrite%147
                0x00007470       0xaa
 .text.HW_EscWrite
                0x00007470       0xaa build/LAN9255_SQI_INDIRECT_MODE/production/_ext/108147519/LAN925x.o
                0x00007470                HW_EscWrite

.text.COE_Main%148
                0x0000751c       0xa8
 .text.COE_Main
                0x0000751c       0xa8 build/LAN9255_SQI_INDIRECT_MODE/production/_ext/108134065/coeappl.o
                0x0000751c                COE_Main

.text.OBJ_GetObjectList%149
                0x000075c4       0xa8
 .text.OBJ_GetObjectList
                0x000075c4       0xa8 build/LAN9255_SQI_INDIRECT_MODE/production/_ext/108134065/objdef.o
                0x000075c4                OBJ_GetObjectList

.text.APPL_Application%150
                0x0000766c       0xa8
 .text.APPL_Application
                0x0000766c       0xa8 build/LAN9255_SQI_INDIRECT_MODE/production/_ext/108134065/sample_app.o
                0x0000766c                APPL_Application

.text.LAN925x_Init%151
                0x00007714       0xa4
 .text.LAN925x_Init
                0x00007714       0xa4 build/LAN9255_SQI_INDIRECT_MODE/production/_ext/108147519/LAN925x.o
                0x00007714                LAN925x_Init

.text.SODS_ClearPendingResponse%152
                0x000077b8       0xa4
 .text.SODS_ClearPendingResponse
                0x000077b8       0xa4 build/LAN9255_SQI_INDIRECT_MODE/production/_ext/108134065/sdoserv.o
                0x000077b8                SODS_ClearPendingResponse

.text.EscWrite%153
                0x0000785c       0xa2
 .text.EscWrite
                0x0000785c       0xa2 build/LAN9255_SQI_INDIRECT_MODE/production/_ext/108147519/LAN925x.o
                0x0000785c                EscWrite

.text.NVIC_Initialize%154
                0x00007900       0xa0
 .text.NVIC_Initialize
                0x00007900       0xa0 build/LAN9255_SQI_INDIRECT_MODE/production/_ext/1865468468/plib_nvic.o
                0x00007900                NVIC_Initialize

.text%155       0x000079a0       0xa0
 .text          0x000079a0       0xa0 c:/program files/microchip/xc32/v3.01/bin/bin/../../lib/gcc/pic32c/8.3.1/../../../../pic32c/lib/thumb/v7e-m+fp/hard\libc_nano.a(lib_a-memchr.o)
                0x000079a0                memchr

.text.applicationTask%156
                0x00007a40       0x9c
 .text.applicationTask
                0x00007a40       0x9c build/LAN9255_SQI_INDIRECT_MODE/production/_ext/1360937237/app.o
                0x00007a40                applicationTask

.text._free_r%157
                0x00007adc       0x9c
 .text._free_r  0x00007adc       0x9c c:/program files/microchip/xc32/v3.01/bin/bin/../../lib/gcc/pic32c/8.3.1/../../../../pic32c/lib/thumb/v7e-m+fp/hard\libc_nano.a(lib_a-nano-freer.o)
                0x00007adc                _free_r

.text.Reset_Handler%158
                0x00007b78       0x98
 .text.Reset_Handler
                0x00007b78       0x98 build/LAN9255_SQI_INDIRECT_MODE/production/_ext/1171490990/startup_xc32.o
                0x00007b78                Reset_Handler

.text.OBJ_GetObjectLength%159
                0x00007c10       0x94
 .text.OBJ_GetObjectLength
                0x00007c10       0x94 build/LAN9255_SQI_INDIRECT_MODE/production/_ext/108134065/objdef.o
                0x00007c10                OBJ_GetObjectLength

.text.LAN9252SQI_Read%160
                0x00007ca4       0x90
 .text.LAN9252SQI_Read
                0x00007ca4       0x90 build/LAN9255_SQI_INDIRECT_MODE/production/_ext/1671622016/Drivers.o
                0x00007ca4                LAN9252SQI_Read

.text.MBX_MailboxSendReq%161
                0x00007d34       0x90
 .text.MBX_MailboxSendReq
                0x00007d34       0x90 build/LAN9255_SQI_INDIRECT_MODE/production/_ext/108134065/mailbox.o
                0x00007d34                MBX_MailboxSendReq

.text.LAN9252SQI_ReadPDRAM%162
                0x00007dc4       0x8e
 .text.LAN9252SQI_ReadPDRAM
                0x00007dc4       0x8e build/LAN9255_SQI_INDIRECT_MODE/production/_ext/1671622016/Drivers.o
                0x00007dc4                LAN9252SQI_ReadPDRAM

.text.PDO_OutputMapping%163
                0x00007e54       0x8c
 .text.PDO_OutputMapping
                0x00007e54       0x8c build/LAN9255_SQI_INDIRECT_MODE/production/_ext/108134065/ecatappl.o
                0x00007e54                PDO_OutputMapping

.text.__smakebuf_r%164
                0x00007ee0       0x8c
 .text.__smakebuf_r
                0x00007ee0       0x8c c:/program files/microchip/xc32/v3.01/bin/bin/../../lib/gcc/pic32c/8.3.1/../../../../pic32c/lib/thumb/v7e-m+fp/hard\libc_nano.a(lib_a-makebuf.o)
                0x00007ee0                __smakebuf_r

.text.FoE_Read%165
                0x00007f6c       0x88
 .text.FoE_Read
                0x00007f6c       0x88 build/LAN9255_SQI_INDIRECT_MODE/production/_ext/108134065/sample_app.o
                0x00007f6c                FoE_Read

.text.__pic32c_data_initialization%166
                0x00007ff4       0x88
 .text.__pic32c_data_initialization
                0x00007ff4       0x88 c:/program files/microchip/xc32/v3.01/bin/bin/../../lib/gcc/pic32c/8.3.1/../../../../pic32c/lib/thumb/v7e-m+fp/hard\libpic32c.a(data_init.o)
                0x00007ff4                __pic32c_data_initialization

.text.EIC_Initialize%167
                0x0000807c       0x84
 .text.EIC_Initialize
                0x0000807c       0x84 build/LAN9255_SQI_INDIRECT_MODE/production/_ext/60167341/plib_eic.o
                0x0000807c                EIC_Initialize

.text.PORT_Initialize%168
                0x00008100       0x84
 .text.PORT_Initialize
                0x00008100       0x84 build/LAN9255_SQI_INDIRECT_MODE/production/_ext/1865521619/plib_port.o
                0x00008100                PORT_Initialize

.text.QSPI_MemoryWrite%169
                0x00008184       0x84
 .text.QSPI_MemoryWrite
                0x00008184       0x84 build/LAN9255_SQI_INDIRECT_MODE/production/_ext/1865555181/plib_qspi.o
                0x00008184                QSPI_MemoryWrite

.rodata.aName0x1600%170
                0x00008208       0x84
 .rodata.aName0x1600
                0x00008208       0x84 build/LAN9255_SQI_INDIRECT_MODE/production/_ext/108134065/coeappl.o
                0x00008208                aName0x1600

.text.__fputwc%171
                0x0000828c       0x82
 .text.__fputwc
                0x0000828c       0x82 c:/program files/microchip/xc32/v3.01/bin/bin/../../lib/gcc/pic32c/8.3.1/../../../../pic32c/lib/thumb/v7e-m+fp/hard\libc_nano.a(lib_a-fputwc.o)
                0x0000828c                __fputwc

.text.QSPI_MemoryRead%172
                0x00008310       0x7c
 .text.QSPI_MemoryRead
                0x00008310       0x7c build/LAN9255_SQI_INDIRECT_MODE/production/_ext/1865555181/plib_qspi.o
                0x00008310                QSPI_MemoryRead

.text.COE_AddObjectToDic%173
                0x0000838c       0x7c
 .text.COE_AddObjectToDic
                0x0000838c       0x7c build/LAN9255_SQI_INDIRECT_MODE/production/_ext/108134065/coeappl.o
                0x0000838c                COE_AddObjectToDic

.text.EMCY_SendEmergency%174
                0x00008408       0x7c
 .text.EMCY_SendEmergency
                0x00008408       0x7c build/LAN9255_SQI_INDIRECT_MODE/production/_ext/108134065/emcy.o
                0x00008408                EMCY_SendEmergency

.text.MBX_MailboxWriteInd%175
                0x00008484       0x78
 .text.MBX_MailboxWriteInd
                0x00008484       0x78 build/LAN9255_SQI_INDIRECT_MODE/production/_ext/108134065/mailbox.o
                0x00008484                MBX_MailboxWriteInd

.text.MBX_Main%176
                0x000084fc       0x78
 .text.MBX_Main
                0x000084fc       0x78 build/LAN9255_SQI_INDIRECT_MODE/production/_ext/108134065/mailbox.o
                0x000084fc                MBX_Main

.text.HW_EepromWrite%177
                0x00008574       0x78
 .text.HW_EepromWrite
                0x00008574       0x78 build/LAN9255_SQI_INDIRECT_MODE/production/_ext/108134065/sample_app.o
                0x00008574                HW_EepromWrite

.rodata.cAbortCode%178
                0x000085ec       0x78
 .rodata.cAbortCode
                0x000085ec       0x78 build/LAN9255_SQI_INDIRECT_MODE/production/_ext/108134065/sdoserv.o
                0x000085ec                cAbortCode

.text.__sfp%179
                0x00008664       0x78
 .text.__sfp    0x00008664       0x78 c:/program files/microchip/xc32/v3.01/bin/bin/../../lib/gcc/pic32c/8.3.1/../../../../pic32c/lib/thumb/v7e-m+fp/hard\libc_nano.a(lib_a-findfp.o)
                0x00008664                __sfp

.text.APP_FlashEEPROMUpdate%180
                0x000086dc       0x74
 .text.APP_FlashEEPROMUpdate
                0x000086dc       0x74 build/LAN9255_SQI_INDIRECT_MODE/production/_ext/1360937237/app.o
                0x000086dc                APP_FlashEEPROMUpdate

.text.oledc_command%181
                0x00008750       0x70
 .text.oledc_command
                0x00008750       0x70 build/LAN9255_SQI_INDIRECT_MODE/production/_ext/1865488526/oledc_driver.o
                0x00008750                oledc_command

.text.PDO_InputMapping%182
                0x000087c0       0x70
 .text.PDO_InputMapping
                0x000087c0       0x70 build/LAN9255_SQI_INDIRECT_MODE/production/_ext/108134065/ecatappl.o
                0x000087c0                PDO_InputMapping

.text.HW_EepromReload%183
                0x00008830       0x68
 .text.HW_EepromReload
                0x00008830       0x68 build/LAN9255_SQI_INDIRECT_MODE/production/_ext/108134065/sample_app.o
                0x00008830                HW_EepromReload

.text.COE_SyncTimeStamp%184
                0x00008898       0x64
 .text.COE_SyncTimeStamp
                0x00008898       0x64 build/LAN9255_SQI_INDIRECT_MODE/production/_ext/108134065/coeappl.o
                0x00008898                COE_SyncTimeStamp

.rodata.aName0x8000%185
                0x000088fc       0x64
 .rodata.aName0x8000
                0x000088fc       0x64 build/LAN9255_SQI_INDIRECT_MODE/production/_ext/108134065/coeappl.o
                0x000088fc                aName0x8000

.text.MBX_MailboxRepeatReq%186
                0x00008960       0x60
 .text.MBX_MailboxRepeatReq
                0x00008960       0x60 build/LAN9255_SQI_INDIRECT_MODE/production/_ext/108134065/mailbox.o
                0x00008960                MBX_MailboxRepeatReq

.text.__sinit%187
                0x000089c0       0x60
 .text.__sinit  0x000089c0       0x60 c:/program files/microchip/xc32/v3.01/bin/bin/../../lib/gcc/pic32c/8.3.1/../../../../pic32c/lib/thumb/v7e-m+fp/hard\libc_nano.a(lib_a-findfp.o)
                0x000089c0                __sinit

.text.HW_GetALEventRegister%188
                0x00008a20       0x5c
 .text.HW_GetALEventRegister
                0x00008a20       0x5c build/LAN9255_SQI_INDIRECT_MODE/production/_ext/108147519/LAN925x.o
                0x00008a20                HW_GetALEventRegister

.text.LAN9252SQI_WritePDRAM%189
                0x00008a7c       0x58
 .text.LAN9252SQI_WritePDRAM
                0x00008a7c       0x58 build/LAN9255_SQI_INDIRECT_MODE/production/_ext/1671622016/Drivers.o
                0x00008a7c                LAN9252SQI_WritePDRAM

.text.ESF_PDI_Init%190
                0x00008ad4       0x58
 .text.ESF_PDI_Init
                0x00008ad4       0x58 build/LAN9255_SQI_INDIRECT_MODE/production/_ext/1671622016/Drivers.o
                0x00008ad4                ESF_PDI_Init

.text.OBJ_GetNoOfObjects%191
                0x00008b2c       0x56
 .text.OBJ_GetNoOfObjects
                0x00008b2c       0x56 build/LAN9255_SQI_INDIRECT_MODE/production/_ext/108134065/objdef.o
                0x00008b2c                OBJ_GetNoOfObjects

.text.qspi_setup_transfer%192
                0x00008b84       0x54
 .text.qspi_setup_transfer
                0x00008b84       0x54 build/LAN9255_SQI_INDIRECT_MODE/production/_ext/1865555181/plib_qspi.o

.text.SERCOM0_USART_Initialize%193
                0x00008bd8       0x54
 .text.SERCOM0_USART_Initialize
                0x00008bd8       0x54 build/LAN9255_SQI_INDIRECT_MODE/production/_ext/504274921/plib_sercom0_usart.o
                0x00008bd8                SERCOM0_USART_Initialize

.text.HW_GetALEventRegister_Isr%194
                0x00008c2c       0x54
 .text.HW_GetALEventRegister_Isr
                0x00008c2c       0x54 build/LAN9255_SQI_INDIRECT_MODE/production/_ext/108147519/LAN925x.o
                0x00008c2c                HW_GetALEventRegister_Isr

.rodata.aName0x1601%195
                0x00008c80       0x54
 .rodata.aName0x1601
                0x00008c80       0x54 build/LAN9255_SQI_INDIRECT_MODE/production/_ext/108134065/coeappl.o
                0x00008c80                aName0x1601

.text.ECAT_CheckWatchdog%196
                0x00008cd4       0x54
 .text.ECAT_CheckWatchdog
                0x00008cd4       0x54 build/LAN9255_SQI_INDIRECT_MODE/production/_ext/108134065/ecatslv.o
                0x00008cd4                ECAT_CheckWatchdog

.text.FoE_Write%197
                0x00008d28       0x54
 .text.FoE_Write
                0x00008d28       0x54 build/LAN9255_SQI_INDIRECT_MODE/production/_ext/108134065/sample_app.o
                0x00008d28                FoE_Write

.text.BL_FOE_Application%198
                0x00008d7c       0x54
 .text.BL_FOE_Application
                0x00008d7c       0x54 build/LAN9255_SQI_INDIRECT_MODE/production/_ext/108134065/sample_app.o
                0x00008d7c                BL_FOE_Application

.text._fflush_r%199
                0x00008dd0       0x54
 .text._fflush_r
                0x00008dd0       0x54 c:/program files/microchip/xc32/v3.01/bin/bin/../../lib/gcc/pic32c/8.3.1/../../../../pic32c/lib/thumb/v7e-m+fp/hard\libc_nano.a(lib_a-fflush.o)
                0x00008dd0                _fflush_r

.text.COE_UpdateSyncErrorStatus%200
                0x00008e24       0x50
 .text.COE_UpdateSyncErrorStatus
                0x00008e24       0x50 build/LAN9255_SQI_INDIRECT_MODE/production/_ext/108134065/coeappl.o
                0x00008e24                COE_UpdateSyncErrorStatus

.text.HandleCycleTimeMeasurement%201
                0x00008e74       0x50
 .text.HandleCycleTimeMeasurement
                0x00008e74       0x50 build/LAN9255_SQI_INDIRECT_MODE/production/_ext/108134065/ecatappl.o
                0x00008e74                HandleCycleTimeMeasurement

.text.StartOutputHandler%202
                0x00008ec4       0x50
 .text.StartOutputHandler
                0x00008ec4       0x50 build/LAN9255_SQI_INDIRECT_MODE/production/_ext/108134065/ecatslv.o
                0x00008ec4                StartOutputHandler

.text.oledc_set_font%203
                0x00008f14       0x4c
 .text.oledc_set_font
                0x00008f14       0x4c build/LAN9255_SQI_INDIRECT_MODE/production/_ext/1865488526/oledc_driver.o
                0x00008f14                oledc_set_font

.text.QSPI_RegisterWrite%204
                0x00008f60       0x4c
 .text.QSPI_RegisterWrite
                0x00008f60       0x4c build/LAN9255_SQI_INDIRECT_MODE/production/_ext/1865555181/plib_qspi.o
                0x00008f60                QSPI_RegisterWrite

.text.APPL_InputMapping%205
                0x00008fac       0x4c
 .text.APPL_InputMapping
                0x00008fac       0x4c build/LAN9255_SQI_INDIRECT_MODE/production/_ext/108134065/sample_app.o
                0x00008fac                APPL_InputMapping

.text.__ssfputs_r%206
                0x00008ff8       0x4a
 .text.__ssfputs_r
                0x00008ff8       0x4a c:/program files/microchip/xc32/v3.01/bin/bin/../../lib/gcc/pic32c/8.3.1/../../../../pic32c/lib/thumb/v7e-m+fp/hard\libc_nano.a(lib_a-__ssfputs.o)
                0x00008ff8                __ssfputs_r

.text.SERCOM0_USART_Write%207
                0x00009044       0x48
 .text.SERCOM0_USART_Write
                0x00009044       0x48 build/LAN9255_SQI_INDIRECT_MODE/production/_ext/504274921/plib_sercom0_usart.o
                0x00009044                SERCOM0_USART_Write

.text.APPL_OutputMapping%208
                0x0000908c       0x48
 .text.APPL_OutputMapping
                0x0000908c       0x48 build/LAN9255_SQI_INDIRECT_MODE/production/_ext/108134065/sample_app.o
                0x0000908c                APPL_OutputMapping

.text.__libc_init_array%209
                0x000090d4       0x48
 .text.__libc_init_array
                0x000090d4       0x48 c:/program files/microchip/xc32/v3.01/bin/bin/../../lib/gcc/pic32c/8.3.1/../../../../pic32c/lib/thumb/v7e-m+fp/hard\libc_nano.a(lib_a-init.o)
                0x000090d4                __libc_init_array

.text.std%210   0x0000911c       0x48
 .text.std      0x0000911c       0x48 c:/program files/microchip/xc32/v3.01/bin/bin/../../lib/gcc/pic32c/8.3.1/../../../../pic32c/lib/thumb/v7e-m+fp/hard\libc_nano.a(lib_a-findfp.o)

.text.__swhatbuf_r%211
                0x00009164       0x48
 .text.__swhatbuf_r
                0x00009164       0x48 c:/program files/microchip/xc32/v3.01/bin/bin/../../lib/gcc/pic32c/8.3.1/../../../../pic32c/lib/thumb/v7e-m+fp/hard\libc_nano.a(lib_a-makebuf.o)
                0x00009164                __swhatbuf_r

.text.APP_FlashWrite%212
                0x000091ac       0x46
 .text.APP_FlashWrite
                0x000091ac       0x46 build/LAN9255_SQI_INDIRECT_MODE/production/_ext/1360937237/app.o
                0x000091ac                APP_FlashWrite

.text.Read0x10F8%213
                0x000091f4       0x44
 .text.Read0x10F8
                0x000091f4       0x44 build/LAN9255_SQI_INDIRECT_MODE/production/_ext/108134065/coeappl.o
                0x000091f4                Read0x10F8

.text.COE_ContinueInd%214
                0x00009238       0x44
 .text.COE_ContinueInd
                0x00009238       0x44 build/LAN9255_SQI_INDIRECT_MODE/production/_ext/108134065/ecatcoe.o
                0x00009238                COE_ContinueInd

.text%215       0x0000927c       0x40
 .text          0x0000927c       0x40 c:/program files/microchip/xc32/v3.01/bin/bin/../../lib/gcc/pic32c/8.3.1/thumb/v7e-m+fp/hard/crtbegin.o

.text.NVMCTRL_PageWrite%216
                0x000092bc       0x40
 .text.NVMCTRL_PageWrite
                0x000092bc       0x40 build/LAN9255_SQI_INDIRECT_MODE/production/_ext/1593096446/plib_nvmctrl.o
                0x000092bc                NVMCTRL_PageWrite

.text.QSPI_CommandWrite%217
                0x000092fc       0x40
 .text.QSPI_CommandWrite
                0x000092fc       0x40 build/LAN9255_SQI_INDIRECT_MODE/production/_ext/1865555181/plib_qspi.o
                0x000092fc                QSPI_CommandWrite

.text.SERCOM0_USART_Read%218
                0x0000933c       0x40
 .text.SERCOM0_USART_Read
                0x0000933c       0x40 build/LAN9255_SQI_INDIRECT_MODE/production/_ext/504274921/plib_sercom0_usart.o
                0x0000933c                SERCOM0_USART_Read

.text.ReBuild_SQI_SetCfg_data%219
                0x0000937c       0x40
 .text.ReBuild_SQI_SetCfg_data
                0x0000937c       0x40 build/LAN9255_SQI_INDIRECT_MODE/production/_ext/1671622016/Drivers.o
                0x0000937c                ReBuild_SQI_SetCfg_data

.text.HW_EscReadIsr%220
                0x000093bc       0x40
 .text.HW_EscReadIsr
                0x000093bc       0x40 build/LAN9255_SQI_INDIRECT_MODE/production/_ext/108147519/LAN925x.o
                0x000093bc                HW_EscReadIsr

.text.HW_EscWriteIsr%221
                0x000093fc       0x40
 .text.HW_EscWriteIsr
                0x000093fc       0x40 build/LAN9255_SQI_INDIRECT_MODE/production/_ext/108147519/LAN925x.o
                0x000093fc                HW_EscWriteIsr

.text.COE_RemoveDicEntry%222
                0x0000943c       0x40
 .text.COE_RemoveDicEntry
                0x0000943c       0x40 build/LAN9255_SQI_INDIRECT_MODE/production/_ext/108134065/coeappl.o
                0x0000943c                COE_RemoveDicEntry

.rodata.aName0x10F1%223
                0x0000947c       0x40
 .rodata.aName0x10F1
                0x0000947c       0x40 build/LAN9255_SQI_INDIRECT_MODE/production/_ext/108134065/coeappl.o
                0x0000947c                aName0x10F1

.text.Sync1_Isr%224
                0x000094bc       0x40
 .text.Sync1_Isr
                0x000094bc       0x40 build/LAN9255_SQI_INDIRECT_MODE/production/_ext/108134065/ecatappl.o
                0x000094bc                Sync1_Isr

.text.CheckIfEcatError%225
                0x000094fc       0x40
 .text.CheckIfEcatError
                0x000094fc       0x40 build/LAN9255_SQI_INDIRECT_MODE/production/_ext/108134065/ecatslv.o
                0x000094fc                CheckIfEcatError

.text.write%226
                0x0000953c       0x40
 .text.write    0x0000953c       0x40 c:/program files/microchip/xc32/v3.01/bin/bin/../../lib/gcc/pic32c/8.3.1/../../../../pic32c/lib/thumb/v7e-m+fp/hard\libpic32c.a(write.o)
                0x0000953c                write

.text.APP_FOEFlashWrite%227
                0x0000957c       0x3e
 .text.APP_FOEFlashWrite
                0x0000957c       0x3e build/LAN9255_SQI_INDIRECT_MODE/production/_ext/1360937237/app.o
                0x0000957c                APP_FOEFlashWrite

.text.SERCOM4_SPI_Initialize%228
                0x000095bc       0x3c
 .text.SERCOM4_SPI_Initialize
                0x000095bc       0x3c build/LAN9255_SQI_INDIRECT_MODE/production/_ext/17022449/plib_sercom4_spi_master.o
                0x000095bc                SERCOM4_SPI_Initialize

.rodata.aName0x1018%229
                0x000095f8       0x3c
 .rodata.aName0x1018
                0x000095f8       0x3c build/LAN9255_SQI_INDIRECT_MODE/production/_ext/108134065/coeappl.o
                0x000095f8                aName0x1018

.text.GetSystemTimeDelay%230
                0x00009634       0x3c
 .text.GetSystemTimeDelay
                0x00009634       0x3c build/LAN9255_SQI_INDIRECT_MODE/production/_ext/108134065/ecatappl.o
                0x00009634                GetSystemTimeDelay

.text.FOE_Data%231
                0x00009670       0x3c
 .text.FOE_Data
                0x00009670       0x3c build/LAN9255_SQI_INDIRECT_MODE/production/_ext/108134065/foeappl.o
                0x00009670                FOE_Data

.text.MailboxServiceInd%232
                0x000096ac       0x3c
 .text.MailboxServiceInd
                0x000096ac       0x3c build/LAN9255_SQI_INDIRECT_MODE/production/_ext/108134065/mailbox.o
                0x000096ac                MailboxServiceInd

.text.OBJ_CopyNumberToString%233
                0x000096e8       0x3c
 .text.OBJ_CopyNumberToString
                0x000096e8       0x3c build/LAN9255_SQI_INDIRECT_MODE/production/_ext/108134065/objdef.o
                0x000096e8                OBJ_CopyNumberToString

.text._sprintf_cdnopuxX%234
                0x00009724       0x3c
 .text._sprintf_cdnopuxX
                0x00009724       0x3c c:/program files/microchip/xc32/v3.01/bin/bin/../../lib/gcc/pic32c/8.3.1/../../../../pic32c/lib/thumb/v7e-m+fp/hard\libc_nano.a(_lib_a-sprintf.cdnopuxX.o)
                0x00009724                _sprintf_cdnopuxX
                0x00009724                __sprintf_u

.text._fwalk_reent%235
                0x00009760       0x3c
 .text._fwalk_reent
                0x00009760       0x3c c:/program files/microchip/xc32/v3.01/bin/bin/../../lib/gcc/pic32c/8.3.1/../../../../pic32c/lib/thumb/v7e-m+fp/hard\libc_nano.a(lib_a-fwalk.o)
                0x00009760                _fwalk_reent

.text.oledc_spiDriverInit%236
                0x0000979c       0x38
 .text.oledc_spiDriverInit
                0x0000979c       0x38 build/LAN9255_SQI_INDIRECT_MODE/production/_ext/1865488526/oledc_driver.o
                0x0000979c                oledc_spiDriverInit

.text.LAN9252SQI_Write%237
                0x000097d4       0x38
 .text.LAN9252SQI_Write
                0x000097d4       0x38 build/LAN9255_SQI_INDIRECT_MODE/production/_ext/1671622016/Drivers.o
                0x000097d4                LAN9252SQI_Write

.rodata.aName0x1A00%238
                0x0000980c       0x38
 .rodata.aName0x1A00
                0x0000980c       0x38 build/LAN9255_SQI_INDIRECT_MODE/production/_ext/108134065/coeappl.o
                0x0000980c                aName0x1A00

.text.ResetALEventMask%239
                0x00009844       0x38
 .text.ResetALEventMask
                0x00009844       0x38 build/LAN9255_SQI_INDIRECT_MODE/production/_ext/108134065/ecatslv.o
                0x00009844                ResetALEventMask

.text.SetALEventMask%240
                0x0000987c       0x38
 .text.SetALEventMask
                0x0000987c       0x38 build/LAN9255_SQI_INDIRECT_MODE/production/_ext/108134065/ecatslv.o
                0x0000987c                SetALEventMask

.text.CalculateCRC8%241
                0x000098b4       0x38
 .text.CalculateCRC8
                0x000098b4       0x38 build/LAN9255_SQI_INDIRECT_MODE/production/_ext/1360937237/app.o
                0x000098b4                CalculateCRC8

.text.__swrite%242
                0x000098ec       0x38
 .text.__swrite
                0x000098ec       0x38 c:/program files/microchip/xc32/v3.01/bin/bin/../../lib/gcc/pic32c/8.3.1/../../../../pic32c/lib/thumb/v7e-m+fp/hard\libc_nano.a(lib_a-stdio.o)
                0x000098ec                __swrite

.text.DisableSyncManChannel%243
                0x00009924       0x34
 .text.DisableSyncManChannel
                0x00009924       0x34 build/LAN9255_SQI_INDIRECT_MODE/production/_ext/108134065/ecatslv.o
                0x00009924                DisableSyncManChannel

.text.EMCY_Init%244
                0x00009958       0x34
 .text.EMCY_Init
                0x00009958       0x34 build/LAN9255_SQI_INDIRECT_MODE/production/_ext/108134065/emcy.o
                0x00009958                EMCY_Init

.text.FoE_ReadData%245
                0x0000998c       0x34
 .text.FoE_ReadData
                0x0000998c       0x34 build/LAN9255_SQI_INDIRECT_MODE/production/_ext/108134065/sample_app.o
                0x0000998c                FoE_ReadData

.rodata%246     0x000099c0       0x33
 .rodata        0x000099c0       0x33 c:/program files/microchip/xc32/v3.01/bin/bin/../../lib/gcc/pic32c/8.3.1/../../../../pic32c/lib/thumb/v7e-m+fp/hard\libc_nano.a(_lib_a-nano-vfprintf.cdnopuxX.o)

.text.EnableSyncManChannel%247
                0x000099f4       0x32
 .text.EnableSyncManChannel
                0x000099f4       0x32 build/LAN9255_SQI_INDIRECT_MODE/production/_ext/108134065/ecatslv.o
                0x000099f4                EnableSyncManChannel

.text.SYS_Initialize%248
                0x00009a26       0x30
 .text.SYS_Initialize
                0x00009a26       0x30 build/LAN9255_SQI_INDIRECT_MODE/production/_ext/1171490990/initialization.o
                0x00009a26                SYS_Initialize

.text.ESC_IRQ_cb%249
                0x00009a58       0x30
 .text.ESC_IRQ_cb
                0x00009a58       0x30 build/LAN9255_SQI_INDIRECT_MODE/production/_ext/1671622016/Drivers.o
                0x00009a58                ESC_IRQ_cb

.rodata.aName0x1A02%250
                0x00009a88       0x30
 .rodata.aName0x1A02
                0x00009a88       0x30 build/LAN9255_SQI_INDIRECT_MODE/production/_ext/108134065/coeappl.o
                0x00009a88                aName0x1A02

.rodata.asEntryDesc0x1600%251
                0x00009ab8       0x30
 .rodata.asEntryDesc0x1600
                0x00009ab8       0x30 build/LAN9255_SQI_INDIRECT_MODE/production/_ext/108134065/coeappl.o
                0x00009ab8                asEntryDesc0x1600

.rodata.asEntryDesc0x8000%252
                0x00009ae8       0x30
 .rodata.asEntryDesc0x8000
                0x00009ae8       0x30 build/LAN9255_SQI_INDIRECT_MODE/production/_ext/108134065/coeappl.o
                0x00009ae8                asEntryDesc0x8000

.text.ECAT_Application%253
                0x00009b18       0x30
 .text.ECAT_Application
                0x00009b18       0x30 build/LAN9255_SQI_INDIRECT_MODE/production/_ext/108134065/ecatappl.o
                0x00009b18                ECAT_Application

.text.UpdateEEPROMLoadedState%254
                0x00009b48       0x30
 .text.UpdateEEPROMLoadedState
                0x00009b48       0x30 build/LAN9255_SQI_INDIRECT_MODE/production/_ext/108134065/ecatslv.o
                0x00009b48                UpdateEEPROMLoadedState

.text.GetOutOfEmptyEmcyQueue%255
                0x00009b78       0x30
 .text.GetOutOfEmptyEmcyQueue
                0x00009b78       0x30 build/LAN9255_SQI_INDIRECT_MODE/production/_ext/108134065/emcy.o
                0x00009b78                GetOutOfEmptyEmcyQueue

.text.GetOutOfSendEmcyQueue%256
                0x00009ba8       0x30
 .text.GetOutOfSendEmcyQueue
                0x00009ba8       0x30 build/LAN9255_SQI_INDIRECT_MODE/production/_ext/108134065/emcy.o
                0x00009ba8                GetOutOfSendEmcyQueue

.text%257       0x00009bd8       0x30
 .text          0x00009bd8       0x30 c:/program files/microchip/xc32/v3.01/bin/bin/../../lib/gcc/pic32c/8.3.1/thumb/v7e-m+fp/hard\libgcc.a(_aeabi_uldivmod.o)
                0x00009bd8                __aeabi_uldivmod

.text.ESC_BYTE_TEST_Register_Read%258
                0x00009c08       0x2e
 .text.ESC_BYTE_TEST_Register_Read
                0x00009c08       0x2e build/LAN9255_SQI_INDIRECT_MODE/production/_ext/1671622016/Drivers.o
                0x00009c08                ESC_BYTE_TEST_Register_Read

.text.__sfputc_r%259
                0x00009c36       0x2e
 .text.__sfputc_r
                0x00009c36       0x2e c:/program files/microchip/xc32/v3.01/bin/bin/../../lib/gcc/pic32c/8.3.1/../../../../pic32c/lib/thumb/v7e-m+fp/hard\libc_nano.a(lib_a-__ssfputs.o)

.text.EIC_CallbackRegister%260
                0x00009c64       0x2c
 .text.EIC_CallbackRegister
                0x00009c64       0x2c build/LAN9255_SQI_INDIRECT_MODE/production/_ext/60167341/plib_eic.o
                0x00009c64                EIC_CallbackRegister

.text.SERCOM0_USART_ReadAbort%261
                0x00009c90       0x2c
 .text.SERCOM0_USART_ReadAbort
                0x00009c90       0x2c build/LAN9255_SQI_INDIRECT_MODE/production/_ext/504274921/plib_sercom0_usart.o
                0x00009c90                SERCOM0_USART_ReadAbort

.text.COE_ObjDictionaryInit%262
                0x00009cbc       0x2c
 .text.COE_ObjDictionaryInit
                0x00009cbc       0x2c build/LAN9255_SQI_INDIRECT_MODE/production/_ext/108134065/coeappl.o
                0x00009cbc                COE_ObjDictionaryInit

.text.COE_ServiceInd%263
                0x00009ce8       0x2c
 .text.COE_ServiceInd
                0x00009ce8       0x2c build/LAN9255_SQI_INDIRECT_MODE/production/_ext/108134065/ecatcoe.o
                0x00009ce8                COE_ServiceInd

.text.APP_FW_startDownload%264
                0x00009d14       0x2c
 .text.APP_FW_startDownload
                0x00009d14       0x2c build/LAN9255_SQI_INDIRECT_MODE/production/_ext/108134065/sample_app.o
                0x00009d14                APP_FW_startDownload

.text.__sfmoreglue%265
                0x00009d40       0x2c
 .text.__sfmoreglue
                0x00009d40       0x2c c:/program files/microchip/xc32/v3.01/bin/bin/../../lib/gcc/pic32c/8.3.1/../../../../pic32c/lib/thumb/v7e-m+fp/hard\libc_nano.a(lib_a-findfp.o)
                0x00009d40                __sfmoreglue

.text._wcrtomb_r%266
                0x00009d6c       0x2c
 .text._wcrtomb_r
                0x00009d6c       0x2c c:/program files/microchip/xc32/v3.01/bin/bin/../../lib/gcc/pic32c/8.3.1/../../../../pic32c/lib/thumb/v7e-m+fp/hard\libc_nano.a(lib_a-wcrtomb.o)
                0x00009d6c                _wcrtomb_r

.text._sbrk%267
                0x00009d98       0x2c
 .text._sbrk    0x00009d98       0x2c c:/program files/microchip/xc32/v3.01/bin/bin/../../lib/gcc/pic32c/8.3.1/../../../../pic32c/lib/thumb/v7e-m+fp/hard\libpic32c.a(sbrk.o)
                0x00009d98                _sbrk

.text.AddObjectsToObjDictionary%268
                0x00009dc4       0x2a
 .text.AddObjectsToObjDictionary
                0x00009dc4       0x2a build/LAN9255_SQI_INDIRECT_MODE/production/_ext/108134065/coeappl.o
                0x00009dc4                AddObjectsToObjDictionary

.text.PutInMbxQueue%269
                0x00009dee       0x2a
 .text.PutInMbxQueue
                0x00009dee       0x2a build/LAN9255_SQI_INDIRECT_MODE/production/_ext/108134065/mailbox.o
                0x00009dee                PutInMbxQueue

.rodata.aName0x7010%270
                0x00009e18       0x28
 .rodata.aName0x7010
                0x00009e18       0x28 build/LAN9255_SQI_INDIRECT_MODE/production/_ext/108134065/coeappl.o
                0x00009e18                aName0x7010

.text.FOE_Read%271
                0x00009e40       0x28
 .text.FOE_Read
                0x00009e40       0x28 build/LAN9255_SQI_INDIRECT_MODE/production/_ext/108134065/foeappl.o
                0x00009e40                FOE_Read

.text.GetOutOfMbxQueue%272
                0x00009e68       0x28
 .text.GetOutOfMbxQueue
                0x00009e68       0x28 build/LAN9255_SQI_INDIRECT_MODE/production/_ext/108134065/mailbox.o
                0x00009e68                GetOutOfMbxQueue

.text.read%273  0x00009e90       0x28
 .text.read     0x00009e90       0x28 c:/program files/microchip/xc32/v3.01/bin/bin/../../lib/gcc/pic32c/8.3.1/../../../../pic32c/lib/thumb/v7e-m+fp/hard\libpic32c.a(read.o)
                0x00009e90                read

.text.QSPI_Initialize%274
                0x00009eb8       0x24
 .text.QSPI_Initialize
                0x00009eb8       0x24 build/LAN9255_SQI_INDIRECT_MODE/production/_ext/1865555181/plib_qspi.o
                0x00009eb8                QSPI_Initialize

.text.SERCOM0_USART_ErrorClear%275
                0x00009edc       0x24
 .text.SERCOM0_USART_ErrorClear
                0x00009edc       0x24 build/LAN9255_SQI_INDIRECT_MODE/production/_ext/504274921/plib_sercom0_usart.o

.text.SYSTICK_TimerInitialize%276
                0x00009f00       0x24
 .text.SYSTICK_TimerInitialize
                0x00009f00       0x24 build/LAN9255_SQI_INDIRECT_MODE/production/_ext/1827571544/plib_systick.o
                0x00009f00                SYSTICK_TimerInitialize

.text.SQI_SetConfiguration%277
                0x00009f24       0x24
 .text.SQI_SetConfiguration
                0x00009f24       0x24 build/LAN9255_SQI_INDIRECT_MODE/production/_ext/1671622016/Drivers.o
                0x00009f24                SQI_SetConfiguration

.rodata.aName0x6000%278
                0x00009f48       0x24
 .rodata.aName0x6000
                0x00009f48       0x24 build/LAN9255_SQI_INDIRECT_MODE/production/_ext/108134065/coeappl.o
                0x00009f48                aName0x6000

.text.__ascii_mbtowc%279
                0x00009f6c       0x24
 .text.__ascii_mbtowc
                0x00009f6c       0x24 c:/program files/microchip/xc32/v3.01/bin/bin/../../lib/gcc/pic32c/8.3.1/../../../../pic32c/lib/thumb/v7e-m+fp/hard\libc_nano.a(lib_a-mbtowc_r.o)
                0x00009f6c                __ascii_mbtowc

.text.__sseek%280
                0x00009f90       0x24
 .text.__sseek  0x00009f90       0x24 c:/program files/microchip/xc32/v3.01/bin/bin/../../lib/gcc/pic32c/8.3.1/../../../../pic32c/lib/thumb/v7e-m+fp/hard\libc_nano.a(lib_a-stdio.o)
                0x00009f90                __sseek

.text._write_r%281
                0x00009fb4       0x24
 .text._write_r
                0x00009fb4       0x24 c:/program files/microchip/xc32/v3.01/bin/bin/../../lib/gcc/pic32c/8.3.1/../../../../pic32c/lib/thumb/v7e-m+fp/hard\libc_nano.a(lib_a-writer.o)
                0x00009fb4                _write_r

.text._lseek_r%282
                0x00009fd8       0x24
 .text._lseek_r
                0x00009fd8       0x24 c:/program files/microchip/xc32/v3.01/bin/bin/../../lib/gcc/pic32c/8.3.1/../../../../pic32c/lib/thumb/v7e-m+fp/hard\libc_nano.a(lib_a-lseekr.o)
                0x00009fd8                _lseek_r

.text._read_r%283
                0x00009ffc       0x24
 .text._read_r  0x00009ffc       0x24 c:/program files/microchip/xc32/v3.01/bin/bin/../../lib/gcc/pic32c/8.3.1/../../../../pic32c/lib/thumb/v7e-m+fp/hard\libc_nano.a(lib_a-readr.o)
                0x00009ffc                _read_r

.text._fstat_r%284
                0x0000a020       0x24
 .text._fstat_r
                0x0000a020       0x24 c:/program files/microchip/xc32/v3.01/bin/bin/../../lib/gcc/pic32c/8.3.1/../../../../pic32c/lib/thumb/v7e-m+fp/hard\libc_nano.a(lib_a-fstatr.o)
                0x0000a020                _fstat_r

.text.OBJ_GetEntryDesc%285
                0x0000a044       0x22
 .text.OBJ_GetEntryDesc
                0x0000a044       0x22 build/LAN9255_SQI_INDIRECT_MODE/production/_ext/108134065/objdef.o
                0x0000a044                OBJ_GetEntryDesc

.text.__sread%286
                0x0000a066       0x22
 .text.__sread  0x0000a066       0x22 c:/program files/microchip/xc32/v3.01/bin/bin/../../lib/gcc/pic32c/8.3.1/../../../../pic32c/lib/thumb/v7e-m+fp/hard\libc_nano.a(lib_a-stdio.o)
                0x0000a066                __sread

.text.EIC_EXTINT_0_InterruptHandler%287
                0x0000a088       0x20
 .text.EIC_EXTINT_0_InterruptHandler
                0x0000a088       0x20 build/LAN9255_SQI_INDIRECT_MODE/production/_ext/60167341/plib_eic.o
                0x0000a088                EIC_EXTINT_0_InterruptHandler

.text.EIC_EXTINT_1_InterruptHandler%288
                0x0000a0a8       0x20
 .text.EIC_EXTINT_1_InterruptHandler
                0x0000a0a8       0x20 build/LAN9255_SQI_INDIRECT_MODE/production/_ext/60167341/plib_eic.o
                0x0000a0a8                EIC_EXTINT_1_InterruptHandler

.text.EIC_EXTINT_7_InterruptHandler%289
                0x0000a0c8       0x20
 .text.EIC_EXTINT_7_InterruptHandler
                0x0000a0c8       0x20 build/LAN9255_SQI_INDIRECT_MODE/production/_ext/60167341/plib_eic.o
                0x0000a0c8                EIC_EXTINT_7_InterruptHandler

.text.PDI_Init_SYNC_Interrupts%290
                0x0000a0e8       0x20
 .text.PDI_Init_SYNC_Interrupts
                0x0000a0e8       0x20 build/LAN9255_SQI_INDIRECT_MODE/production/_ext/108147519/ESC_Utils.o
                0x0000a0e8                PDI_Init_SYNC_Interrupts

.text.COE_ClearObjDictionary%291
                0x0000a108       0x20
 .text.COE_ClearObjDictionary
                0x0000a108       0x20 build/LAN9255_SQI_INDIRECT_MODE/production/_ext/108134065/coeappl.o
                0x0000a108                COE_ClearObjDictionary

.rodata.asEntryDesc0x1018%292
                0x0000a128       0x20
 .rodata.asEntryDesc0x1018
                0x0000a128       0x20 build/LAN9255_SQI_INDIRECT_MODE/production/_ext/108134065/coeappl.o
                0x0000a128                asEntryDesc0x1018

.rodata.asEntryDesc0x1601%293
                0x0000a148       0x20
 .rodata.asEntryDesc0x1601
                0x0000a148       0x20 build/LAN9255_SQI_INDIRECT_MODE/production/_ext/108134065/coeappl.o
                0x0000a148                asEntryDesc0x1601

.rodata.asEntryDesc0x7010%294
                0x0000a168       0x20
 .rodata.asEntryDesc0x7010
                0x0000a168       0x20 build/LAN9255_SQI_INDIRECT_MODE/production/_ext/108134065/coeappl.o
                0x0000a168                asEntryDesc0x7010

.text.PutInEmptyEmcyQueue%295
                0x0000a188       0x20
 .text.PutInEmptyEmcyQueue
                0x0000a188       0x20 build/LAN9255_SQI_INDIRECT_MODE/production/_ext/108134065/emcy.o
                0x0000a188                PutInEmptyEmcyQueue

.text.PutInSendEmcyQueue%296
                0x0000a1a8       0x20
 .text.PutInSendEmcyQueue
                0x0000a1a8       0x20 build/LAN9255_SQI_INDIRECT_MODE/production/_ext/108134065/emcy.o
                0x0000a1a8                PutInSendEmcyQueue

.text.FOE_Ack%297
                0x0000a1c8       0x20
 .text.FOE_Ack  0x0000a1c8       0x20 build/LAN9255_SQI_INDIRECT_MODE/production/_ext/108134065/foeappl.o
                0x0000a1c8                FOE_Ack

.text.OBJ_GetObjectHandle%298
                0x0000a1e8       0x20
 .text.OBJ_GetObjectHandle
                0x0000a1e8       0x20 build/LAN9255_SQI_INDIRECT_MODE/production/_ext/108134065/objdef.o
                0x0000a1e8                OBJ_GetObjectHandle

.rodata.cBitMask%299
                0x0000a208       0x20
 .rodata.cBitMask
                0x0000a208       0x20 build/LAN9255_SQI_INDIRECT_MODE/production/_ext/108134065/objdef.o
                0x0000a208                cBitMask

.text.Emulation_Init%300
                0x0000a228       0x20
 .text.Emulation_Init
                0x0000a228       0x20 build/LAN9255_SQI_INDIRECT_MODE/production/_ext/108134065/sample_app.o
                0x0000a228                Emulation_Init

.text._sbrk_r%301
                0x0000a248       0x20
 .text._sbrk_r  0x0000a248       0x20 c:/program files/microchip/xc32/v3.01/bin/bin/../../lib/gcc/pic32c/8.3.1/../../../../pic32c/lib/thumb/v7e-m+fp/hard\libc_nano.a(lib_a-sbrkr.o)
                0x0000a248                _sbrk_r

.text._close_r%302
                0x0000a268       0x20
 .text._close_r
                0x0000a268       0x20 c:/program files/microchip/xc32/v3.01/bin/bin/../../lib/gcc/pic32c/8.3.1/../../../../pic32c/lib/thumb/v7e-m+fp/hard\libc_nano.a(lib_a-closer.o)
                0x0000a268                _close_r

.text._isatty_r%303
                0x0000a288       0x20
 .text._isatty_r
                0x0000a288       0x20 c:/program files/microchip/xc32/v3.01/bin/bin/../../lib/gcc/pic32c/8.3.1/../../../../pic32c/lib/thumb/v7e-m+fp/hard\libc_nano.a(lib_a-isattyr.o)
                0x0000a288                _isatty_r

.text.SQI_EnableQuadMode%304
                0x0000a2a8       0x1e
 .text.SQI_EnableQuadMode
                0x0000a2a8       0x1e build/LAN9255_SQI_INDIRECT_MODE/production/_ext/1671622016/Drivers.o
                0x0000a2a8                SQI_EnableQuadMode

.text.SQI_DisableQuadMode%305
                0x0000a2c6       0x1e
 .text.SQI_DisableQuadMode
                0x0000a2c6       0x1e build/LAN9255_SQI_INDIRECT_MODE/production/_ext/1671622016/Drivers.o
                0x0000a2c6                SQI_DisableQuadMode

.text.NVMCTRL_BlockErase%306
                0x0000a2e4       0x1c
 .text.NVMCTRL_BlockErase
                0x0000a2e4       0x1c build/LAN9255_SQI_INDIRECT_MODE/production/_ext/1593096446/plib_nvmctrl.o
                0x0000a2e4                NVMCTRL_BlockErase

.text.SERCOM0_USART_ErrorGet%307
                0x0000a300       0x1c
 .text.SERCOM0_USART_ErrorGet
                0x0000a300       0x1c build/LAN9255_SQI_INDIRECT_MODE/production/_ext/504274921/plib_sercom0_usart.o
                0x0000a300                SERCOM0_USART_ErrorGet

.text.SysTick_Handler%308
                0x0000a31c       0x1c
 .text.SysTick_Handler
                0x0000a31c       0x1c build/LAN9255_SQI_INDIRECT_MODE/production/_ext/1827571544/plib_systick.o
                0x0000a31c                SysTick_Handler

.rodata.aName0x1C12%309
                0x0000a338       0x1c
 .rodata.aName0x1C12
                0x0000a338       0x1c build/LAN9255_SQI_INDIRECT_MODE/production/_ext/108134065/coeappl.o
                0x0000a338                aName0x1C12

.rodata.aName0x1C13%310
                0x0000a354       0x1c
 .rodata.aName0x1C13
                0x0000a354       0x1c build/LAN9255_SQI_INDIRECT_MODE/production/_ext/108134065/coeappl.o
                0x0000a354                aName0x1C13

.text.FOE_Init%311
                0x0000a370       0x1c
 .text.FOE_Init
                0x0000a370       0x1c build/LAN9255_SQI_INDIRECT_MODE/production/_ext/108134065/ecatfoe.o
                0x0000a370                FOE_Init

.text.FOE_ContinueInd%312
                0x0000a38c       0x1c
 .text.FOE_ContinueInd
                0x0000a38c       0x1c build/LAN9255_SQI_INDIRECT_MODE/production/_ext/108134065/ecatfoe.o
                0x0000a38c                FOE_ContinueInd

.text.GetSyncMan%313
                0x0000a3a8       0x1c
 .text.GetSyncMan
                0x0000a3a8       0x1c build/LAN9255_SQI_INDIRECT_MODE/production/_ext/108134065/ecatslv.o
                0x0000a3a8                GetSyncMan

.text.APP_FW_StateBOOTtoINIT%314
                0x0000a3c4       0x1c
 .text.APP_FW_StateBOOTtoINIT
                0x0000a3c4       0x1c build/LAN9255_SQI_INDIRECT_MODE/production/_ext/108134065/sample_app.o
                0x0000a3c4                APP_FW_StateBOOTtoINIT

.text.memcpy%315
                0x0000a3e0       0x1c
 .text.memcpy   0x0000a3e0       0x1c c:/program files/microchip/xc32/v3.01/bin/bin/../../lib/gcc/pic32c/8.3.1/../../../../pic32c/lib/thumb/v7e-m+fp/hard\libc_nano.a(lib_a-memcpy-stub.o)
                0x0000a3e0                memcpy

.text._fputwc_r%316
                0x0000a3fc       0x1c
 .text._fputwc_r
                0x0000a3fc       0x1c c:/program files/microchip/xc32/v3.01/bin/bin/../../lib/gcc/pic32c/8.3.1/../../../../pic32c/lib/thumb/v7e-m+fp/hard\libc_nano.a(lib_a-fputwc.o)
                0x0000a3fc                _fputwc_r

.text.__ascii_wctomb%317
                0x0000a418       0x1a
 .text.__ascii_wctomb
                0x0000a418       0x1a c:/program files/microchip/xc32/v3.01/bin/bin/../../lib/gcc/pic32c/8.3.1/../../../../pic32c/lib/thumb/v7e-m+fp/hard\libc_nano.a(lib_a-wctomb_r.o)
                0x0000a418                __ascii_wctomb

.text.oledc_fill_screen%318
                0x0000a432       0x18
 .text.oledc_fill_screen
                0x0000a432       0x18 build/LAN9255_SQI_INDIRECT_MODE/production/_ext/1865488526/oledc_driver.o
                0x0000a432                oledc_fill_screen

.rodata.aName0x6021%319
                0x0000a44c       0x18
 .rodata.aName0x6021
                0x0000a44c       0x18 build/LAN9255_SQI_INDIRECT_MODE/production/_ext/108134065/coeappl.o
                0x0000a44c                aName0x6021

.text.FOE_Write%320
                0x0000a464       0x18
 .text.FOE_Write
                0x0000a464       0x18 build/LAN9255_SQI_INDIRECT_MODE/production/_ext/108134065/foeappl.o
                0x0000a464                FOE_Write

.text.NVMCTRL_IsBusy%321
                0x0000a47c       0x14
 .text.NVMCTRL_IsBusy
                0x0000a47c       0x14 build/LAN9255_SQI_INDIRECT_MODE/production/_ext/1593096446/plib_nvmctrl.o
                0x0000a47c                NVMCTRL_IsBusy

.text.Delay_ms%322
                0x0000a490       0x14
 .text.Delay_ms
                0x0000a490       0x14 build/LAN9255_SQI_INDIRECT_MODE/production/_ext/1865488526/oledc_driver.o
                0x0000a490                Delay_ms

.text.qspi_memcpy_8bit%323
                0x0000a4a4       0x14
 .text.qspi_memcpy_8bit
                0x0000a4a4       0x14 build/LAN9255_SQI_INDIRECT_MODE/production/_ext/1865555181/plib_qspi.o

.text.SYSTICK_TimerStart%324
                0x0000a4b8       0x14
 .text.SYSTICK_TimerStart
                0x0000a4b8       0x14 build/LAN9255_SQI_INDIRECT_MODE/production/_ext/1827571544/plib_systick.o
                0x0000a4b8                SYSTICK_TimerStart

.text.ECAT_SysTick_Handler%325
                0x0000a4cc       0x14
 .text.ECAT_SysTick_Handler
                0x0000a4cc       0x14 build/LAN9255_SQI_INDIRECT_MODE/production/_ext/1671622016/Drivers.o
                0x0000a4cc                ECAT_SysTick_Handler

.text.PDI_Timer_Interrupt%326
                0x0000a4e0       0x14
 .text.PDI_Timer_Interrupt
                0x0000a4e0       0x14 build/LAN9255_SQI_INDIRECT_MODE/production/_ext/1671622016/Drivers.o
                0x0000a4e0                PDI_Timer_Interrupt

.text.PDI_IRQ_Interrupt%327
                0x0000a4f4       0x14
 .text.PDI_IRQ_Interrupt
                0x0000a4f4       0x14 build/LAN9255_SQI_INDIRECT_MODE/production/_ext/108147519/ESC_Utils.o
                0x0000a4f4                PDI_IRQ_Interrupt

.rodata.aName0x1009%328
                0x0000a508       0x14
 .rodata.aName0x1009
                0x0000a508       0x14 build/LAN9255_SQI_INDIRECT_MODE/production/_ext/108134065/coeappl.o
                0x0000a508                aName0x1009

.rodata.aName0x100A%329
                0x0000a51c       0x14
 .rodata.aName0x100A
                0x0000a51c       0x14 build/LAN9255_SQI_INDIRECT_MODE/production/_ext/108134065/coeappl.o
                0x0000a51c                aName0x100A

.rodata.aName0x10F8%330
                0x0000a530       0x14
 .rodata.aName0x10F8
                0x0000a530       0x14 build/LAN9255_SQI_INDIRECT_MODE/production/_ext/108134065/coeappl.o
                0x0000a530                aName0x10F8

.rodata.aName0x1C00%331
                0x0000a544       0x14
 .rodata.aName0x1C00
                0x0000a544       0x14 build/LAN9255_SQI_INDIRECT_MODE/production/_ext/108134065/coeappl.o
                0x0000a544                aName0x1C00

.rodata.asEntryDesc0x10F1%332
                0x0000a558       0x14
 .rodata.asEntryDesc0x10F1
                0x0000a558       0x14 build/LAN9255_SQI_INDIRECT_MODE/production/_ext/108134065/coeappl.o
                0x0000a558                asEntryDesc0x10F1

.rodata.asEntryDesc0x1A00%333
                0x0000a56c       0x14
 .rodata.asEntryDesc0x1A00
                0x0000a56c       0x14 build/LAN9255_SQI_INDIRECT_MODE/production/_ext/108134065/coeappl.o
                0x0000a56c                asEntryDesc0x1A00

.rodata.asEntryDesc0x6000%334
                0x0000a580       0x14
 .rodata.asEntryDesc0x6000
                0x0000a580       0x14 build/LAN9255_SQI_INDIRECT_MODE/production/_ext/108134065/coeappl.o
                0x0000a580                asEntryDesc0x6000

.text.COE_Init%335
                0x0000a594       0x14
 .text.COE_Init
                0x0000a594       0x14 build/LAN9255_SQI_INDIRECT_MODE/production/_ext/108134065/ecatcoe.o
                0x0000a594                COE_Init

.text.StopOutputHandler%336
                0x0000a5a8       0x14
 .text.StopOutputHandler
                0x0000a5a8       0x14 build/LAN9255_SQI_INDIRECT_MODE/production/_ext/108134065/ecatslv.o
                0x0000a5a8                StopOutputHandler

.text.EMCY_IsQueueEmpty%337
                0x0000a5bc       0x14
 .text.EMCY_IsQueueEmpty
                0x0000a5bc       0x14 build/LAN9255_SQI_INDIRECT_MODE/production/_ext/108134065/emcy.o
                0x0000a5bc                EMCY_IsQueueEmpty

.rodata%338     0x0000a5d0       0x14
 .rodata        0x0000a5d0       0x14 build/LAN9255_SQI_INDIRECT_MODE/production/_ext/1360937237/app.o

.text._vfprintf_cdnopuxX%339
                0x0000a5e4       0x14
 .text._vfprintf_cdnopuxX
                0x0000a5e4       0x14 c:/program files/microchip/xc32/v3.01/bin/bin/../../lib/gcc/pic32c/8.3.1/../../../../pic32c/lib/thumb/v7e-m+fp/hard\libc_nano.a(_lib_a-nano-vfprintf.cdnopuxX.o)
                0x0000a5e4                _vfprintf_cdnopuxX

.text.NVMCTRL_Initialize%340
                0x0000a5f8       0x10
 .text.NVMCTRL_Initialize
                0x0000a5f8       0x10 build/LAN9255_SQI_INDIRECT_MODE/production/_ext/1593096446/plib_nvmctrl.o
                0x0000a5f8                NVMCTRL_Initialize

.text.NVMCTRL_Read%341
                0x0000a608       0x10
 .text.NVMCTRL_Read
                0x0000a608       0x10 build/LAN9255_SQI_INDIRECT_MODE/production/_ext/1593096446/plib_nvmctrl.o
                0x0000a608                NVMCTRL_Read

.text.NVMCTRL_BankSwap%342
                0x0000a618       0x10
 .text.NVMCTRL_BankSwap
                0x0000a618       0x10 build/LAN9255_SQI_INDIRECT_MODE/production/_ext/1593096446/plib_nvmctrl.o
                0x0000a618                NVMCTRL_BankSwap

.text.oledc_reset%343
                0x0000a628       0x10
 .text.oledc_reset
                0x0000a628       0x10 build/LAN9255_SQI_INDIRECT_MODE/production/_ext/1865488526/oledc_driver.o
                0x0000a628                oledc_reset

.rodata.aName0x1001%344
                0x0000a638       0x10
 .rodata.aName0x1001
                0x0000a638       0x10 build/LAN9255_SQI_INDIRECT_MODE/production/_ext/108134065/coeappl.o
                0x0000a638                aName0x1001

.text.FOE_Error%345
                0x0000a648       0x10
 .text.FOE_Error
                0x0000a648       0x10 build/LAN9255_SQI_INDIRECT_MODE/production/_ext/108134065/foeappl.o
                0x0000a648                FOE_Error

.text.malloc%346
                0x0000a658       0x10
 .text.malloc   0x0000a658       0x10 c:/program files/microchip/xc32/v3.01/bin/bin/../../lib/gcc/pic32c/8.3.1/../../../../pic32c/lib/thumb/v7e-m+fp/hard\libc_nano.a(lib_a-malloc.o)
                0x0000a658                malloc

.text.free%347  0x0000a668       0x10
 .text.free     0x0000a668       0x10 c:/program files/microchip/xc32/v3.01/bin/bin/../../lib/gcc/pic32c/8.3.1/../../../../pic32c/lib/thumb/v7e-m+fp/hard\libc_nano.a(lib_a-malloc.o)
                0x0000a668                free

.text.memset%348
                0x0000a678       0x10
 .text.memset   0x0000a678       0x10 c:/program files/microchip/xc32/v3.01/bin/bin/../../lib/gcc/pic32c/8.3.1/../../../../pic32c/lib/thumb/v7e-m+fp/hard\libc_nano.a(lib_a-memset.o)
                0x0000a678                memset

.text%349       0x0000a688       0x10
 .text          0x0000a688       0x10 c:/program files/microchip/xc32/v3.01/bin/bin/../../lib/gcc/pic32c/8.3.1/../../../../pic32c/lib/thumb/v7e-m+fp/hard\libc_nano.a(lib_a-strlen.o)
                0x0000a688                strlen

.text.EMCY_ContinueInd%350
                0x0000a698        0xe
 .text.EMCY_ContinueInd
                0x0000a698        0xe build/LAN9255_SQI_INDIRECT_MODE/production/_ext/108134065/emcy.o
                0x0000a698                EMCY_ContinueInd

.text.main%351  0x0000a6a6        0xe
 .text.main     0x0000a6a6        0xe build/LAN9255_SQI_INDIRECT_MODE/production/_ext/1360937237/main.o
                0x0000a6a6                main

.text.NVMCTRL_StatusGet%352
                0x0000a6b4        0xc
 .text.NVMCTRL_StatusGet
                0x0000a6b4        0xc build/LAN9255_SQI_INDIRECT_MODE/production/_ext/1593096446/plib_nvmctrl.o
                0x0000a6b4                NVMCTRL_StatusGet

.text.SERCOM4_SPI_CallbackRegister%353
                0x0000a6c0        0xc
 .text.SERCOM4_SPI_CallbackRegister
                0x0000a6c0        0xc build/LAN9255_SQI_INDIRECT_MODE/production/_ext/17022449/plib_sercom4_spi_master.o
                0x0000a6c0                SERCOM4_SPI_CallbackRegister

.text.SERCOM4_SPI_Write%354
                0x0000a6cc        0xc
 .text.SERCOM4_SPI_Write
                0x0000a6cc        0xc build/LAN9255_SQI_INDIRECT_MODE/production/_ext/17022449/plib_sercom4_spi_master.o
                0x0000a6cc                SERCOM4_SPI_Write

.text.SERCOM0_USART_WriteCallbackRegister%355
                0x0000a6d8        0xc
 .text.SERCOM0_USART_WriteCallbackRegister
                0x0000a6d8        0xc build/LAN9255_SQI_INDIRECT_MODE/production/_ext/504274921/plib_sercom0_usart.o
                0x0000a6d8                SERCOM0_USART_WriteCallbackRegister

.text.SERCOM0_USART_ReadCountGet%356
                0x0000a6e4        0xc
 .text.SERCOM0_USART_ReadCountGet
                0x0000a6e4        0xc build/LAN9255_SQI_INDIRECT_MODE/production/_ext/504274921/plib_sercom0_usart.o
                0x0000a6e4                SERCOM0_USART_ReadCountGet

.text.SERCOM0_USART_ReadCallbackRegister%357
                0x0000a6f0        0xc
 .text.SERCOM0_USART_ReadCallbackRegister
                0x0000a6f0        0xc build/LAN9255_SQI_INDIRECT_MODE/production/_ext/504274921/plib_sercom0_usart.o
                0x0000a6f0                SERCOM0_USART_ReadCallbackRegister

.text.SYSTICK_TimerCallbackSet%358
                0x0000a6fc        0xc
 .text.SYSTICK_TimerCallbackSet
                0x0000a6fc        0xc build/LAN9255_SQI_INDIRECT_MODE/production/_ext/1827571544/plib_systick.o
                0x0000a6fc                SYSTICK_TimerCallbackSet

.text.COE_GetObjectDictionary%359
                0x0000a708        0xc
 .text.COE_GetObjectDictionary
                0x0000a708        0xc build/LAN9255_SQI_INDIRECT_MODE/production/_ext/108134065/coeappl.o
                0x0000a708                COE_GetObjectDictionary

.rodata.aName0x1000%360
                0x0000a714        0xc
 .rodata.aName0x1000
                0x0000a714        0xc build/LAN9255_SQI_INDIRECT_MODE/production/_ext/108134065/coeappl.o
                0x0000a714                aName0x1000

.rodata.aName0x1008%361
                0x0000a720        0xc
 .rodata.aName0x1008
                0x0000a720        0xc build/LAN9255_SQI_INDIRECT_MODE/production/_ext/108134065/coeappl.o
                0x0000a720                aName0x1008

.rodata.asEntryDesc0x1A02%362
                0x0000a72c        0xc
 .rodata.asEntryDesc0x1A02
                0x0000a72c        0xc build/LAN9255_SQI_INDIRECT_MODE/production/_ext/108134065/coeappl.o
                0x0000a72c                asEntryDesc0x1A02

.rodata.asEntryDesc0x1C00%363
                0x0000a738        0xc
 .rodata.asEntryDesc0x1C00
                0x0000a738        0xc build/LAN9255_SQI_INDIRECT_MODE/production/_ext/108134065/coeappl.o
                0x0000a738                asEntryDesc0x1C00

.rodata.asEntryDesc0x1C12%364
                0x0000a744        0xc
 .rodata.asEntryDesc0x1C12
                0x0000a744        0xc build/LAN9255_SQI_INDIRECT_MODE/production/_ext/108134065/coeappl.o
                0x0000a744                asEntryDesc0x1C12

.rodata.asEntryDesc0x1C13%365
                0x0000a750        0xc
 .rodata.asEntryDesc0x1C13
                0x0000a750        0xc build/LAN9255_SQI_INDIRECT_MODE/production/_ext/108134065/coeappl.o
                0x0000a750                asEntryDesc0x1C13

.rodata.asEntryDesc0x6021%366
                0x0000a75c        0xc
 .rodata.asEntryDesc0x6021
                0x0000a75c        0xc build/LAN9255_SQI_INDIRECT_MODE/production/_ext/108134065/coeappl.o
                0x0000a75c                asEntryDesc0x6021

.text.FOE_Busy%367
                0x0000a768        0xc
 .text.FOE_Busy
                0x0000a768        0xc build/LAN9255_SQI_INDIRECT_MODE/production/_ext/108134065/foeappl.o
                0x0000a768                FOE_Busy

.text.APP_FW_GetDownloadStateFinished%368
                0x0000a774        0xc
 .text.APP_FW_GetDownloadStateFinished
                0x0000a774        0xc build/LAN9255_SQI_INDIRECT_MODE/production/_ext/108134065/sample_app.o
                0x0000a774                APP_FW_GetDownloadStateFinished

.text.Oled_cb%369
                0x0000a780        0xc
 .text.Oled_cb  0x0000a780        0xc build/LAN9255_SQI_INDIRECT_MODE/production/_ext/1360937237/app.o
                0x0000a780                Oled_cb

.text.uart_rx_cb%370
                0x0000a78c        0xc
 .text.uart_rx_cb
                0x0000a78c        0xc build/LAN9255_SQI_INDIRECT_MODE/production/_ext/1360937237/app.o
                0x0000a78c                uart_rx_cb

.text.APP_Initialize%371
                0x0000a798        0xc
 .text.APP_Initialize
                0x0000a798        0xc build/LAN9255_SQI_INDIRECT_MODE/production/_ext/1360937237/app.o
                0x0000a798                APP_Initialize

.text._cleanup_r%372
                0x0000a7a4        0xc
 .text._cleanup_r
                0x0000a7a4        0xc c:/program files/microchip/xc32/v3.01/bin/bin/../../lib/gcc/pic32c/8.3.1/../../../../pic32c/lib/thumb/v7e-m+fp/hard\libc_nano.a(lib_a-findfp.o)
                0x0000a7a4                _cleanup_r

.text.__locale_mb_cur_max%373
                0x0000a7b0        0xc
 .text.__locale_mb_cur_max
                0x0000a7b0        0xc c:/program files/microchip/xc32/v3.01/bin/bin/../../lib/gcc/pic32c/8.3.1/../../../../pic32c/lib/thumb/v7e-m+fp/hard\libc_nano.a(lib_a-locale.o)
                0x0000a7b0                __locale_mb_cur_max

.text.fstat%374
                0x0000a7bc        0xc
 .text.fstat    0x0000a7bc        0xc c:/program files/microchip/xc32/v3.01/bin/bin/../../lib/gcc/pic32c/8.3.1/../../../../pic32c/lib/thumb/v7e-m+fp/hard\libpic32c.a(fstat.o)
                0x0000a7bc                fstat

.rodata%375     0x0000a7c8        0xb
 .rodata        0x0000a7c8        0xb c:/program files/microchip/xc32/v3.01/bin/bin/../../lib/gcc/pic32c/8.3.1/../../../../pic32c/lib/thumb/v7e-m+fp/hard\libc_nano.a(lib_a-locale.o)

.text.APPL_StopMailboxHandler%376
                0x0000a7d4        0xa
 .text.APPL_StopMailboxHandler
                0x0000a7d4        0xa build/LAN9255_SQI_INDIRECT_MODE/production/_ext/108134065/sample_app.o
                0x0000a7d4                APPL_StopMailboxHandler

.text.SYS_Tasks%377
                0x0000a7de        0x8
 .text.SYS_Tasks
                0x0000a7de        0x8 build/LAN9255_SQI_INDIRECT_MODE/production/_ext/1171490990/tasks.o
                0x0000a7de                SYS_Tasks

.text.CRITICAL_SECTION_ENTER%378
                0x0000a7e6        0x8
 .text.CRITICAL_SECTION_ENTER
                0x0000a7e6        0x8 build/LAN9255_SQI_INDIRECT_MODE/production/_ext/1671622016/Drivers.o
                0x0000a7e6                CRITICAL_SECTION_ENTER

.text.CRITICAL_SECTION_LEAVE%379
                0x0000a7ee        0x8
 .text.CRITICAL_SECTION_LEAVE
                0x0000a7ee        0x8 build/LAN9255_SQI_INDIRECT_MODE/production/_ext/1671622016/Drivers.o
                0x0000a7ee                CRITICAL_SECTION_LEAVE

.text.ESC_Sync0_cb%380
                0x0000a7f6        0x8
 .text.ESC_Sync0_cb
                0x0000a7f6        0x8 build/LAN9255_SQI_INDIRECT_MODE/production/_ext/1671622016/Drivers.o
                0x0000a7f6                ESC_Sync0_cb

.text.ESC_Sync1_cb%381
                0x0000a7fe        0x8
 .text.ESC_Sync1_cb
                0x0000a7fe        0x8 build/LAN9255_SQI_INDIRECT_MODE/production/_ext/1671622016/Drivers.o
                0x0000a7fe                ESC_Sync1_cb

.text.ESC_Init%382
                0x0000a806        0x8
 .text.ESC_Init
                0x0000a806        0x8 build/LAN9255_SQI_INDIRECT_MODE/production/_ext/108147519/ESC_Utils.o
                0x0000a806                ESC_Init

.rodata.sEntryDesc0x1000%383
                0x0000a810        0x8
 .rodata.sEntryDesc0x1000
                0x0000a810        0x8 build/LAN9255_SQI_INDIRECT_MODE/production/_ext/108134065/coeappl.o
                0x0000a810                sEntryDesc0x1000

.rodata.sEntryDesc0x1001%384
                0x0000a818        0x8
 .rodata.sEntryDesc0x1001
                0x0000a818        0x8 build/LAN9255_SQI_INDIRECT_MODE/production/_ext/108134065/coeappl.o
                0x0000a818                sEntryDesc0x1001

.rodata.sEntryDesc0x1008%385
                0x0000a820        0x8
 .rodata.sEntryDesc0x1008
                0x0000a820        0x8 build/LAN9255_SQI_INDIRECT_MODE/production/_ext/108134065/coeappl.o
                0x0000a820                sEntryDesc0x1008

.rodata.sEntryDesc0x1009%386
                0x0000a828        0x8
 .rodata.sEntryDesc0x1009
                0x0000a828        0x8 build/LAN9255_SQI_INDIRECT_MODE/production/_ext/108134065/coeappl.o
                0x0000a828                sEntryDesc0x1009

.rodata.sEntryDesc0x100A%387
                0x0000a830        0x8
 .rodata.sEntryDesc0x100A
                0x0000a830        0x8 build/LAN9255_SQI_INDIRECT_MODE/production/_ext/108134065/coeappl.o
                0x0000a830                sEntryDesc0x100A

.rodata.sEntryDesc0x10F8%388
                0x0000a838        0x8
 .rodata.sEntryDesc0x10F8
                0x0000a838        0x8 build/LAN9255_SQI_INDIRECT_MODE/production/_ext/108134065/coeappl.o
                0x0000a838                sEntryDesc0x10F8

.text.EMCY_GetEmcyBuffer%389
                0x0000a840        0x8
 .text.EMCY_GetEmcyBuffer
                0x0000a840        0x8 build/LAN9255_SQI_INDIRECT_MODE/production/_ext/108134065/emcy.o
                0x0000a840                EMCY_GetEmcyBuffer

.rodata.acEmcyCoeHeader%390
                0x0000a848        0x8
 .rodata.acEmcyCoeHeader
                0x0000a848        0x8 build/LAN9255_SQI_INDIRECT_MODE/production/_ext/108134065/emcy.o
                0x0000a848                acEmcyCoeHeader

.text.__sclose%391
                0x0000a850        0x8
 .text.__sclose
                0x0000a850        0x8 c:/program files/microchip/xc32/v3.01/bin/bin/../../lib/gcc/pic32c/8.3.1/../../../../pic32c/lib/thumb/v7e-m+fp/hard\libc_nano.a(lib_a-stdio.o)
                0x0000a850                __sclose

.text.close%392
                0x0000a858        0x8
 .text.close    0x0000a858        0x8 c:/program files/microchip/xc32/v3.01/bin/bin/../../lib/gcc/pic32c/8.3.1/../../../../pic32c/lib/thumb/v7e-m+fp/hard\libpic32c.a(close.o)
                0x0000a858                close

.text.PORT_GroupSet%393
                0x0000a860        0x4
 .text.PORT_GroupSet
                0x0000a860        0x4 build/LAN9255_SQI_INDIRECT_MODE/production/_ext/1865521619/plib_port.o
                0x0000a860                PORT_GroupSet

.text.PORT_GroupClear%394
                0x0000a864        0x4
 .text.PORT_GroupClear
                0x0000a864        0x4 build/LAN9255_SQI_INDIRECT_MODE/production/_ext/1865521619/plib_port.o
                0x0000a864                PORT_GroupClear

.text.PORT_GroupOutputEnable%395
                0x0000a868        0x4
 .text.PORT_GroupOutputEnable
                0x0000a868        0x4 build/LAN9255_SQI_INDIRECT_MODE/production/_ext/1865521619/plib_port.o
                0x0000a868                PORT_GroupOutputEnable

.text._mon_getc%396
                0x0000a86c        0x4
 .text._mon_getc
                0x0000a86c        0x4 build/LAN9255_SQI_INDIRECT_MODE/production/_ext/163028504/xc32_monitor.o
                0x0000a86c                _mon_getc

.text.OBJ_GetObjDesc%397
                0x0000a870        0x4
 .text.OBJ_GetObjDesc
                0x0000a870        0x4 build/LAN9255_SQI_INDIRECT_MODE/production/_ext/108134065/objdef.o
                0x0000a870                OBJ_GetObjDesc

.text.APPL_StartMailboxHandler%398
                0x0000a874        0x4
 .text.APPL_StartMailboxHandler
                0x0000a874        0x4 build/LAN9255_SQI_INDIRECT_MODE/production/_ext/108134065/sample_app.o
                0x0000a874                APPL_StartMailboxHandler

.text.APPL_StartInputHandler%399
                0x0000a878        0x4
 .text.APPL_StartInputHandler
                0x0000a878        0x4 build/LAN9255_SQI_INDIRECT_MODE/production/_ext/108134065/sample_app.o
                0x0000a878                APPL_StartInputHandler

.text.APPL_StopInputHandler%400
                0x0000a87c        0x4
 .text.APPL_StopInputHandler
                0x0000a87c        0x4 build/LAN9255_SQI_INDIRECT_MODE/production/_ext/108134065/sample_app.o
                0x0000a87c                APPL_StopInputHandler

.text.APPL_StartOutputHandler%401
                0x0000a880        0x4
 .text.APPL_StartOutputHandler
                0x0000a880        0x4 build/LAN9255_SQI_INDIRECT_MODE/production/_ext/108134065/sample_app.o
                0x0000a880                APPL_StartOutputHandler

.text.APPL_StopOutputHandler%402
                0x0000a884        0x4
 .text.APPL_StopOutputHandler
                0x0000a884        0x4 build/LAN9255_SQI_INDIRECT_MODE/production/_ext/108134065/sample_app.o
                0x0000a884                APPL_StopOutputHandler

.text%403       0x0000a888        0x4
 .text          0x0000a888        0x4 c:/program files/microchip/xc32/v3.01/bin/bin/../../lib/gcc/pic32c/8.3.1/thumb/v7e-m+fp/hard\libgcc.a(_dvmd_tls.o)
                0x0000a888                __aeabi_idiv0
                0x0000a888                __aeabi_ldiv0

.rodata._global_impure_ptr%404
                0x0000a88c        0x4
 .rodata._global_impure_ptr
                0x0000a88c        0x4 c:/program files/microchip/xc32/v3.01/bin/bin/../../lib/gcc/pic32c/8.3.1/../../../../pic32c/lib/thumb/v7e-m+fp/hard\libc_nano.a(lib_a-impure.o)
                0x0000a88c                _global_impure_ptr

.text._close%405
                0x0000a890        0x4
 .text._close   0x0000a890        0x4 c:/program files/microchip/xc32/v3.01/bin/bin/../../lib/gcc/pic32c/8.3.1/../../../../pic32c/lib/thumb/v7e-m+fp/hard\libpic32c.a(_close.o)
                0x0000a890                _close

.text._fstat%406
                0x0000a894        0x4
 .text._fstat   0x0000a894        0x4 c:/program files/microchip/xc32/v3.01/bin/bin/../../lib/gcc/pic32c/8.3.1/../../../../pic32c/lib/thumb/v7e-m+fp/hard\libpic32c.a(_fstat.o)
                0x0000a894                _fstat

.text._isatty%407
                0x0000a898        0x4
 .text._isatty  0x0000a898        0x4 c:/program files/microchip/xc32/v3.01/bin/bin/../../lib/gcc/pic32c/8.3.1/../../../../pic32c/lib/thumb/v7e-m+fp/hard\libpic32c.a(_isatty.o)
                0x0000a898                _isatty

.text._lseek%408
                0x0000a89c        0x4
 .text._lseek   0x0000a89c        0x4 c:/program files/microchip/xc32/v3.01/bin/bin/../../lib/gcc/pic32c/8.3.1/../../../../pic32c/lib/thumb/v7e-m+fp/hard\libpic32c.a(_lseek.o)
                0x0000a89c                _lseek

.text._read%409
                0x0000a8a0        0x4
 .text._read    0x0000a8a0        0x4 c:/program files/microchip/xc32/v3.01/bin/bin/../../lib/gcc/pic32c/8.3.1/../../../../pic32c/lib/thumb/v7e-m+fp/hard\libpic32c.a(_read.o)
                0x0000a8a0                _read

.text._write%410
                0x0000a8a4        0x4
 .text._write   0x0000a8a4        0x4 c:/program files/microchip/xc32/v3.01/bin/bin/../../lib/gcc/pic32c/8.3.1/../../../../pic32c/lib/thumb/v7e-m+fp/hard\libpic32c.a(_write.o)
                0x0000a8a4                _write

.text.isatty%411
                0x0000a8a8        0x4
 .text.isatty   0x0000a8a8        0x4 c:/program files/microchip/xc32/v3.01/bin/bin/../../lib/gcc/pic32c/8.3.1/../../../../pic32c/lib/thumb/v7e-m+fp/hard\libpic32c.a(isatty.o)
                0x0000a8a8                isatty

.text.lseek%412
                0x0000a8ac        0x4
 .text.lseek    0x0000a8ac        0x4 c:/program files/microchip/xc32/v3.01/bin/bin/../../lib/gcc/pic32c/8.3.1/../../../../pic32c/lib/thumb/v7e-m+fp/hard\libpic32c.a(lseek.o)
                0x0000a8ac                lseek

.text.EVSYS_Initialize%413
                0x000062ae        0x2
 .text.EVSYS_Initialize
                0x000062ae        0x2 build/LAN9255_SQI_INDIRECT_MODE/production/_ext/1986646378/plib_evsys.o
                0x000062ae                EVSYS_Initialize

.text._mon_putc%414
                0x00006572        0x2
 .text._mon_putc
                0x00006572        0x2 build/LAN9255_SQI_INDIRECT_MODE/production/_ext/163028504/xc32_monitor.o
                0x00006572                _mon_putc

.text.NonMaskableInt_Handler%415
                0x0000751a        0x2
 .text.NonMaskableInt_Handler
                0x0000751a        0x2 build/LAN9255_SQI_INDIRECT_MODE/production/_ext/1171490990/exceptions.o
                0x0000751a                NonMaskableInt_Handler

.text.HardFault_Handler%416
                0x000078fe        0x2
 .text.HardFault_Handler
                0x000078fe        0x2 build/LAN9255_SQI_INDIRECT_MODE/production/_ext/1171490990/exceptions.o
                0x000078fe                HardFault_Handler

.text.DebugMonitor_Handler%417
                0x00007e52        0x2
 .text.DebugMonitor_Handler
                0x00007e52        0x2 build/LAN9255_SQI_INDIRECT_MODE/production/_ext/1171490990/exceptions.o
                0x00007e52                DebugMonitor_Handler

.text.MemoryManagement_Handler%418
                0x0000830e        0x2
 .text.MemoryManagement_Handler
                0x0000830e        0x2 build/LAN9255_SQI_INDIRECT_MODE/production/_ext/1171490990/exceptions.o
                0x0000830e                MemoryManagement_Handler

.text.BusFault_Handler%419
                0x00008b82        0x2
 .text.BusFault_Handler
                0x00008b82        0x2 build/LAN9255_SQI_INDIRECT_MODE/production/_ext/1171490990/exceptions.o
                0x00008b82                BusFault_Handler

.text.UsageFault_Handler%420
                0x00009042        0x2
 .text.UsageFault_Handler
                0x00009042        0x2 build/LAN9255_SQI_INDIRECT_MODE/production/_ext/1171490990/exceptions.o
                0x00009042                UsageFault_Handler

.text.Dummy_Handler%421
                0x000091f2        0x2
 .text.Dummy_Handler
                0x000091f2        0x2 build/LAN9255_SQI_INDIRECT_MODE/production/_ext/1171490990/interrupts.o
                0x000091f2                EIC_EXTINT_9_Handler
                0x000091f2                TCC0_MC5_Handler
                0x000091f2                SVCall_Handler
                0x000091f2                USB_SOF_HSOF_Handler
                0x000091f2                TCC4_OTHER_Handler
                0x000091f2                TCC2_MC2_Handler
                0x000091f2                EVSYS_0_Handler
                0x000091f2                TRNG_Handler
                0x000091f2                TC2_Handler
                0x000091f2                USB_TRCPT0_Handler
                0x000091f2                DAC_OTHER_Handler
                0x000091f2                AC_Handler
                0x000091f2                DAC_EMPTY_0_Handler
                0x000091f2                DMAC_OTHER_Handler
                0x000091f2                EIC_EXTINT_5_Handler
                0x000091f2                SERCOM3_1_Handler
                0x000091f2                SERCOM3_2_Handler
                0x000091f2                EIC_EXTINT_6_Handler
                0x000091f2                PendSV_Handler
                0x000091f2                TCC4_MC0_Handler
                0x000091f2                EVSYS_3_Handler
                0x000091f2                QSPI_Handler
                0x000091f2                TCC2_MC0_Handler
                0x000091f2                PDEC_OTHER_Handler
                0x000091f2                TCC3_MC0_Handler
                0x000091f2                PDEC_MC1_Handler
                0x000091f2                TCC2_MC1_Handler
                0x000091f2                OSCCTRL_XOSC1_Handler
                0x000091f2                PDEC_MC0_Handler
                0x000091f2                EIC_EXTINT_4_Handler
                0x000091f2                EVSYS_OTHER_Handler
                0x000091f2                RTC_Handler
                0x000091f2                TCC1_MC0_Handler
                0x000091f2                SERCOM1_OTHER_Handler
                0x000091f2                TCC2_OTHER_Handler
                0x000091f2                EIC_EXTINT_11_Handler
                0x000091f2                SUPC_BODDET_Handler
                0x000091f2                EIC_EXTINT_14_Handler
                0x000091f2                OSC32KCTRL_Handler
                0x000091f2                EVSYS_1_Handler
                0x000091f2                TCC4_MC1_Handler
                0x000091f2                DMAC_0_Handler
                0x000091f2                SUPC_OTHER_Handler
                0x000091f2                WDT_Handler
                0x000091f2                EIC_EXTINT_15_Handler
                0x000091f2                TCC3_MC1_Handler
                0x000091f2                SERCOM5_0_Handler
                0x000091f2                TC4_Handler
                0x000091f2                TC1_Handler
                0x000091f2                TCC1_MC1_Handler
                0x000091f2                TCC1_OTHER_Handler
                0x000091f2                PAC_Handler
                0x000091f2                TC3_Handler
                0x000091f2                Dummy_Handler
                0x000091f2                DAC_RESRDY_0_Handler
                0x000091f2                SERCOM5_1_Handler
                0x000091f2                DMAC_2_Handler
                0x000091f2                TCC0_MC4_Handler
                0x000091f2                USB_TRCPT1_Handler
                0x000091f2                TCC0_MC3_Handler
                0x000091f2                EIC_EXTINT_12_Handler
                0x000091f2                OSCCTRL_DPLL0_Handler
                0x000091f2                SERCOM5_OTHER_Handler
                0x000091f2                PM_Handler
                0x000091f2                OSCCTRL_DFLL_Handler
                0x000091f2                DAC_RESRDY_1_Handler
                0x000091f2                DMAC_1_Handler
                0x000091f2                USB_OTHER_Handler
                0x000091f2                GMAC_Handler
                0x000091f2                TCC0_OTHER_Handler
                0x000091f2                EIC_EXTINT_10_Handler
                0x000091f2                TCC1_MC3_Handler
                0x000091f2                OSCCTRL_XOSC0_Handler
                0x000091f2                TCC0_MC0_Handler
                0x000091f2                EIC_EXTINT_2_Handler
                0x000091f2                SDHC0_Handler
                0x000091f2                SERCOM1_1_Handler
                0x000091f2                I2S_Handler
                0x000091f2                PCC_Handler
                0x000091f2                TCC3_OTHER_Handler
                0x000091f2                EIC_EXTINT_13_Handler
                0x000091f2                SERCOM1_0_Handler
                0x000091f2                PUKCC_Handler
                0x000091f2                SERCOM2_1_Handler
                0x000091f2                SERCOM1_2_Handler
                0x000091f2                SERCOM3_0_Handler
                0x000091f2                TCC1_MC2_Handler
                0x000091f2                ADC1_RESRDY_Handler
                0x000091f2                NVMCTRL_1_Handler
                0x000091f2                SERCOM5_2_Handler
                0x000091f2                SERCOM2_2_Handler
                0x000091f2                DAC_EMPTY_1_Handler
                0x000091f2                ADC1_OTHER_Handler
                0x000091f2                OSCCTRL_DPLL1_Handler
                0x000091f2                EIC_EXTINT_3_Handler
                0x000091f2                SERCOM3_OTHER_Handler
                0x000091f2                EIC_EXTINT_8_Handler
                0x000091f2                NVMCTRL_0_Handler
                0x000091f2                ADC0_RESRDY_Handler
                0x000091f2                ADC0_OTHER_Handler
                0x000091f2                MCLK_Handler
                0x000091f2                EVSYS_2_Handler
                0x000091f2                SERCOM2_OTHER_Handler
                0x000091f2                FREQM_Handler
                0x000091f2                TC0_Handler
                0x000091f2                TCC0_MC1_Handler
                0x000091f2                DMAC_3_Handler
                0x000091f2                RAMECC_Handler
                0x000091f2                TC5_Handler
                0x000091f2                SERCOM2_0_Handler
                0x000091f2                AES_Handler
                0x000091f2                ICM_Handler
                0x000091f2                TCC0_MC2_Handler

.text.BL_Start%422
                0x000095ba        0x2
 .text.BL_Start
                0x000095ba        0x2 build/LAN9255_SQI_INDIRECT_MODE/production/_ext/108134065/bootmode.o
                0x000095ba                BL_Start

.text.BL_Stop%423
                0x00009a56        0x2
 .text.BL_Stop  0x00009a56        0x2 build/LAN9255_SQI_INDIRECT_MODE/production/_ext/108134065/bootmode.o
                0x00009a56                BL_Stop

.text.APPL_AckErrorInd%424
                0x0000a44a        0x2
 .text.APPL_AckErrorInd
                0x0000a44a        0x2 build/LAN9255_SQI_INDIRECT_MODE/production/_ext/108134065/sample_app.o
                0x0000a44a                APPL_AckErrorInd

.text.uart_tx_cb%425
                0x0000a80e        0x2
 .text.uart_tx_cb
                0x0000a80e        0x2 build/LAN9255_SQI_INDIRECT_MODE/production/_ext/1360937237/app.o
                0x0000a80e                uart_tx_cb

.text.__malloc_lock%426
                0x000059ee        0x2
 .text.__malloc_lock
                0x000059ee        0x2 c:/program files/microchip/xc32/v3.01/bin/bin/../../lib/gcc/pic32c/8.3.1/../../../../pic32c/lib/thumb/v7e-m+fp/hard\libc_nano.a(lib_a-mlock.o)
                0x000059ee                __malloc_lock

.text.__malloc_unlock%427
                0x0000a8b0        0x2
 .text.__malloc_unlock
                0x0000a8b0        0x2 c:/program files/microchip/xc32/v3.01/bin/bin/../../lib/gcc/pic32c/8.3.1/../../../../pic32c/lib/thumb/v7e-m+fp/hard\libc_nano.a(lib_a-mlock.o)
                0x0000a8b0                __malloc_unlock
