Archive member included to satisfy reference by file (symbol)

c:/program files/microchip/xc32/v2.40/bin/bin/../../lib/gcc/pic32c/6.2.1/../../../../pic32c/lib/v7e-m/fpv4-sp/hard\libpic32c.a(data_init.o)
                              build/LAN9255_SQI_INDIRECT_MODE/production/_ext/1171490990/startup_xc32.o (__pic32c_data_initialization)
c:/program files/microchip/xc32/v2.40/bin/bin/../../lib/gcc/pic32c/6.2.1/../../../../pic32c/lib/v7e-m/fpv4-sp/hard\libc_nano.a(lib_a-init.o)
                              build/LAN9255_SQI_INDIRECT_MODE/production/_ext/1171490990/startup_xc32.o (__libc_init_array)
c:/program files/microchip/xc32/v2.40/bin/bin/../../lib/gcc/pic32c/6.2.1/../../../../pic32c/lib/v7e-m/fpv4-sp/hard\libc_nano.a(lib_a-malloc.o)
                              build/LAN9255_SQI_INDIRECT_MODE/production/_ext/1671622016/Drivers.o (malloc)
c:/program files/microchip/xc32/v2.40/bin/bin/../../lib/gcc/pic32c/6.2.1/../../../../pic32c/lib/v7e-m/fpv4-sp/hard\libc_nano.a(lib_a-memcpy-stub.o)
                              build/LAN9255_SQI_INDIRECT_MODE/production/_ext/1593096446/plib_nvmctrl.o (memcpy)
c:/program files/microchip/xc32/v2.40/bin/bin/../../lib/gcc/pic32c/6.2.1/../../../../pic32c/lib/v7e-m/fpv4-sp/hard\libc_nano.a(lib_a-memset.o)
                              build/LAN9255_SQI_INDIRECT_MODE/production/_ext/1671622016/Drivers.o (memset)
c:/program files/microchip/xc32/v2.40/bin/bin/../../lib/gcc/pic32c/6.2.1/../../../../pic32c/lib/v7e-m/fpv4-sp/hard\libc_nano.a(lib_a-nano-freer.o)
                              c:/program files/microchip/xc32/v2.40/bin/bin/../../lib/gcc/pic32c/6.2.1/../../../../pic32c/lib/v7e-m/fpv4-sp/hard\libc_nano.a(lib_a-malloc.o) (_free_r)
c:/program files/microchip/xc32/v2.40/bin/bin/../../lib/gcc/pic32c/6.2.1/../../../../pic32c/lib/v7e-m/fpv4-sp/hard\libc_nano.a(lib_a-nano-mallocr.o)
                              c:/program files/microchip/xc32/v2.40/bin/bin/../../lib/gcc/pic32c/6.2.1/../../../../pic32c/lib/v7e-m/fpv4-sp/hard\libc_nano.a(lib_a-malloc.o) (_malloc_r)
c:/program files/microchip/xc32/v2.40/bin/bin/../../lib/gcc/pic32c/6.2.1/../../../../pic32c/lib/v7e-m/fpv4-sp/hard\libc_nano.a(lib_a-sbrkr.o)
                              c:/program files/microchip/xc32/v2.40/bin/bin/../../lib/gcc/pic32c/6.2.1/../../../../pic32c/lib/v7e-m/fpv4-sp/hard\libc_nano.a(lib_a-nano-mallocr.o) (_sbrk_r)
c:/program files/microchip/xc32/v2.40/bin/bin/../../lib/gcc/pic32c/6.2.1/../../../../pic32c/lib/v7e-m/fpv4-sp/hard\libc_nano.a(lib_a-strlen.o)
                              build/LAN9255_SQI_INDIRECT_MODE/production/_ext/108134065/objdef.o (strlen)
c:/program files/microchip/xc32/v2.40/bin/bin/../../lib/gcc/pic32c/6.2.1/../../../../pic32c/lib/v7e-m/fpv4-sp/hard\libc_nano.a(lib_a-impure.o)
                              c:/program files/microchip/xc32/v2.40/bin/bin/../../lib/gcc/pic32c/6.2.1/../../../../pic32c/lib/v7e-m/fpv4-sp/hard\libc_nano.a(lib_a-malloc.o) (_impure_ptr)
c:/program files/microchip/xc32/v2.40/bin/bin/../../lib/gcc/pic32c/6.2.1/../../../../pic32c/lib/v7e-m/fpv4-sp/hard\libc_nano.a(lib_a-mlock.o)
                              c:/program files/microchip/xc32/v2.40/bin/bin/../../lib/gcc/pic32c/6.2.1/../../../../pic32c/lib/v7e-m/fpv4-sp/hard\libc_nano.a(lib_a-nano-freer.o) (__malloc_lock)
c:/program files/microchip/xc32/v2.40/bin/bin/../../lib/gcc/pic32c/6.2.1/../../../../pic32c/lib/v7e-m/fpv4-sp/hard\libc_nano.a(lib_a-reent.o)
                              c:/program files/microchip/xc32/v2.40/bin/bin/../../lib/gcc/pic32c/6.2.1/../../../../pic32c/lib/v7e-m/fpv4-sp/hard\libc_nano.a(lib_a-sbrkr.o) (errno)
c:/program files/microchip/xc32/v2.40/bin/bin/../../lib/gcc/pic32c/6.2.1/../../../../pic32c/lib/v7e-m/fpv4-sp/hard\libpic32c.a(sbrk.o)
                              c:/program files/microchip/xc32/v2.40/bin/bin/../../lib/gcc/pic32c/6.2.1/../../../../pic32c/lib/v7e-m/fpv4-sp/hard\libc_nano.a(lib_a-sbrkr.o) (_sbrk)

Allocating common symbols
Common symbol       size              file

b3BufferMode        0x1               build/LAN9255_SQI_INDIRECT_MODE/production/_ext/108134065/ecatslv.o
nEcatStateTrans     0x2               build/LAN9255_SQI_INDIRECT_MODE/production/_ext/108134065/ecatslv.o
EcatWdCounter       0x2               build/LAN9255_SQI_INDIRECT_MODE/production/_ext/108134065/ecatslv.o
sSendEmcyQueue      0x10              build/LAN9255_SQI_INDIRECT_MODE/production/_ext/108134065/emcy.o
bApplEsmPending     0x1               build/LAN9255_SQI_INDIRECT_MODE/production/_ext/108134065/ecatslv.o
pCoeSendStored      0x4               build/LAN9255_SQI_INDIRECT_MODE/production/_ext/108134065/ecatcoe.o
pAPPL_EEPROM_Store  0x4               build/LAN9255_SQI_INDIRECT_MODE/production/_ext/108134065/ecatappl.o
nSdoInfoIndex       0x2               build/LAN9255_SQI_INDIRECT_MODE/production/_ext/108134065/sdoserv.o
pStoreData          0x4               build/LAN9255_SQI_INDIRECT_MODE/production/_ext/108134065/sdoserv.o
u8MbxReadCounter    0x1               build/LAN9255_SQI_INDIRECT_MODE/production/_ext/108134065/mailbox.o
nAlStatus           0x1               build/LAN9255_SQI_INDIRECT_MODE/production/_ext/108134065/ecatslv.o
nPdOutputSize       0x2               build/LAN9255_SQI_INDIRECT_MODE/production/_ext/108134065/ecatslv.o
u32FileOffset       0x4               build/LAN9255_SQI_INDIRECT_MODE/production/_ext/108134065/ecatfoe.o
u16LocalErrorCode   0x2               build/LAN9255_SQI_INDIRECT_MODE/production/_ext/108134065/ecatslv.o
nSdoSegBytesToHandle
                    0x4               build/LAN9255_SQI_INDIRECT_MODE/production/_ext/108134065/sdoserv.o
errno               0x4               c:/program files/microchip/xc32/v2.40/bin/bin/../../lib/gcc/pic32c/6.2.1/../../../../pic32c/lib/v7e-m/fpv4-sp/hard\libc_nano.a(lib_a-reent.o)
sMbxSendQueue       0x34              build/LAN9255_SQI_INDIRECT_MODE/production/_ext/108134065/mailbox.o
gEscALEvent         0x2               build/LAN9255_SQI_INDIRECT_MODE/production/_ext/108147519/LAN925x.o
sMbxReceiveQueue    0x34              build/LAN9255_SQI_INDIRECT_MODE/production/_ext/108134065/mailbox.o
bNoMbxMemoryAvailable
                    0x1               build/LAN9255_SQI_INDIRECT_MODE/production/_ext/108134065/mailbox.o
u16FileAccessState  0x2               build/LAN9255_SQI_INDIRECT_MODE/production/_ext/108134065/ecatfoe.o
Sync0WdCounter      0x2               build/LAN9255_SQI_INDIRECT_MODE/production/_ext/108134065/ecatslv.o
u32PacketNo         0x4               build/LAN9255_SQI_INDIRECT_MODE/production/_ext/108134065/ecatfoe.o
bMinCycleTimeMeasurementStarted
                    0x1               build/LAN9255_SQI_INDIRECT_MODE/production/_ext/108134065/ecatappl.o
bLocalErrorFlag     0x1               build/LAN9255_SQI_INDIRECT_MODE/production/_ext/108134065/ecatslv.o
bSendMbxIsFull      0x1               build/LAN9255_SQI_INDIRECT_MODE/production/_ext/108134065/mailbox.o
u32CycleTimeStartValue
                    0x4               build/LAN9255_SQI_INDIRECT_MODE/production/_ext/108134065/ecatappl.o
LatchInputSync0Counter
                    0x2               build/LAN9255_SQI_INDIRECT_MODE/production/_ext/108134065/ecatslv.o
i16WaitForPllRunningCnt
                    0x2               build/LAN9255_SQI_INDIRECT_MODE/production/_ext/108134065/ecatslv.o
nEscAddrOutputData  0x2               build/LAN9255_SQI_INDIRECT_MODE/production/_ext/108134065/ecatslv.o
bMbxRunning         0x1               build/LAN9255_SQI_INDIRECT_MODE/production/_ext/108134065/mailbox.o
aFileData           0x2000            build/LAN9255_SQI_INDIRECT_MODE/production/_ext/108134065/sample_app.o
Sync0WdValue        0x2               build/LAN9255_SQI_INDIRECT_MODE/production/_ext/108134065/ecatslv.o
u8EcatRunLed        0x1               build/LAN9255_SQI_INDIRECT_MODE/production/_ext/108134065/ecatslv.o
i16WaitForPllRunningTimeout
                    0x2               build/LAN9255_SQI_INDIRECT_MODE/production/_ext/108134065/ecatslv.o
bSdoSegAccess       0x1               build/LAN9255_SQI_INDIRECT_MODE/production/_ext/108134065/sdoserv.o
pAPPL_EEPROM_Read   0x4               build/LAN9255_SQI_INDIRECT_MODE/production/_ext/108134065/ecatappl.o
Sync1WdValue        0x2               build/LAN9255_SQI_INDIRECT_MODE/production/_ext/108134065/ecatslv.o
pAPPL_EEPROM_Write  0x4               build/LAN9255_SQI_INDIRECT_MODE/production/_ext/108134065/ecatappl.o
bSdoSegFollows      0x1               build/LAN9255_SQI_INDIRECT_MODE/production/_ext/108134065/sdoserv.o
nSdoSegCompleteSize
                    0x4               build/LAN9255_SQI_INDIRECT_MODE/production/_ext/108134065/sdoserv.o
u16ALEventMask      0x2               build/LAN9255_SQI_INDIRECT_MODE/production/_ext/108134065/ecatslv.o
pSdoPendFunc        0x4               build/LAN9255_SQI_INDIRECT_MODE/production/_ext/108134065/sdoserv.o
bDcRunning          0x1               build/LAN9255_SQI_INDIRECT_MODE/production/_ext/108134065/ecatslv.o
u32dummy            0x4               build/LAN9255_SQI_INDIRECT_MODE/production/_ext/108134065/ecatslv.o
bRunApplication     0x1               build/LAN9255_SQI_INDIRECT_MODE/production/_ext/108134065/ecatappl.o
u16EscAddrReceiveMbx
                    0x2               build/LAN9255_SQI_INDIRECT_MODE/production/_ext/108134065/mailbox.o
psStoreMbx          0x4               build/LAN9255_SQI_INDIRECT_MODE/production/_ext/108134065/mailbox.o
SyncManInfo         0x8               build/LAN9255_SQI_INDIRECT_MODE/production/_ext/108134065/ecatslv.o
b32BitDc            0x1               build/LAN9255_SQI_INDIRECT_MODE/production/_ext/108134065/ecatslv.o
u32SystemTimeReadFailure
                    0x4               build/LAN9255_SQI_INDIRECT_MODE/production/_ext/108134065/ecatappl.o
u8PendingSdo        0x1               build/LAN9255_SQI_INDIRECT_MODE/production/_ext/108134065/sdoserv.o
appData             0x1               build/LAN9255_SQI_INDIRECT_MODE/production/_ext/1360937237/app.o
LatchInputSync0Value
                    0x2               build/LAN9255_SQI_INDIRECT_MODE/production/_ext/108134065/ecatslv.o
u16SendMbxSize      0x2               build/LAN9255_SQI_INDIRECT_MODE/production/_ext/108134065/mailbox.o
bEcatWaitForAlControlRes
                    0x1               build/LAN9255_SQI_INDIRECT_MODE/production/_ext/108134065/ecatslv.o
psReadMbx           0x4               build/LAN9255_SQI_INDIRECT_MODE/production/_ext/108134065/mailbox.o
bEcatWaitForInputUpdate
                    0x1               build/LAN9255_SQI_INDIRECT_MODE/production/_ext/108134065/ecatappl.o
sSyncManInPar       0x44              build/LAN9255_SQI_INDIRECT_MODE/production/_ext/108134065/objdef.o
nPdInputSize        0x2               build/LAN9255_SQI_INDIRECT_MODE/production/_ext/108134065/ecatslv.o
u32MinCycleTimeValue
                    0x4               build/LAN9255_SQI_INDIRECT_MODE/production/_ext/108134065/ecatappl.o
u16SmSync0Value     0x2               build/LAN9255_SQI_INDIRECT_MODE/production/_ext/108134065/ecatslv.o
bStoreCompleteAccess
                    0x1               build/LAN9255_SQI_INDIRECT_MODE/production/_ext/108134065/sdoserv.o
aPdOutputData       0x44              build/LAN9255_SQI_INDIRECT_MODE/production/_ext/108134065/ecatappl.o
bSdoSegLastToggle   0x1               build/LAN9255_SQI_INDIRECT_MODE/production/_ext/108134065/sdoserv.o
eicCallbackObject   0xc0              build/LAN9255_SQI_INDIRECT_MODE/production/_ext/60167341/plib_eic.o
nSdoSegService      0x1               build/LAN9255_SQI_INDIRECT_MODE/production/_ext/108134065/sdoserv.o
bReceiveMbxIsLocked
                    0x1               build/LAN9255_SQI_INDIRECT_MODE/production/_ext/108134065/mailbox.o
pAPPL_FoeError      0x4               build/LAN9255_SQI_INDIRECT_MODE/production/_ext/108134065/ecatappl.o
u16EscAddrSendMbx   0x2               build/LAN9255_SQI_INDIRECT_MODE/production/_ext/108134065/mailbox.o
u16EepromStoreTimeoutCounter
                    0x2               build/LAN9255_SQI_INDIRECT_MODE/production/_ext/108134065/ecatappl.o
sysObj              0x1               build/LAN9255_SQI_INDIRECT_MODE/production/_ext/1171490990/initialization.o
nMaxEscAddress      0x2               build/LAN9255_SQI_INDIRECT_MODE/production/_ext/108134065/ecatslv.o
bEcatFirstOutputsReceived
                    0x1               build/LAN9255_SQI_INDIRECT_MODE/production/_ext/108134065/ecatslv.o
psWriteMbx          0x4               build/LAN9255_SQI_INDIRECT_MODE/production/_ext/108134065/mailbox.o
u8MbxWriteCounter   0x1               build/LAN9255_SQI_INDIRECT_MODE/production/_ext/108134065/mailbox.o
u32LastDc32Value    0x4               build/LAN9255_SQI_INDIRECT_MODE/production/_ext/108134065/coeappl.o
u32CheckForDcOverrunCnt
                    0x4               build/LAN9255_SQI_INDIRECT_MODE/production/_ext/108134065/coeappl.o
u8MailboxSendReqStored
                    0x1               build/LAN9255_SQI_INDIRECT_MODE/production/_ext/108134065/mailbox.o
EepromReadSize      0x2               build/LAN9255_SQI_INDIRECT_MODE/production/_ext/108134065/ecatappl.o
pSdoInfoObjEntry    0x4               build/LAN9255_SQI_INDIRECT_MODE/production/_ext/108134065/sdoserv.o
bSmSyncSequenceValid
                    0x1               build/LAN9255_SQI_INDIRECT_MODE/production/_ext/108134065/ecatslv.o
nSdoInfoFragmentsLeft
                    0x2               build/LAN9255_SQI_INDIRECT_MODE/production/_ext/108134065/sdoserv.o
EsmTimeoutCounter   0x2               build/LAN9255_SQI_INDIRECT_MODE/production/_ext/108134065/ecatslv.o
pAPPL_FoeReadData   0x4               build/LAN9255_SQI_INDIRECT_MODE/production/_ext/108134065/ecatappl.o
u16ReceiveMbxSize   0x2               build/LAN9255_SQI_INDIRECT_MODE/production/_ext/108134065/mailbox.o
pSdoResStored       0x4               build/LAN9255_SQI_INDIRECT_MODE/production/_ext/108134065/sdoserv.o
asEmcy              0x8               build/LAN9255_SQI_INDIRECT_MODE/production/_ext/108134065/emcy.o
bBootMode           0x1               build/LAN9255_SQI_INDIRECT_MODE/production/_ext/108134065/ecatslv.o
u32StoreDataSize    0x4               build/LAN9255_SQI_INDIRECT_MODE/production/_ext/108134065/sdoserv.o
pSdoSegData         0x4               build/LAN9255_SQI_INDIRECT_MODE/production/_ext/108134065/sdoserv.o
bDcSyncActive       0x1               build/LAN9255_SQI_INDIRECT_MODE/production/_ext/108134065/ecatslv.o
bEcatOutputUpdateRunning
                    0x1               build/LAN9255_SQI_INDIRECT_MODE/production/_ext/108134065/ecatslv.o
pAPPL_MainLoop      0x4               build/LAN9255_SQI_INDIRECT_MODE/production/_ext/108134065/ecatappl.o
sSyncManOutPar      0x44              build/LAN9255_SQI_INDIRECT_MODE/production/_ext/108134065/objdef.o
sEmptyEmcyQueue     0x10              build/LAN9255_SQI_INDIRECT_MODE/production/_ext/108134065/emcy.o
Sync1WdCounter      0x2               build/LAN9255_SQI_INDIRECT_MODE/production/_ext/108134065/ecatslv.o
EcatWdValue         0x2               build/LAN9255_SQI_INDIRECT_MODE/production/_ext/108134065/ecatslv.o
bEtherCATErrorLed   0x1               build/LAN9255_SQI_INDIRECT_MODE/production/_ext/108134065/ecatappl.o
u32MinCycleTimeStartValue
                    0x4               build/LAN9255_SQI_INDIRECT_MODE/production/_ext/108134065/ecatappl.o
bSyncSetByUser      0x1               build/LAN9255_SQI_INDIRECT_MODE/production/_ext/108134065/objdef.o
bMbxRepeatToggle    0x1               build/LAN9255_SQI_INDIRECT_MODE/production/_ext/108134065/mailbox.o
bEcatInputUpdateRunning
                    0x1               build/LAN9255_SQI_INDIRECT_MODE/production/_ext/108134065/ecatslv.o
bEscIntEnabled      0x1               build/LAN9255_SQI_INDIRECT_MODE/production/_ext/108134065/ecatslv.o
psRepeatMbx         0x4               build/LAN9255_SQI_INDIRECT_MODE/production/_ext/108134065/mailbox.o
nSdoSegIndex        0x2               build/LAN9255_SQI_INDIRECT_MODE/production/_ext/108134065/sdoserv.o
aSdoInfoHeader      0x10              build/LAN9255_SQI_INDIRECT_MODE/production/_ext/108134065/sdoserv.o
pSdoSegObjEntry     0x4               build/LAN9255_SQI_INDIRECT_MODE/production/_ext/108134065/sdoserv.o
aPdInputData        0x44              build/LAN9255_SQI_INDIRECT_MODE/production/_ext/108134065/ecatappl.o
bWdTrigger          0x1               build/LAN9255_SQI_INDIRECT_MODE/production/_ext/108134065/ecatslv.o
nSdoSegSubindex     0x1               build/LAN9255_SQI_INDIRECT_MODE/production/_ext/108134065/sdoserv.o
pEEPROM             0x4               build/LAN9255_SQI_INDIRECT_MODE/production/_ext/108134065/ecatappl.o
u16StoreIndex       0x2               build/LAN9255_SQI_INDIRECT_MODE/production/_ext/108134065/sdoserv.o
bEtherCATRunLed     0x1               build/LAN9255_SQI_INDIRECT_MODE/production/_ext/108134065/ecatappl.o
pAPPL_FoeWriteData  0x4               build/LAN9255_SQI_INDIRECT_MODE/production/_ext/108134065/ecatappl.o
u16SmSync0Counter   0x2               build/LAN9255_SQI_INDIRECT_MODE/production/_ext/108134065/ecatslv.o
pFoeSendStored      0x4               build/LAN9255_SQI_INDIRECT_MODE/production/_ext/108134065/ecatfoe.o
nMaxSyncMan         0x1               build/LAN9255_SQI_INDIRECT_MODE/production/_ext/108134065/ecatslv.o
pAPPL_EEPROM_Reload
                    0x4               build/LAN9255_SQI_INDIRECT_MODE/production/_ext/108134065/ecatappl.o
u8StoreSubindex     0x1               build/LAN9255_SQI_INDIRECT_MODE/production/_ext/108134065/sdoserv.o
aFileName           0x16              build/LAN9255_SQI_INDIRECT_MODE/production/_ext/108134065/sample_app.o
u32LastFileOffset   0x4               build/LAN9255_SQI_INDIRECT_MODE/production/_ext/108134065/ecatfoe.o
pAPPL_FoeRead       0x4               build/LAN9255_SQI_INDIRECT_MODE/production/_ext/108134065/ecatappl.o
u16EepromStoreTimeoutValue
                    0x2               build/LAN9255_SQI_INDIRECT_MODE/production/_ext/108134065/ecatappl.o
sCycleDiag          0x2               build/LAN9255_SQI_INDIRECT_MODE/production/_ext/108134065/objdef.o
systick             0xc               build/LAN9255_SQI_INDIRECT_MODE/production/_ext/1827571544/plib_systick.o
pAPPL_FoeWrite      0x4               build/LAN9255_SQI_INDIRECT_MODE/production/_ext/108134065/ecatappl.o
u16FoeMaxSendBlockSize
                    0x2               build/LAN9255_SQI_INDIRECT_MODE/production/_ext/108134065/ecatfoe.o
u8EcatErrorLed      0x1               build/LAN9255_SQI_INDIRECT_MODE/production/_ext/108134065/ecatslv.o
nEscAddrInputData   0x2               build/LAN9255_SQI_INDIRECT_MODE/production/_ext/108134065/ecatslv.o

Microchip PIC32 Memory-Usage Report

ROM Program-Memory Usage
section                    address  length [bytes]      (dec)  Description
-------                 ----------  -------------------------  -----------
.vectors                         0          0x260         608   
.text                        0x260           0x20          32  App's exec code 
.text.StartInputHandler      0x280          0x7e4        2020   
.text.AL_ControlInd          0xa64          0x790        1936   
.text.OBJ_Write             0x11f4          0x710        1808   
.dinit                      0x1904          0x6b0        1712   
.text.OBJ_Read              0x1fb4          0x67c        1660   
.text.SDOS_SdoInd           0x2630          0x5e4        1508   
.text.FOE_ServiceInd        0x2c14          0x488        1160   
.text.SDOS_SdoInfoInd       0x309c          0x434        1076   
.text.SdoDownloadSegmen     0x34d0          0x3b4         948   
.text.CheckSmSettings       0x3884          0x3a0         928   
.text.EEPROM_CommandHan     0x3c24          0x2bc         700   
.text.AL_ControlRes         0x3ee0          0x2bc         700   
.text.SdoUploadSegmentI     0x419c          0x260         608   
.text.SendSmFailedEmerg     0x43fc          0x1e0         480   
.text.SdoRes                0x45dc          0x1bc         444   
.text.ECAT_Main             0x4798          0x1b4         436   
.text.CheckSyncTypeValu     0x494c          0x1b4         436   
.text.FoE_WriteData         0x4b00          0x18c         396   
.text.OBJ_GetEntryOffse     0x4c8c          0x178         376   
.text.APPL_GenerateMapp     0x4e04          0x174         372   
.text.ECAT_Init             0x4f78          0x170         368   
.text.SetALStatus           0x50e8          0x164         356   
.text.MBX_CheckAndCopyM     0x524c          0x164         356   
.text.COE_ObjInit           0x53b0          0x160         352   
.text.Sync0_Isr             0x5510          0x15c         348   
.text.MainInit              0x566c          0x15c         348   
.text.MBX_StopMailboxHa     0x57c8          0x154         340   
.text.APP_FlashEEPROMUp     0x591c          0x154         340   
.text.PDI_Isr               0x5a70          0x14c         332   
.text.StopInputHandler      0x5bbc          0x12c         300   
.text.MBX_MailboxReadIn     0x5ce8          0x124         292   
.text.OBJ_GetObjectLeng     0x5e0c          0x124         292   
.text.SDOS_SdoRes           0x5f30          0x124         292   
.text.DC_CheckWatchdog      0x6054          0x120         288   
.text.OBJ_GetDesc           0x6174          0x120         288   
.text.MBX_StartMailboxH     0x6294          0x114         276   
.text.MBX_CopyToSendMai     0x63a8          0x10c         268   
.rodata.aName0x1C32         0x64b4          0x100         256   
.rodata.aName0x1C33         0x65b4          0x100         256   
.text.MBX_Init              0x66b4          0x100         256   
.text.HW_EscWrite           0x67b4           0xf8         248   
.text.ECAT_CheckTimer       0x68ac           0xf8         248   
.text.OBJ_GetObjectList     0x69a4           0xf8         248   
.text.HW_EscRead            0x6a9c           0xf6         246   
.text.LAN9252SQI_ReadPD     0x6b92           0xf4         244   
.text.Dummy_Handler         0x6c86            0x2           2   
.text.MBX_MailboxWriteI     0x6c88           0xf4         244   
.text.EscWrite              0x6d7c           0xf0         240   
.text.EscRead               0x6e6c           0xee         238   
.text.__malloc_lock         0x6f5a            0x2           2   
.text.MainLoop              0x6f5c           0xec         236   
.text.COE_AddObjectToDi     0x7048           0xe8         232   
.text.COE_Main              0x7130           0xe8         232   
.text.EIC_Initialize        0x7218           0xe4         228   
.text.LAN9252SQI_Read       0x72fc           0xe4         228   
.text.MBX_MailboxSendRe     0x73e0           0xdc         220   
.text.SODS_ClearPending     0x74bc           0xcc         204   
.rodata.asEntryDesc0x1C     0x7588           0xc8         200   
.text.GetDummyBytesRequ     0x7650           0xc6         198   
.text.__malloc_unlock       0x7716            0x2           2   
.text.HW_EepromWrite        0x7718           0xc4         196   
.text.FoE_Read              0x77dc           0xbc         188   
.text._malloc_r             0x7898           0xbc         188   
.text.MBX_Main              0x7954           0xb8         184   
.text.qspi_setup_transf     0x7a0c           0xb4         180   
.text.LAN925x_Init          0x7ac0           0xb4         180   
.text.PDO_OutputMapping     0x7b74           0xb0         176   
.text.QSPI_MemoryRead       0x7c24           0xac         172   
.text.LAN9252SQI_WriteP     0x7cd0           0xac         172   
.text.QSPI_MemoryWrite      0x7d7c           0xa8         168   
.text.EMCY_Init             0x7e24           0xa8         168   
.text.PORT_Initialize       0x7ecc           0xa4         164   
.text.EMCY_SendEmergenc     0x7f70           0xa4         164   
.text.HW_EepromReload       0x8014           0xa0         160   
.text.COE_SyncTimeStamp     0x80b4           0x9c         156   
.text.FoE_Write             0x8150           0x9c         156   
.text.APP_Tasks             0x81ec           0x9c         156   
.text._free_r               0x8288           0x9c         156   
.text.OBJ_GetNoOfObject     0x8324           0x98         152   
.text.RoundUpMultipleOf     0x83bc           0x96         150   
.text.PDO_InputMapping      0x8454           0x94         148   
.text.OBJ_CopyNumberToS     0x84e8           0x94         148   
.text.QSPI_CommandWrite     0x857c           0x88         136   
.text.QSPI_RegisterWrit     0x8604           0x88         136   
.text.ReBuild_SQI_SetCf     0x868c           0x88         136   
.text.COE_RemoveDicEntr     0x8714           0x80         128   
.text.__pic32c_data_ini     0x8794           0x80         128   
.text.HandleCycleTimeMe     0x8814           0x7c         124   
.text.MBX_MailboxRepeat     0x8890           0x7c         124   
.rodata.cAbortCode          0x890c           0x78         120   
.text.APP_FlashWrite        0x8984           0x78         120   
.text.COE_ServiceInd        0x89fc           0x74         116   
.text.StartOutputHandle     0x8a70           0x74         116   
.text.GetSystemTimeDela     0x8ae4           0x70         112   
.text.CalculateCRC8         0x8b54           0x6e         110   
.text.FDPLL0_Initialize     0x8bc4           0x6c         108   
.text.FOE_Data              0x8c30           0x6c         108   
.text.CLOCK_Initialize      0x8c9c           0x68         104   
.text.NVMCTRL_PageWrite     0x8d04           0x68         104   
.text.COE_UpdateSyncErr     0x8d6c           0x68         104   
.text.MailboxServiceInd     0x8dd4           0x68         104   
.text.ECAT_CheckWatchdo     0x8e3c           0x64         100   
.text.BL_FOE_Applicatio     0x8ea0           0x64         100   
.text.LAN9252SQI_Write      0x8f04           0x60          96   
.text.EIC_CallbackRegis     0x8f64           0x5c          92   
.text.Reset_Handler         0x8fc0           0x5c          92   
.text.HW_GetALEventRegi     0x901c           0x5c          92   
.text.Read0x10F8            0x9078           0x5c          92   
.text.COE_ContinueInd       0x90d4           0x5c          92   
.text.GetOutOfEmptyEmcy     0x9130           0x5c          92   
.text.GetOutOfSendEmcyQ     0x918c           0x5c          92   
.text.FoE_ReadData          0x91e8           0x5c          92   
.text.ESC_BYTE_TEST_Reg     0x9244           0x5a          90   
.text.GetOutOfMbxQueue      0x929e           0x58          88   
.text.OBJ_GetEntryDesc      0x92f6           0x58          88   
.text.NVIC_Initialize       0x934e           0x56          86   
.text.__NVIC_SetPriorit     0x93a4           0x54          84   
.text.HW_GetALEventRegi     0x93f8           0x54          84   
.text.PutInMbxQueue         0x944c           0x52          82   
.text.ESF_PDI_Init          0x94a0           0x4c          76   
.text.UpdateEEPROMLoade     0x94ec           0x4c          76   
.text.DisableSyncManCha     0x9538           0x4c          76   
.text.CheckIfEcatError      0x9584           0x4c          76   
.text.HW_EscReadIsr         0x95d0           0x4a          74   
.text.HW_EscWriteIsr        0x961a           0x4a          74   
.text.EnableSyncManChan     0x9664           0x4a          74   
.text.__NVIC_SetPriorit     0x96b0           0x48          72   
.text.FOE_Read              0x96f8           0x48          72   
.text.__libc_init_array     0x9740           0x48          72   
.text.ResetALEventMask      0x9788           0x46          70   
.text.SetALEventMask        0x97ce           0x46          70   
.text.GCLK0_Initialize      0x9814           0x44          68   
.text.FPU_Enable            0x9858           0x44          68   
.text.COE_ObjDictionary     0x989c           0x44          68   
.text.Sync1_Isr             0x98e0           0x44          68   
.text.PutInEmptyEmcyQue     0x9924           0x44          68   
.text.PutInSendEmcyQueu     0x9968           0x44          68   
.text.PORT_PinRead          0x99ac           0x44          68   
.text.APP_FW_startDownl     0x99f0           0x44          68   
.text.AddObjectsToObjDi     0x9a34           0x42          66   
.text                       0x9a78           0x40          64  App's exec code 
.text.SYSTICK_TimerInit     0x9ab8           0x40          64   
.text.ICache_Enable         0x9af8           0x40          64   
.rodata.aName0x10F1         0x9b38           0x40          64   
.text.COE_ClearObjDicti     0x9b78           0x40          64   
.text.__NVIC_EnableIRQ      0x9bb8           0x3c          60   
.text.QSPI_Initialize       0x9bf4           0x3c          60   
.rodata.aName0x1018         0x9c30           0x3c          60   
.text.ECAT_Application      0x9c6c           0x3c          60   
.text.SQI_SetConfigurat     0x9ca8           0x3a          58   
.text.APP_RunApplicatio     0x9ce2           0x3a          58   
.text.PORT_PinSet           0x9d1c           0x38          56   
.text.PORT_PinClear         0x9d54           0x38          56   
.text.PORT_PinOutputEna     0x9d8c           0x38          56   
.text.PORT_PinSet           0x9dc4           0x38          56   
.text.PORT_PinClear         0x9dfc           0x38          56   
.text.FOE_Write             0x9e34           0x38          56   
.text.FOE_Ack               0x9e6c           0x38          56   
.text.PORT_PinSet           0x9ea4           0x38          56   
.text.PORT_PinClear         0x9edc           0x38          56   
.text.OBJ_GetObjectHand     0x9f14           0x36          54   
.text.NVMCTRL_BlockEras     0x9f4c           0x34          52   
.text.qspi_memcpy_32bit     0x9f80           0x34          52   
.text.qspi_memcpy_8bit      0x9fb4           0x34          52   
.text.SYS_Initialize        0x9fe8           0x34          52   
.text.APPL_OutputMappin     0xa01c           0x34          52   
.text.FOE_ContinueInd       0xa050           0x30          48   
.text.GetSyncMan            0xa080           0x30          48   
.text.GCLK1_Initialize      0xa0b0           0x2c          44   
.text.EIC_EXTINT_0_Inte     0xa0dc           0x2c          44   
.text.EIC_EXTINT_1_Inte     0xa108           0x2c          44   
.text.EIC_EXTINT_7_Inte     0xa134           0x2c          44   
.text.SysTick_Handler       0xa160           0x2c          44   
.text.SQI_EnableQuadMod     0xa18c           0x2c          44   
.text.SQI_DisableQuadMo     0xa1b8           0x2c          44   
.rodata.aName0x1601         0xa1e4           0x2c          44   
.rodata.aName0x1A00         0xa210           0x2c          44   
.text.FOE_Init              0xa23c           0x2c          44   
.text.Emulation_Init        0xa268           0x2c          44   
.text.APPL_InputMapping     0xa294           0x2c          44   
.text._sbrk                 0xa2c0           0x2c          44   
.text.OSCCTRL_Initializ     0xa2ec           0x28          40   
.text.NVMCTRL_IsBusy        0xa314           0x28          40   
.text.SYSTICK_TimerCall     0xa33c           0x28          40   
.text.ESC_IRQ_cb            0xa364           0x28          40   
.text.APP_FW_StateBOOTt     0xa38c           0x28          40   
.text.NVMCTRL_StatusGet     0xa3b4           0x24          36   
.text.SYSTICK_TimerStar     0xa3d8           0x24          36   
.text.TCM_Configure         0xa3fc           0x24          36   
.text.PDI_Init_SYNC_Int     0xa420           0x24          36   
.text.COE_Init              0xa444           0x24          36   
.text.StopOutputHandler     0xa468           0x24          36   
.text.EMCY_IsQueueEmpty     0xa48c           0x24          36   
.text.FOE_Error             0xa4b0           0x24          36   
.text.APP_BankSwitch        0xa4d4           0x24          36   
.text.NVMCTRL_Read          0xa4f8           0x22          34   
.text.EMCY_ContinueInd      0xa51a           0x22          34   
.rodata.asEntryDesc0x10     0xa53c           0x20          32   
.text.FOE_Busy              0xa55c           0x20          32   
.rodata.cBitMask            0xa57c           0x20          32   
.text._sbrk_r               0xa59c           0x20          32   
.text.NVMCTRL_Initializ     0xa5bc           0x1c          28   
.text.NVMCTRL_BankSwap      0xa5d8           0x1c          28   
.text.PORT_GroupSet         0xa5f4           0x1c          28   
.text.PORT_GroupClear       0xa610           0x1c          28   
.text.PORT_GroupOutputE     0xa62c           0x1c          28   
.text.qspi_end_transfer     0xa648           0x1c          28   
.text.CRITICAL_SECTION_     0xa664           0x1c          28   
.text.CRITICAL_SECTION_     0xa680           0x1c          28   
.text.ECAT_SysTick_Hand     0xa69c           0x1c          28   
.rodata.aName0x1C12         0xa6b8           0x1c          28   
.rodata.aName0x1C13         0xa6d4           0x1c          28   
.text.OSC32KCTRL_Initia     0xa6f0           0x18          24   
.text.PORT_GroupRead        0xa708           0x18          24   
.text.PDI_Init_SYSTick_     0xa720           0x18          24   
.text.PDI_IRQ_Interrupt     0xa738           0x18          24   
.rodata.aName0x7010         0xa750           0x18          24   
.text.COE_GetObjectDict     0xa768           0x18          24   
.text.BackToInitTransit     0xa780           0x18          24   
.text.OBJ_GetObjDesc        0xa798           0x18          24   
.text.APP_FW_GetDownloa     0xa7b0           0x18          24   
.text.APP_Initialize        0xa7c8           0x18          24   
.text.BL_Start              0xa7e0           0x16          22   
.text.EMCY_GetEmcyBuffe     0xa7f6           0x16          22   
.text.APPL_AckErrorInd      0xa80c           0x16          22   
.text.APPL_StartInputHa     0xa822           0x16          22   
.text.memcpy                0xa838           0x16          22   
.text.ESC_Sync0_cb          0xa84e           0x14          20   
.text.ESC_Sync1_cb          0xa862           0x14          20   
.rodata.aName0x6000         0xa878           0x14          20   
.rodata.aName0x1009         0xa88c           0x14          20   
.rodata.aName0x100A         0xa8a0           0x14          20   
.rodata.asEntryDesc0x10     0xa8b4           0x14          20   
.rodata.aName0x10F8         0xa8c8           0x14          20   
.rodata.aName0x1C00         0xa8dc           0x14          20   
.rodata.aName0x1001         0xa8f0           0x10          16   
.text.APPL_StartMailbox     0xa900           0x10          16   
.text.APPL_StopInputHan     0xa910           0x10          16   
.text.APPL_StartOutputH     0xa920           0x10          16   
.text.APPL_StopOutputHa     0xa930           0x10          16   
.text.main                  0xa940           0x10          16   
.text.malloc                0xa950           0x10          16   
.text.free                  0xa960           0x10          16   
.text.memset                0xa970           0x10          16   
.text                       0xa980           0x10          16  App's exec code 
.text.DFLL_Initialize       0xa990            0xe          14   
.text.EVSYS_Initialize      0xa99e            0xe          14   
.text.BL_Stop               0xa9ac            0xe          14   
.text.APPL_StopMailboxH     0xa9ba            0xe          14   
.text.APPL_Application      0xa9c8            0xe          14   
.text.SYS_Tasks             0xa9d6            0xc          12   
.text.PDI_Timer_Interru     0xa9e2            0xc          12   
.text.ESC_Init              0xa9ee            0xc          12   
.rodata.asEntryDesc0x16     0xa9fc            0xc          12   
.rodata.asEntryDesc0x1A     0xaa08            0xc          12   
.rodata.asEntryDesc0x1C     0xaa14            0xc          12   
.rodata.asEntryDesc0x1C     0xaa20            0xc          12   
.rodata.asEntryDesc0x60     0xaa2c            0xc          12   
.rodata.asEntryDesc0x70     0xaa38            0xc          12   
.rodata.aName0x1000         0xaa44            0xc          12   
.rodata.aName0x1008         0xaa50            0xc          12   
.rodata.asEntryDesc0x1C     0xaa5c            0xc          12   
.rodata.sEntryDesc0x100     0xaa68            0x8           8   
.rodata.sEntryDesc0x100     0xaa70            0x8           8   
.rodata.sEntryDesc0x100     0xaa78            0x8           8   
.rodata.sEntryDesc0x100     0xaa80            0x8           8   
.rodata.sEntryDesc0x100     0xaa88            0x8           8   
.rodata.sEntryDesc0x10F     0xaa90            0x8           8   
.rodata.acEmcyCoeHeader     0xaa98            0x8           8   
.text.NonMaskableInt_Ha     0xaaa0            0x6           6   
.text.HardFault_Handler     0xaaa6            0x6           6   
.text.DebugMonitor_Hand     0xaaac            0x6           6   
.text.MemoryManagement_     0xaab2            0x6           6   
.text.BusFault_Handler      0xaab8            0x6           6   
.text.UsageFault_Handle     0xaabe            0x6           6   
.rodata                     0xaac4            0x4           4  Read-only const 
.config_eeprom             0x3e000          0x800        2048   
      Total ROM used  :      0xb2b8       45752  4.4% of 0xfe000
        --------------------------------------------------------------------------
         Total Program Memory used  :      0xb2b8       45752  4.4% of 0xfe000
        --------------------------------------------------------------------------


RAM Data-Memory Usage
section                    address  length [bytes]      (dec)  Description
-------                 ----------  -------------------------  -----------
.bss                    0x20000000         0x23e4        9188  Uninitialized data 
.data.GenObjDic         0x200023e4          0x1e0         480   
.data.ApplicationObjDic 0x200025c4          0x118         280   
.bss.gau8rx_data        0x200026dc           0x80         128   
.data.impure_data       0x2000275c           0x60          96   
.data.gau8DummyCntArr   0x200027bc           0x27          39   
.bss.gbALEvtOpEnabled   0x200027e3            0x1           1   
.bss                    0x200027e4           0x1c          28  Uninitialized data 
.data.acDevicename      0x20002800           0x16          22   
.bss.nvm_error          0x20002816            0x2           2   
.data.sIdentity         0x20002818           0x14          20   
.data.aSubindexDesc     0x2000282c            0xd          13   
.bss.bInitFinished      0x20002839            0x1           1   
.bss.u16ErrorRegister   0x2000283a            0x2           2   
.data.sErrorSettings    0x2000283c            0xc          12   
.bss.u64Timestamp       0x20002848            0x8           8   
.data.OutputsProcessDat 0x20002850            0x8           8   
.data.InputsProcessData 0x20002858            0x8           8   
.data.Inputs0x6000      0x20002860            0x8           8   
.data.Outputs0x7010     0x20002868            0x8           8   
.data.sSyncmanagertype  0x20002870            0x6           6   
.bss.nvm_status         0x20002876            0x2           2   
.data.u32Devicetype     0x20002878            0x4           4   
.data.acHardwareversion 0x2000287c            0x4           4   
.data.acSoftwareversion 0x20002880            0x4           4   
.bss.ObjDicList         0x20002884            0x4           4   
.bss.SMActivate         0x20002888            0x4           4   
.data.sRxPDOassign      0x2000288c            0x4           4   
.data.sTxPDOassign      0x20002890            0x4           4   
.bss.nFileWriteOffset   0x20002894            0x4           4   
.bss.nFileTotalLengthOf 0x20002898            0x4           4   
.bss.nFileStartWriteAdd 0x2000289c            0x4           4   
.bss.u32FileSize        0x200028a0            0x4           4   
.bss.__malloc_free_list 0x200028a4            0x4           4   
.bss.__malloc_sbrk_star 0x200028a8            0x4           4   
.data._impure_ptr       0x200028ac            0x4           4   
.bss                    0x200028b0            0x4           4  Uninitialized data 
.bss.EepromLoaded       0x200028b4            0x1           1   
.bss.gFirmwareDownload_ 0x200028b5            0x1           1   
.bss.gFirmwareDownload_ 0x200028b6            0x1           1   
.bss.bSdoInWork         0x200028b7            0x1           1   
         Total RAM used  :      0x28b8       10424  4.0% of 0x40000
        --------------------------------------------------------------------------
            Total Data Memory used  :      0x28b8       10424  4.0% of 0x40000
        --------------------------------------------------------------------------


Dynamic Data-Memory Reservation
section                    address  length [bytes]      (dec)  Description
-------                 ----------  -------------------------  -----------
heap                    0x200028c0          0x200         512  Reserved for heap 
stack                   0x20002ad8        0x3d520      251168  Reserved for stack 

        --------------------------------------------------------------------------

Discarded input sections

 .text          0x00000000        0x0 c:/program files/microchip/xc32/v2.40/bin/bin/../../lib/gcc/pic32c/6.2.1/v7e-m/fpv4-sp/hard/crti.o
 .data          0x00000000        0x0 c:/program files/microchip/xc32/v2.40/bin/bin/../../lib/gcc/pic32c/6.2.1/v7e-m/fpv4-sp/hard/crti.o
 .bss           0x00000000        0x0 c:/program files/microchip/xc32/v2.40/bin/bin/../../lib/gcc/pic32c/6.2.1/v7e-m/fpv4-sp/hard/crti.o
 .data          0x00000000        0x4 c:/program files/microchip/xc32/v2.40/bin/bin/../../lib/gcc/pic32c/6.2.1/v7e-m/fpv4-sp/hard/crtbegin.o
 .text          0x00000000        0x0 build/LAN9255_SQI_INDIRECT_MODE/production/_ext/1984496892/plib_clock.o
 .data          0x00000000        0x0 build/LAN9255_SQI_INDIRECT_MODE/production/_ext/1984496892/plib_clock.o
 .bss           0x00000000        0x0 build/LAN9255_SQI_INDIRECT_MODE/production/_ext/1984496892/plib_clock.o
 .text          0x00000000        0x0 build/LAN9255_SQI_INDIRECT_MODE/production/_ext/1865131932/plib_cmcc.o
 .data          0x00000000        0x0 build/LAN9255_SQI_INDIRECT_MODE/production/_ext/1865131932/plib_cmcc.o
 .bss           0x00000000        0x0 build/LAN9255_SQI_INDIRECT_MODE/production/_ext/1865131932/plib_cmcc.o
 .text.CMCC_Disable
                0x00000000       0x2c build/LAN9255_SQI_INDIRECT_MODE/production/_ext/1865131932/plib_cmcc.o
 .text.CMCC_EnableICache
                0x00000000       0x40 build/LAN9255_SQI_INDIRECT_MODE/production/_ext/1865131932/plib_cmcc.o
 .text.CMCC_DisableICache
                0x00000000       0x40 build/LAN9255_SQI_INDIRECT_MODE/production/_ext/1865131932/plib_cmcc.o
 .text.CMCC_EnableDCache
                0x00000000       0x40 build/LAN9255_SQI_INDIRECT_MODE/production/_ext/1865131932/plib_cmcc.o
 .text.CMCC_DisableDCache
                0x00000000       0x40 build/LAN9255_SQI_INDIRECT_MODE/production/_ext/1865131932/plib_cmcc.o
 .text.CMCC_InvalidateAll
                0x00000000       0x34 build/LAN9255_SQI_INDIRECT_MODE/production/_ext/1865131932/plib_cmcc.o
 .debug_info    0x00000000      0x5ec build/LAN9255_SQI_INDIRECT_MODE/production/_ext/1865131932/plib_cmcc.o
 .debug_abbrev  0x00000000       0x93 build/LAN9255_SQI_INDIRECT_MODE/production/_ext/1865131932/plib_cmcc.o
 .debug_loc     0x00000000      0x198 build/LAN9255_SQI_INDIRECT_MODE/production/_ext/1865131932/plib_cmcc.o
 .debug_aranges
                0x00000000       0x48 build/LAN9255_SQI_INDIRECT_MODE/production/_ext/1865131932/plib_cmcc.o
 .debug_ranges  0x00000000       0x38 build/LAN9255_SQI_INDIRECT_MODE/production/_ext/1865131932/plib_cmcc.o
 .debug_line    0x00000000      0x1da build/LAN9255_SQI_INDIRECT_MODE/production/_ext/1865131932/plib_cmcc.o
 .debug_str     0x00000000        0x0 build/LAN9255_SQI_INDIRECT_MODE/production/_ext/1865131932/plib_cmcc.o
 .comment       0x00000000       0x3d build/LAN9255_SQI_INDIRECT_MODE/production/_ext/1865131932/plib_cmcc.o
 .debug_frame   0x00000000       0xd0 build/LAN9255_SQI_INDIRECT_MODE/production/_ext/1865131932/plib_cmcc.o
 .ARM.attributes
                0x00000000       0x39 build/LAN9255_SQI_INDIRECT_MODE/production/_ext/1865131932/plib_cmcc.o
 .text          0x00000000        0x0 build/LAN9255_SQI_INDIRECT_MODE/production/_ext/60167341/plib_eic.o
 .data          0x00000000        0x0 build/LAN9255_SQI_INDIRECT_MODE/production/_ext/60167341/plib_eic.o
 .bss           0x00000000        0x0 build/LAN9255_SQI_INDIRECT_MODE/production/_ext/60167341/plib_eic.o
 .text.EIC_InterruptEnable
                0x00000000       0x28 build/LAN9255_SQI_INDIRECT_MODE/production/_ext/60167341/plib_eic.o
 .text.EIC_InterruptDisable
                0x00000000       0x28 build/LAN9255_SQI_INDIRECT_MODE/production/_ext/60167341/plib_eic.o
 .text          0x00000000        0x0 build/LAN9255_SQI_INDIRECT_MODE/production/_ext/1986646378/plib_evsys.o
 .data          0x00000000        0x0 build/LAN9255_SQI_INDIRECT_MODE/production/_ext/1986646378/plib_evsys.o
 .bss           0x00000000        0x0 build/LAN9255_SQI_INDIRECT_MODE/production/_ext/1986646378/plib_evsys.o
 .text          0x00000000        0x0 build/LAN9255_SQI_INDIRECT_MODE/production/_ext/1865468468/plib_nvic.o
 .data          0x00000000        0x0 build/LAN9255_SQI_INDIRECT_MODE/production/_ext/1865468468/plib_nvic.o
 .bss           0x00000000        0x0 build/LAN9255_SQI_INDIRECT_MODE/production/_ext/1865468468/plib_nvic.o
 .text          0x00000000        0x0 build/LAN9255_SQI_INDIRECT_MODE/production/_ext/1593096446/plib_nvmctrl.o
 .data          0x00000000        0x0 build/LAN9255_SQI_INDIRECT_MODE/production/_ext/1593096446/plib_nvmctrl.o
 .bss           0x00000000        0x0 build/LAN9255_SQI_INDIRECT_MODE/production/_ext/1593096446/plib_nvmctrl.o
 .bss.smart_eep_status
                0x00000000        0x4 build/LAN9255_SQI_INDIRECT_MODE/production/_ext/1593096446/plib_nvmctrl.o
 .text.NVMCTRL_SetWriteMode
                0x00000000       0x34 build/LAN9255_SQI_INDIRECT_MODE/production/_ext/1593096446/plib_nvmctrl.o
 .text.NVMCTRL_QuadWordWrite
                0x00000000       0x84 build/LAN9255_SQI_INDIRECT_MODE/production/_ext/1593096446/plib_nvmctrl.o
 .text.NVMCTRL_DoubleWordWrite
                0x00000000       0x84 build/LAN9255_SQI_INDIRECT_MODE/production/_ext/1593096446/plib_nvmctrl.o
 .text.NVMCTRL_ErrorGet
                0x00000000       0x40 build/LAN9255_SQI_INDIRECT_MODE/production/_ext/1593096446/plib_nvmctrl.o
 .text.NVMCTRL_RegionLock
                0x00000000       0x28 build/LAN9255_SQI_INDIRECT_MODE/production/_ext/1593096446/plib_nvmctrl.o
 .text.NVMCTRL_RegionUnlock
                0x00000000       0x28 build/LAN9255_SQI_INDIRECT_MODE/production/_ext/1593096446/plib_nvmctrl.o
 .text.NVMCTRL_RegionLockStatusGet
                0x00000000       0x18 build/LAN9255_SQI_INDIRECT_MODE/production/_ext/1593096446/plib_nvmctrl.o
 .text.NVMCTRL_SmartEEPROM_IsBusy
                0x00000000       0x24 build/LAN9255_SQI_INDIRECT_MODE/production/_ext/1593096446/plib_nvmctrl.o
 .text.NVMCTRL_SmartEEPROMStatusGet
                0x00000000       0x24 build/LAN9255_SQI_INDIRECT_MODE/production/_ext/1593096446/plib_nvmctrl.o
 .text.NVMCTRL_SmartEEPROM_IsActiveSectorFull
                0x00000000       0x28 build/LAN9255_SQI_INDIRECT_MODE/production/_ext/1593096446/plib_nvmctrl.o
 .text.NVMCTRL_SmartEEPROMSectorReallocate
                0x00000000       0x1c build/LAN9255_SQI_INDIRECT_MODE/production/_ext/1593096446/plib_nvmctrl.o
 .text.NVMCTRL_SmartEEPROMFlushPageBuffer
                0x00000000       0x24 build/LAN9255_SQI_INDIRECT_MODE/production/_ext/1593096446/plib_nvmctrl.o
 .text          0x00000000        0x0 build/LAN9255_SQI_INDIRECT_MODE/production/_ext/1865521619/plib_port.o
 .data          0x00000000        0x0 build/LAN9255_SQI_INDIRECT_MODE/production/_ext/1865521619/plib_port.o
 .bss           0x00000000        0x0 build/LAN9255_SQI_INDIRECT_MODE/production/_ext/1865521619/plib_port.o
 .text.PORT_GroupWrite
                0x00000000       0x2e build/LAN9255_SQI_INDIRECT_MODE/production/_ext/1865521619/plib_port.o
 .text.PORT_GroupLatchRead
                0x00000000       0x18 build/LAN9255_SQI_INDIRECT_MODE/production/_ext/1865521619/plib_port.o
 .text.PORT_GroupToggle
                0x00000000       0x1c build/LAN9255_SQI_INDIRECT_MODE/production/_ext/1865521619/plib_port.o
 .text.PORT_GroupInputEnable
                0x00000000       0x1c build/LAN9255_SQI_INDIRECT_MODE/production/_ext/1865521619/plib_port.o
 .text          0x00000000        0x0 build/LAN9255_SQI_INDIRECT_MODE/production/_ext/1865555181/plib_qspi.o
 .data          0x00000000        0x0 build/LAN9255_SQI_INDIRECT_MODE/production/_ext/1865555181/plib_qspi.o
 .bss           0x00000000        0x0 build/LAN9255_SQI_INDIRECT_MODE/production/_ext/1865555181/plib_qspi.o
 .text.QSPI_RegisterRead
                0x00000000       0x90 build/LAN9255_SQI_INDIRECT_MODE/production/_ext/1865555181/plib_qspi.o
 .text          0x00000000        0x0 build/LAN9255_SQI_INDIRECT_MODE/production/_ext/1865555181/plib_qspi_spi.o
 .data          0x00000000        0x0 build/LAN9255_SQI_INDIRECT_MODE/production/_ext/1865555181/plib_qspi_spi.o
 .bss           0x00000000        0x0 build/LAN9255_SQI_INDIRECT_MODE/production/_ext/1865555181/plib_qspi_spi.o
 .debug_line    0x00000000        0x0 build/LAN9255_SQI_INDIRECT_MODE/production/_ext/1865555181/plib_qspi_spi.o
 .debug_str     0x00000000        0x0 build/LAN9255_SQI_INDIRECT_MODE/production/_ext/1865555181/plib_qspi_spi.o
 .comment       0x00000000       0x3d build/LAN9255_SQI_INDIRECT_MODE/production/_ext/1865555181/plib_qspi_spi.o
 .ARM.attributes
                0x00000000       0x39 build/LAN9255_SQI_INDIRECT_MODE/production/_ext/1865555181/plib_qspi_spi.o
 .text          0x00000000        0x0 build/LAN9255_SQI_INDIRECT_MODE/production/_ext/1827571544/plib_systick.o
 .data          0x00000000        0x0 build/LAN9255_SQI_INDIRECT_MODE/production/_ext/1827571544/plib_systick.o
 .bss           0x00000000        0x0 build/LAN9255_SQI_INDIRECT_MODE/production/_ext/1827571544/plib_systick.o
 .text.SYSTICK_TimerRestart
                0x00000000       0x30 build/LAN9255_SQI_INDIRECT_MODE/production/_ext/1827571544/plib_systick.o
 .text.SYSTICK_TimerStop
                0x00000000       0x20 build/LAN9255_SQI_INDIRECT_MODE/production/_ext/1827571544/plib_systick.o
 .text.SYSTICK_TimerPeriodSet
                0x00000000       0x20 build/LAN9255_SQI_INDIRECT_MODE/production/_ext/1827571544/plib_systick.o
 .text.SYSTICK_TimerPeriodGet
                0x00000000       0x18 build/LAN9255_SQI_INDIRECT_MODE/production/_ext/1827571544/plib_systick.o
 .text.SYSTICK_TimerCounterGet
                0x00000000       0x18 build/LAN9255_SQI_INDIRECT_MODE/production/_ext/1827571544/plib_systick.o
 .text.SYSTICK_TimerFrequencyGet
                0x00000000       0x14 build/LAN9255_SQI_INDIRECT_MODE/production/_ext/1827571544/plib_systick.o
 .text.SYSTICK_DelayMs
                0x00000000       0x58 build/LAN9255_SQI_INDIRECT_MODE/production/_ext/1827571544/plib_systick.o
 .text          0x00000000        0x0 build/LAN9255_SQI_INDIRECT_MODE/production/_ext/163028504/xc32_monitor.o
 .data          0x00000000        0x0 build/LAN9255_SQI_INDIRECT_MODE/production/_ext/163028504/xc32_monitor.o
 .bss           0x00000000        0x0 build/LAN9255_SQI_INDIRECT_MODE/production/_ext/163028504/xc32_monitor.o
 .text._mon_getc
                0x00000000       0x16 build/LAN9255_SQI_INDIRECT_MODE/production/_ext/163028504/xc32_monitor.o
 .text._mon_putc
                0x00000000       0x16 build/LAN9255_SQI_INDIRECT_MODE/production/_ext/163028504/xc32_monitor.o
 .debug_info    0x00000000      0x2fb build/LAN9255_SQI_INDIRECT_MODE/production/_ext/163028504/xc32_monitor.o
 .debug_abbrev  0x00000000       0x66 build/LAN9255_SQI_INDIRECT_MODE/production/_ext/163028504/xc32_monitor.o
 .debug_loc     0x00000000       0xb8 build/LAN9255_SQI_INDIRECT_MODE/production/_ext/163028504/xc32_monitor.o
 .debug_aranges
                0x00000000       0x28 build/LAN9255_SQI_INDIRECT_MODE/production/_ext/163028504/xc32_monitor.o
 .debug_ranges  0x00000000       0x18 build/LAN9255_SQI_INDIRECT_MODE/production/_ext/163028504/xc32_monitor.o
 .debug_line    0x00000000       0x6c build/LAN9255_SQI_INDIRECT_MODE/production/_ext/163028504/xc32_monitor.o
 .debug_str     0x00000000        0x0 build/LAN9255_SQI_INDIRECT_MODE/production/_ext/163028504/xc32_monitor.o
 .comment       0x00000000       0x3d build/LAN9255_SQI_INDIRECT_MODE/production/_ext/163028504/xc32_monitor.o
 .debug_frame   0x00000000       0x60 build/LAN9255_SQI_INDIRECT_MODE/production/_ext/163028504/xc32_monitor.o
 .ARM.attributes
                0x00000000       0x39 build/LAN9255_SQI_INDIRECT_MODE/production/_ext/163028504/xc32_monitor.o
 .text          0x00000000        0x0 build/LAN9255_SQI_INDIRECT_MODE/production/_ext/1881668453/sys_int.o
 .data          0x00000000        0x0 build/LAN9255_SQI_INDIRECT_MODE/production/_ext/1881668453/sys_int.o
 .bss           0x00000000        0x0 build/LAN9255_SQI_INDIRECT_MODE/production/_ext/1881668453/sys_int.o
 .text.__NVIC_EnableIRQ
                0x00000000       0x3c build/LAN9255_SQI_INDIRECT_MODE/production/_ext/1881668453/sys_int.o
 .text.__NVIC_GetEnableIRQ
                0x00000000       0x40 build/LAN9255_SQI_INDIRECT_MODE/production/_ext/1881668453/sys_int.o
 .text.__NVIC_DisableIRQ
                0x00000000       0x44 build/LAN9255_SQI_INDIRECT_MODE/production/_ext/1881668453/sys_int.o
 .text.SYS_INT_Enable
                0x00000000       0x14 build/LAN9255_SQI_INDIRECT_MODE/production/_ext/1881668453/sys_int.o
 .text.SYS_INT_Disable
                0x00000000       0x2c build/LAN9255_SQI_INDIRECT_MODE/production/_ext/1881668453/sys_int.o
 .text.SYS_INT_Restore
                0x00000000       0x2a build/LAN9255_SQI_INDIRECT_MODE/production/_ext/1881668453/sys_int.o
 .text.SYS_INT_SourceDisable
                0x00000000       0x44 build/LAN9255_SQI_INDIRECT_MODE/production/_ext/1881668453/sys_int.o
 .text.SYS_INT_SourceRestore
                0x00000000       0x2a build/LAN9255_SQI_INDIRECT_MODE/production/_ext/1881668453/sys_int.o
 .debug_info    0x00000000     0x115d build/LAN9255_SQI_INDIRECT_MODE/production/_ext/1881668453/sys_int.o
 .debug_abbrev  0x00000000      0x206 build/LAN9255_SQI_INDIRECT_MODE/production/_ext/1881668453/sys_int.o
 .debug_loc     0x00000000      0x2b0 build/LAN9255_SQI_INDIRECT_MODE/production/_ext/1881668453/sys_int.o
 .debug_aranges
                0x00000000       0x58 build/LAN9255_SQI_INDIRECT_MODE/production/_ext/1881668453/sys_int.o
 .debug_ranges  0x00000000       0x48 build/LAN9255_SQI_INDIRECT_MODE/production/_ext/1881668453/sys_int.o
 .debug_line    0x00000000      0x285 build/LAN9255_SQI_INDIRECT_MODE/production/_ext/1881668453/sys_int.o
 .debug_str     0x00000000       0x10 build/LAN9255_SQI_INDIRECT_MODE/production/_ext/1881668453/sys_int.o
 .comment       0x00000000       0x3d build/LAN9255_SQI_INDIRECT_MODE/production/_ext/1881668453/sys_int.o
 .debug_frame   0x00000000      0x140 build/LAN9255_SQI_INDIRECT_MODE/production/_ext/1881668453/sys_int.o
 .ARM.attributes
                0x00000000       0x39 build/LAN9255_SQI_INDIRECT_MODE/production/_ext/1881668453/sys_int.o
 .text          0x00000000        0x0 build/LAN9255_SQI_INDIRECT_MODE/production/_ext/1171490990/exceptions.o
 .data          0x00000000        0x0 build/LAN9255_SQI_INDIRECT_MODE/production/_ext/1171490990/exceptions.o
 .bss           0x00000000        0x0 build/LAN9255_SQI_INDIRECT_MODE/production/_ext/1171490990/exceptions.o
 .text          0x00000000        0x0 build/LAN9255_SQI_INDIRECT_MODE/production/_ext/1171490990/initialization.o
 .data          0x00000000        0x0 build/LAN9255_SQI_INDIRECT_MODE/production/_ext/1171490990/initialization.o
 .bss           0x00000000        0x0 build/LAN9255_SQI_INDIRECT_MODE/production/_ext/1171490990/initialization.o
 COMMON         0x00000000        0x1 build/LAN9255_SQI_INDIRECT_MODE/production/_ext/1171490990/initialization.o
 .text          0x00000000        0x0 build/LAN9255_SQI_INDIRECT_MODE/production/_ext/1171490990/interrupts.o
 .data          0x00000000        0x0 build/LAN9255_SQI_INDIRECT_MODE/production/_ext/1171490990/interrupts.o
 .bss           0x00000000        0x0 build/LAN9255_SQI_INDIRECT_MODE/production/_ext/1171490990/interrupts.o
 .text          0x00000000        0x0 build/LAN9255_SQI_INDIRECT_MODE/production/_ext/1171490990/libc_syscalls.o
 .data          0x00000000        0x0 build/LAN9255_SQI_INDIRECT_MODE/production/_ext/1171490990/libc_syscalls.o
 .bss           0x00000000        0x0 build/LAN9255_SQI_INDIRECT_MODE/production/_ext/1171490990/libc_syscalls.o
 .text._exit    0x00000000        0xa build/LAN9255_SQI_INDIRECT_MODE/production/_ext/1171490990/libc_syscalls.o
 .debug_info    0x00000000      0xf14 build/LAN9255_SQI_INDIRECT_MODE/production/_ext/1171490990/libc_syscalls.o
 .debug_abbrev  0x00000000      0x1a8 build/LAN9255_SQI_INDIRECT_MODE/production/_ext/1171490990/libc_syscalls.o
 .debug_loc     0x00000000       0x38 build/LAN9255_SQI_INDIRECT_MODE/production/_ext/1171490990/libc_syscalls.o
 .debug_aranges
                0x00000000       0x20 build/LAN9255_SQI_INDIRECT_MODE/production/_ext/1171490990/libc_syscalls.o
 .debug_ranges  0x00000000       0x10 build/LAN9255_SQI_INDIRECT_MODE/production/_ext/1171490990/libc_syscalls.o
 .debug_line    0x00000000      0x1d0 build/LAN9255_SQI_INDIRECT_MODE/production/_ext/1171490990/libc_syscalls.o
 .debug_str     0x00000000        0xe build/LAN9255_SQI_INDIRECT_MODE/production/_ext/1171490990/libc_syscalls.o
 .comment       0x00000000       0x3d build/LAN9255_SQI_INDIRECT_MODE/production/_ext/1171490990/libc_syscalls.o
 .debug_frame   0x00000000       0x2c build/LAN9255_SQI_INDIRECT_MODE/production/_ext/1171490990/libc_syscalls.o
 .ARM.attributes
                0x00000000       0x39 build/LAN9255_SQI_INDIRECT_MODE/production/_ext/1171490990/libc_syscalls.o
 .text          0x00000000        0x0 build/LAN9255_SQI_INDIRECT_MODE/production/_ext/1171490990/startup_xc32.o
 .data          0x00000000        0x0 build/LAN9255_SQI_INDIRECT_MODE/production/_ext/1171490990/startup_xc32.o
 .bss           0x00000000        0x0 build/LAN9255_SQI_INDIRECT_MODE/production/_ext/1171490990/startup_xc32.o
 .text          0x00000000        0x0 build/LAN9255_SQI_INDIRECT_MODE/production/_ext/1171490990/tasks.o
 .data          0x00000000        0x0 build/LAN9255_SQI_INDIRECT_MODE/production/_ext/1171490990/tasks.o
 .bss           0x00000000        0x0 build/LAN9255_SQI_INDIRECT_MODE/production/_ext/1171490990/tasks.o
 .text          0x00000000        0x0 build/LAN9255_SQI_INDIRECT_MODE/production/_ext/1671622016/Drivers.o
 .data          0x00000000        0x0 build/LAN9255_SQI_INDIRECT_MODE/production/_ext/1671622016/Drivers.o
 .bss           0x00000000        0x0 build/LAN9255_SQI_INDIRECT_MODE/production/_ext/1671622016/Drivers.o
 .text.__NVIC_EnableIRQ
                0x00000000       0x3c build/LAN9255_SQI_INDIRECT_MODE/production/_ext/1671622016/Drivers.o
 .text.__NVIC_DisableIRQ
                0x00000000       0x44 build/LAN9255_SQI_INDIRECT_MODE/production/_ext/1671622016/Drivers.o
 .text.PDI_GetTimer
                0x00000000       0x10 build/LAN9255_SQI_INDIRECT_MODE/production/_ext/1671622016/Drivers.o
 .text.PDI_ClearTimer
                0x00000000        0xe build/LAN9255_SQI_INDIRECT_MODE/production/_ext/1671622016/Drivers.o
 .text.stop_timer
                0x00000000       0x10 build/LAN9255_SQI_INDIRECT_MODE/production/_ext/1671622016/Drivers.o
 .text.start_timer
                0x00000000       0x10 build/LAN9255_SQI_INDIRECT_MODE/production/_ext/1671622016/Drivers.o
 .text          0x00000000        0x0 build/LAN9255_SQI_INDIRECT_MODE/production/_ext/108147519/ESC_Utils.o
 .data          0x00000000        0x0 build/LAN9255_SQI_INDIRECT_MODE/production/_ext/108147519/ESC_Utils.o
 .bss           0x00000000        0x0 build/LAN9255_SQI_INDIRECT_MODE/production/_ext/108147519/ESC_Utils.o
 .text          0x00000000        0x0 build/LAN9255_SQI_INDIRECT_MODE/production/_ext/108147519/LAN925x.o
 .data          0x00000000        0x0 build/LAN9255_SQI_INDIRECT_MODE/production/_ext/108147519/LAN925x.o
 .bss           0x00000000        0x0 build/LAN9255_SQI_INDIRECT_MODE/production/_ext/108147519/LAN925x.o
 .text.HW_Release
                0x00000000        0xe build/LAN9255_SQI_INDIRECT_MODE/production/_ext/108147519/LAN925x.o
 .text.HW_EscWriteMailbox
                0x00000000       0x24 build/LAN9255_SQI_INDIRECT_MODE/production/_ext/108147519/LAN925x.o
 .text.HW_EscReadMailbox
                0x00000000       0x24 build/LAN9255_SQI_INDIRECT_MODE/production/_ext/108147519/LAN925x.o
 .text.HW_SetLed
                0x00000000       0x1c build/LAN9255_SQI_INDIRECT_MODE/production/_ext/108147519/LAN925x.o
 .text          0x00000000        0x0 build/LAN9255_SQI_INDIRECT_MODE/production/_ext/108134065/bootmode.o
 .data          0x00000000        0x0 build/LAN9255_SQI_INDIRECT_MODE/production/_ext/108134065/bootmode.o
 .bss           0x00000000        0x0 build/LAN9255_SQI_INDIRECT_MODE/production/_ext/108134065/bootmode.o
 .text.BL_StartDownload
                0x00000000       0x14 build/LAN9255_SQI_INDIRECT_MODE/production/_ext/108134065/bootmode.o
 .text.BL_Data  0x00000000       0x1a build/LAN9255_SQI_INDIRECT_MODE/production/_ext/108134065/bootmode.o
 .text          0x00000000        0x0 build/LAN9255_SQI_INDIRECT_MODE/production/_ext/108134065/coeappl.o
 .data          0x00000000        0x0 build/LAN9255_SQI_INDIRECT_MODE/production/_ext/108134065/coeappl.o
 .bss           0x00000000        0x0 build/LAN9255_SQI_INDIRECT_MODE/production/_ext/108134065/coeappl.o
 .text          0x00000000        0x0 build/LAN9255_SQI_INDIRECT_MODE/production/_ext/108134065/ecatappl.o
 .data          0x00000000        0x0 build/LAN9255_SQI_INDIRECT_MODE/production/_ext/108134065/ecatappl.o
 .bss           0x00000000        0x0 build/LAN9255_SQI_INDIRECT_MODE/production/_ext/108134065/ecatappl.o
 .text          0x00000000        0x0 build/LAN9255_SQI_INDIRECT_MODE/production/_ext/108134065/ecatcoe.o
 .data          0x00000000        0x0 build/LAN9255_SQI_INDIRECT_MODE/production/_ext/108134065/ecatcoe.o
 .bss           0x00000000        0x0 build/LAN9255_SQI_INDIRECT_MODE/production/_ext/108134065/ecatcoe.o
 .text          0x00000000        0x0 build/LAN9255_SQI_INDIRECT_MODE/production/_ext/108134065/ecatfoe.o
 .data          0x00000000        0x0 build/LAN9255_SQI_INDIRECT_MODE/production/_ext/108134065/ecatfoe.o
 .bss           0x00000000        0x0 build/LAN9255_SQI_INDIRECT_MODE/production/_ext/108134065/ecatfoe.o
 .text          0x00000000        0x0 build/LAN9255_SQI_INDIRECT_MODE/production/_ext/108134065/ecatslv.o
 .data          0x00000000        0x0 build/LAN9255_SQI_INDIRECT_MODE/production/_ext/108134065/ecatslv.o
 .bss           0x00000000        0x0 build/LAN9255_SQI_INDIRECT_MODE/production/_ext/108134065/ecatslv.o
 .text.ECAT_StateChange
                0x00000000      0x188 build/LAN9255_SQI_INDIRECT_MODE/production/_ext/108134065/ecatslv.o
 .text          0x00000000        0x0 build/LAN9255_SQI_INDIRECT_MODE/production/_ext/108134065/emcy.o
 .data          0x00000000        0x0 build/LAN9255_SQI_INDIRECT_MODE/production/_ext/108134065/emcy.o
 .bss           0x00000000        0x0 build/LAN9255_SQI_INDIRECT_MODE/production/_ext/108134065/emcy.o
 .text          0x00000000        0x0 build/LAN9255_SQI_INDIRECT_MODE/production/_ext/108134065/foeappl.o
 .data          0x00000000        0x0 build/LAN9255_SQI_INDIRECT_MODE/production/_ext/108134065/foeappl.o
 .bss           0x00000000        0x0 build/LAN9255_SQI_INDIRECT_MODE/production/_ext/108134065/foeappl.o
 .text          0x00000000        0x0 build/LAN9255_SQI_INDIRECT_MODE/production/_ext/108134065/mailbox.o
 .data          0x00000000        0x0 build/LAN9255_SQI_INDIRECT_MODE/production/_ext/108134065/mailbox.o
 .bss           0x00000000        0x0 build/LAN9255_SQI_INDIRECT_MODE/production/_ext/108134065/mailbox.o
 .text          0x00000000        0x0 build/LAN9255_SQI_INDIRECT_MODE/production/_ext/108134065/objdef.o
 .data          0x00000000        0x0 build/LAN9255_SQI_INDIRECT_MODE/production/_ext/108134065/objdef.o
 .bss           0x00000000        0x0 build/LAN9255_SQI_INDIRECT_MODE/production/_ext/108134065/objdef.o
 .text          0x00000000        0x0 build/LAN9255_SQI_INDIRECT_MODE/production/_ext/108134065/sample_app.o
 .data          0x00000000        0x0 build/LAN9255_SQI_INDIRECT_MODE/production/_ext/108134065/sample_app.o
 .bss           0x00000000        0x0 build/LAN9255_SQI_INDIRECT_MODE/production/_ext/108134065/sample_app.o
 .text          0x00000000        0x0 build/LAN9255_SQI_INDIRECT_MODE/production/_ext/108134065/sdoserv.o
 .data          0x00000000        0x0 build/LAN9255_SQI_INDIRECT_MODE/production/_ext/108134065/sdoserv.o
 .bss           0x00000000        0x0 build/LAN9255_SQI_INDIRECT_MODE/production/_ext/108134065/sdoserv.o
 .text          0x00000000        0x0 build/LAN9255_SQI_INDIRECT_MODE/production/_ext/1360937237/main.o
 .data          0x00000000        0x0 build/LAN9255_SQI_INDIRECT_MODE/production/_ext/1360937237/main.o
 .bss           0x00000000        0x0 build/LAN9255_SQI_INDIRECT_MODE/production/_ext/1360937237/main.o
 .text          0x00000000        0x0 build/LAN9255_SQI_INDIRECT_MODE/production/_ext/1360937237/app.o
 .data          0x00000000        0x0 build/LAN9255_SQI_INDIRECT_MODE/production/_ext/1360937237/app.o
 .bss           0x00000000        0x0 build/LAN9255_SQI_INDIRECT_MODE/production/_ext/1360937237/app.o
 .rodata.gAppBankBOffsetAddr
                0x00000000        0x4 build/LAN9255_SQI_INDIRECT_MODE/production/_ext/1360937237/app.o
 .rodata.gApplicationStartAddr
                0x00000000        0x4 build/LAN9255_SQI_INDIRECT_MODE/production/_ext/1360937237/app.o
 .text          0x00000000        0x0 build/LAN9255_SQI_INDIRECT_MODE/production/_ext/1360937237/Developer_Test.o
 .data          0x00000000        0x0 build/LAN9255_SQI_INDIRECT_MODE/production/_ext/1360937237/Developer_Test.o
 .bss           0x00000000        0x0 build/LAN9255_SQI_INDIRECT_MODE/production/_ext/1360937237/Developer_Test.o
 .debug_info    0x00000000     0x100a build/LAN9255_SQI_INDIRECT_MODE/production/_ext/1360937237/Developer_Test.o
 .debug_abbrev  0x00000000      0x178 build/LAN9255_SQI_INDIRECT_MODE/production/_ext/1360937237/Developer_Test.o
 .debug_aranges
                0x00000000       0x18 build/LAN9255_SQI_INDIRECT_MODE/production/_ext/1360937237/Developer_Test.o
 .debug_line    0x00000000      0x209 build/LAN9255_SQI_INDIRECT_MODE/production/_ext/1360937237/Developer_Test.o
 .debug_str     0x00000000        0xe build/LAN9255_SQI_INDIRECT_MODE/production/_ext/1360937237/Developer_Test.o
 .comment       0x00000000       0x3d build/LAN9255_SQI_INDIRECT_MODE/production/_ext/1360937237/Developer_Test.o
 .ARM.attributes
                0x00000000       0x39 build/LAN9255_SQI_INDIRECT_MODE/production/_ext/1360937237/Developer_Test.o
 .text          0x00000000        0x0 c:/program files/microchip/xc32/v2.40/bin/bin/../../lib/gcc/pic32c/6.2.1/../../../../pic32c/lib/v7e-m/fpv4-sp/hard\libpic32c.a(data_init.o)
 .data          0x00000000        0x0 c:/program files/microchip/xc32/v2.40/bin/bin/../../lib/gcc/pic32c/6.2.1/../../../../pic32c/lib/v7e-m/fpv4-sp/hard\libpic32c.a(data_init.o)
 .bss           0x00000000        0x0 c:/program files/microchip/xc32/v2.40/bin/bin/../../lib/gcc/pic32c/6.2.1/../../../../pic32c/lib/v7e-m/fpv4-sp/hard\libpic32c.a(data_init.o)
 .text          0x00000000        0x0 c:/program files/microchip/xc32/v2.40/bin/bin/../../lib/gcc/pic32c/6.2.1/../../../../pic32c/lib/v7e-m/fpv4-sp/hard\libc_nano.a(lib_a-init.o)
 .data          0x00000000        0x0 c:/program files/microchip/xc32/v2.40/bin/bin/../../lib/gcc/pic32c/6.2.1/../../../../pic32c/lib/v7e-m/fpv4-sp/hard\libc_nano.a(lib_a-init.o)
 .bss           0x00000000        0x0 c:/program files/microchip/xc32/v2.40/bin/bin/../../lib/gcc/pic32c/6.2.1/../../../../pic32c/lib/v7e-m/fpv4-sp/hard\libc_nano.a(lib_a-init.o)
 .text          0x00000000        0x0 c:/program files/microchip/xc32/v2.40/bin/bin/../../lib/gcc/pic32c/6.2.1/../../../../pic32c/lib/v7e-m/fpv4-sp/hard\libc_nano.a(lib_a-malloc.o)
 .data          0x00000000        0x0 c:/program files/microchip/xc32/v2.40/bin/bin/../../lib/gcc/pic32c/6.2.1/../../../../pic32c/lib/v7e-m/fpv4-sp/hard\libc_nano.a(lib_a-malloc.o)
 .bss           0x00000000        0x0 c:/program files/microchip/xc32/v2.40/bin/bin/../../lib/gcc/pic32c/6.2.1/../../../../pic32c/lib/v7e-m/fpv4-sp/hard\libc_nano.a(lib_a-malloc.o)
 .text          0x00000000        0x0 c:/program files/microchip/xc32/v2.40/bin/bin/../../lib/gcc/pic32c/6.2.1/../../../../pic32c/lib/v7e-m/fpv4-sp/hard\libc_nano.a(lib_a-memcpy-stub.o)
 .data          0x00000000        0x0 c:/program files/microchip/xc32/v2.40/bin/bin/../../lib/gcc/pic32c/6.2.1/../../../../pic32c/lib/v7e-m/fpv4-sp/hard\libc_nano.a(lib_a-memcpy-stub.o)
 .bss           0x00000000        0x0 c:/program files/microchip/xc32/v2.40/bin/bin/../../lib/gcc/pic32c/6.2.1/../../../../pic32c/lib/v7e-m/fpv4-sp/hard\libc_nano.a(lib_a-memcpy-stub.o)
 .text          0x00000000        0x0 c:/program files/microchip/xc32/v2.40/bin/bin/../../lib/gcc/pic32c/6.2.1/../../../../pic32c/lib/v7e-m/fpv4-sp/hard\libc_nano.a(lib_a-memset.o)
 .data          0x00000000        0x0 c:/program files/microchip/xc32/v2.40/bin/bin/../../lib/gcc/pic32c/6.2.1/../../../../pic32c/lib/v7e-m/fpv4-sp/hard\libc_nano.a(lib_a-memset.o)
 .bss           0x00000000        0x0 c:/program files/microchip/xc32/v2.40/bin/bin/../../lib/gcc/pic32c/6.2.1/../../../../pic32c/lib/v7e-m/fpv4-sp/hard\libc_nano.a(lib_a-memset.o)
 .text          0x00000000        0x0 c:/program files/microchip/xc32/v2.40/bin/bin/../../lib/gcc/pic32c/6.2.1/../../../../pic32c/lib/v7e-m/fpv4-sp/hard\libc_nano.a(lib_a-nano-freer.o)
 .data          0x00000000        0x0 c:/program files/microchip/xc32/v2.40/bin/bin/../../lib/gcc/pic32c/6.2.1/../../../../pic32c/lib/v7e-m/fpv4-sp/hard\libc_nano.a(lib_a-nano-freer.o)
 .bss           0x00000000        0x0 c:/program files/microchip/xc32/v2.40/bin/bin/../../lib/gcc/pic32c/6.2.1/../../../../pic32c/lib/v7e-m/fpv4-sp/hard\libc_nano.a(lib_a-nano-freer.o)
 .text          0x00000000        0x0 c:/program files/microchip/xc32/v2.40/bin/bin/../../lib/gcc/pic32c/6.2.1/../../../../pic32c/lib/v7e-m/fpv4-sp/hard\libc_nano.a(lib_a-nano-mallocr.o)
 .data          0x00000000        0x0 c:/program files/microchip/xc32/v2.40/bin/bin/../../lib/gcc/pic32c/6.2.1/../../../../pic32c/lib/v7e-m/fpv4-sp/hard\libc_nano.a(lib_a-nano-mallocr.o)
 .bss           0x00000000        0x0 c:/program files/microchip/xc32/v2.40/bin/bin/../../lib/gcc/pic32c/6.2.1/../../../../pic32c/lib/v7e-m/fpv4-sp/hard\libc_nano.a(lib_a-nano-mallocr.o)
 .text          0x00000000        0x0 c:/program files/microchip/xc32/v2.40/bin/bin/../../lib/gcc/pic32c/6.2.1/../../../../pic32c/lib/v7e-m/fpv4-sp/hard\libc_nano.a(lib_a-sbrkr.o)
 .data          0x00000000        0x0 c:/program files/microchip/xc32/v2.40/bin/bin/../../lib/gcc/pic32c/6.2.1/../../../../pic32c/lib/v7e-m/fpv4-sp/hard\libc_nano.a(lib_a-sbrkr.o)
 .bss           0x00000000        0x0 c:/program files/microchip/xc32/v2.40/bin/bin/../../lib/gcc/pic32c/6.2.1/../../../../pic32c/lib/v7e-m/fpv4-sp/hard\libc_nano.a(lib_a-sbrkr.o)
 .data          0x00000000        0x0 c:/program files/microchip/xc32/v2.40/bin/bin/../../lib/gcc/pic32c/6.2.1/../../../../pic32c/lib/v7e-m/fpv4-sp/hard\libc_nano.a(lib_a-strlen.o)
 .bss           0x00000000        0x0 c:/program files/microchip/xc32/v2.40/bin/bin/../../lib/gcc/pic32c/6.2.1/../../../../pic32c/lib/v7e-m/fpv4-sp/hard\libc_nano.a(lib_a-strlen.o)
 .text          0x00000000        0x0 c:/program files/microchip/xc32/v2.40/bin/bin/../../lib/gcc/pic32c/6.2.1/../../../../pic32c/lib/v7e-m/fpv4-sp/hard\libc_nano.a(lib_a-impure.o)
 .data          0x00000000        0x0 c:/program files/microchip/xc32/v2.40/bin/bin/../../lib/gcc/pic32c/6.2.1/../../../../pic32c/lib/v7e-m/fpv4-sp/hard\libc_nano.a(lib_a-impure.o)
 .bss           0x00000000        0x0 c:/program files/microchip/xc32/v2.40/bin/bin/../../lib/gcc/pic32c/6.2.1/../../../../pic32c/lib/v7e-m/fpv4-sp/hard\libc_nano.a(lib_a-impure.o)
 .rodata._global_impure_ptr
                0x00000000        0x4 c:/program files/microchip/xc32/v2.40/bin/bin/../../lib/gcc/pic32c/6.2.1/../../../../pic32c/lib/v7e-m/fpv4-sp/hard\libc_nano.a(lib_a-impure.o)
 .text          0x00000000        0x0 c:/program files/microchip/xc32/v2.40/bin/bin/../../lib/gcc/pic32c/6.2.1/../../../../pic32c/lib/v7e-m/fpv4-sp/hard\libc_nano.a(lib_a-mlock.o)
 .data          0x00000000        0x0 c:/program files/microchip/xc32/v2.40/bin/bin/../../lib/gcc/pic32c/6.2.1/../../../../pic32c/lib/v7e-m/fpv4-sp/hard\libc_nano.a(lib_a-mlock.o)
 .bss           0x00000000        0x0 c:/program files/microchip/xc32/v2.40/bin/bin/../../lib/gcc/pic32c/6.2.1/../../../../pic32c/lib/v7e-m/fpv4-sp/hard\libc_nano.a(lib_a-mlock.o)
 .text          0x00000000        0x0 c:/program files/microchip/xc32/v2.40/bin/bin/../../lib/gcc/pic32c/6.2.1/../../../../pic32c/lib/v7e-m/fpv4-sp/hard\libc_nano.a(lib_a-reent.o)
 .data          0x00000000        0x0 c:/program files/microchip/xc32/v2.40/bin/bin/../../lib/gcc/pic32c/6.2.1/../../../../pic32c/lib/v7e-m/fpv4-sp/hard\libc_nano.a(lib_a-reent.o)
 .bss           0x00000000        0x0 c:/program files/microchip/xc32/v2.40/bin/bin/../../lib/gcc/pic32c/6.2.1/../../../../pic32c/lib/v7e-m/fpv4-sp/hard\libc_nano.a(lib_a-reent.o)
 .text.cleanup_glue
                0x00000000       0x1a c:/program files/microchip/xc32/v2.40/bin/bin/../../lib/gcc/pic32c/6.2.1/../../../../pic32c/lib/v7e-m/fpv4-sp/hard\libc_nano.a(lib_a-reent.o)
 .text._reclaim_reent
                0x00000000       0xb8 c:/program files/microchip/xc32/v2.40/bin/bin/../../lib/gcc/pic32c/6.2.1/../../../../pic32c/lib/v7e-m/fpv4-sp/hard\libc_nano.a(lib_a-reent.o)
 .text          0x00000000        0x0 c:/program files/microchip/xc32/v2.40/bin/bin/../../lib/gcc/pic32c/6.2.1/../../../../pic32c/lib/v7e-m/fpv4-sp/hard\libpic32c.a(sbrk.o)
 .data          0x00000000        0x0 c:/program files/microchip/xc32/v2.40/bin/bin/../../lib/gcc/pic32c/6.2.1/../../../../pic32c/lib/v7e-m/fpv4-sp/hard\libpic32c.a(sbrk.o)
 .text          0x00000000        0x0 c:/program files/microchip/xc32/v2.40/bin/bin/../../lib/gcc/pic32c/6.2.1/v7e-m/fpv4-sp/hard/crtend.o
 .data          0x00000000        0x0 c:/program files/microchip/xc32/v2.40/bin/bin/../../lib/gcc/pic32c/6.2.1/v7e-m/fpv4-sp/hard/crtend.o
 .bss           0x00000000        0x0 c:/program files/microchip/xc32/v2.40/bin/bin/../../lib/gcc/pic32c/6.2.1/v7e-m/fpv4-sp/hard/crtend.o
 .eh_frame      0x00000000        0x4 c:/program files/microchip/xc32/v2.40/bin/bin/../../lib/gcc/pic32c/6.2.1/v7e-m/fpv4-sp/hard/crtend.o
 .comment       0x00000000       0x3d c:/program files/microchip/xc32/v2.40/bin/bin/../../lib/gcc/pic32c/6.2.1/v7e-m/fpv4-sp/hard/crtend.o
 .ARM.attributes
                0x00000000       0x34 c:/program files/microchip/xc32/v2.40/bin/bin/../../lib/gcc/pic32c/6.2.1/v7e-m/fpv4-sp/hard/crtend.o
 .text          0x00000000        0x0 c:/program files/microchip/xc32/v2.40/bin/bin/../../lib/gcc/pic32c/6.2.1/v7e-m/fpv4-sp/hard/crtn.o
 .data          0x00000000        0x0 c:/program files/microchip/xc32/v2.40/bin/bin/../../lib/gcc/pic32c/6.2.1/v7e-m/fpv4-sp/hard/crtn.o
 .bss           0x00000000        0x0 c:/program files/microchip/xc32/v2.40/bin/bin/../../lib/gcc/pic32c/6.2.1/v7e-m/fpv4-sp/hard/crtn.o

Memory Configuration

Name             Origin             Length             Attributes
rom              0x00000000         0x000fe000         xrl
ram              0x20000000         0x00040000         xw !r
config_eeprom_mem 0x0003e000         0x00002000         xrl
config_00804000  0x00804000         0x00000004
config_00804004  0x00804004         0x00000004
config_00804008  0x00804008         0x00000004
*default*        0x00000000         0xffffffff

Linker script and memory map

LOAD c:/program files/microchip/xc32/v2.40/bin/bin/../../lib/gcc/pic32c/6.2.1/v7e-m/fpv4-sp/hard/crti.o
LOAD c:/program files/microchip/xc32/v2.40/bin/bin/../../lib/gcc/pic32c/6.2.1/v7e-m/fpv4-sp/hard/crtbegin.o
LOAD build/LAN9255_SQI_INDIRECT_MODE/production/_ext/1984496892/plib_clock.o
LOAD build/LAN9255_SQI_INDIRECT_MODE/production/_ext/1865131932/plib_cmcc.o
LOAD build/LAN9255_SQI_INDIRECT_MODE/production/_ext/60167341/plib_eic.o
LOAD build/LAN9255_SQI_INDIRECT_MODE/production/_ext/1986646378/plib_evsys.o
LOAD build/LAN9255_SQI_INDIRECT_MODE/production/_ext/1865468468/plib_nvic.o
LOAD build/LAN9255_SQI_INDIRECT_MODE/production/_ext/1593096446/plib_nvmctrl.o
LOAD build/LAN9255_SQI_INDIRECT_MODE/production/_ext/1865521619/plib_port.o
LOAD build/LAN9255_SQI_INDIRECT_MODE/production/_ext/1865555181/plib_qspi.o
LOAD build/LAN9255_SQI_INDIRECT_MODE/production/_ext/1865555181/plib_qspi_spi.o
LOAD build/LAN9255_SQI_INDIRECT_MODE/production/_ext/1827571544/plib_systick.o
LOAD build/LAN9255_SQI_INDIRECT_MODE/production/_ext/163028504/xc32_monitor.o
LOAD build/LAN9255_SQI_INDIRECT_MODE/production/_ext/1881668453/sys_int.o
LOAD build/LAN9255_SQI_INDIRECT_MODE/production/_ext/1171490990/exceptions.o
LOAD build/LAN9255_SQI_INDIRECT_MODE/production/_ext/1171490990/initialization.o
LOAD build/LAN9255_SQI_INDIRECT_MODE/production/_ext/1171490990/interrupts.o
LOAD build/LAN9255_SQI_INDIRECT_MODE/production/_ext/1171490990/libc_syscalls.o
LOAD build/LAN9255_SQI_INDIRECT_MODE/production/_ext/1171490990/startup_xc32.o
LOAD build/LAN9255_SQI_INDIRECT_MODE/production/_ext/1171490990/tasks.o
LOAD build/LAN9255_SQI_INDIRECT_MODE/production/_ext/1671622016/Drivers.o
LOAD build/LAN9255_SQI_INDIRECT_MODE/production/_ext/108147519/ESC_Utils.o
LOAD build/LAN9255_SQI_INDIRECT_MODE/production/_ext/108147519/LAN925x.o
LOAD build/LAN9255_SQI_INDIRECT_MODE/production/_ext/108134065/bootmode.o
LOAD build/LAN9255_SQI_INDIRECT_MODE/production/_ext/108134065/coeappl.o
LOAD build/LAN9255_SQI_INDIRECT_MODE/production/_ext/108134065/ecatappl.o
LOAD build/LAN9255_SQI_INDIRECT_MODE/production/_ext/108134065/ecatcoe.o
LOAD build/LAN9255_SQI_INDIRECT_MODE/production/_ext/108134065/ecatfoe.o
LOAD build/LAN9255_SQI_INDIRECT_MODE/production/_ext/108134065/ecatslv.o
LOAD build/LAN9255_SQI_INDIRECT_MODE/production/_ext/108134065/emcy.o
LOAD build/LAN9255_SQI_INDIRECT_MODE/production/_ext/108134065/foeappl.o
LOAD build/LAN9255_SQI_INDIRECT_MODE/production/_ext/108134065/mailbox.o
LOAD build/LAN9255_SQI_INDIRECT_MODE/production/_ext/108134065/objdef.o
LOAD build/LAN9255_SQI_INDIRECT_MODE/production/_ext/108134065/sample_app.o
LOAD build/LAN9255_SQI_INDIRECT_MODE/production/_ext/108134065/sdoserv.o
LOAD build/LAN9255_SQI_INDIRECT_MODE/production/_ext/1360937237/main.o
LOAD build/LAN9255_SQI_INDIRECT_MODE/production/_ext/1360937237/app.o
LOAD build/LAN9255_SQI_INDIRECT_MODE/production/_ext/1360937237/Developer_Test.o
                0x00000001                __MPLAB_BUILD = 0x1
                0x000fe000                __rom_end = (ORIGIN (rom) + LENGTH (rom))
                0x20040000                __ram_end = (ORIGIN (ram) + LENGTH (ram))

.config_00804000
 *(.config_00804000)

.config_eeprom  0x0003e000      0x800
 *(.config_eeprom)
 .config_eeprom
                0x0003e000      0x800 build/LAN9255_SQI_INDIRECT_MODE/production/_ext/1360937237/app.o
                0x0003e000                aEepromData

.config_00804004
 *(.config_00804004)

.config_00804008
 *(.config_00804008)

.vectors        0x00000000      0x260
                0x00000000                . = ALIGN (0x4)
                0x00000000                _sfixed = .
 *(.vectors .vectors.* .vectors_default .vectors_default.*)
 .vectors       0x00000000      0x260 build/LAN9255_SQI_INDIRECT_MODE/production/_ext/1171490990/interrupts.o
                0x00000000                exception_table
 *(.isr_vector)
 *(.reset*)
 *(.after_vectors)

.text           0x00000260       0x20
                0x00000260                . = ALIGN (0x4)
 *(.glue_7t)
 .glue_7t       0x00000260        0x0 linker stubs
 *(.glue_7)
 .glue_7        0x00000260        0x0 linker stubs
 *(.gnu.linkonce.r.*)
 *(.ARM.extab* .gnu.linkonce.armextab.*)
                0x00000260                . = ALIGN (0x4)
 *(.init)
 .init          0x00000260        0x4 c:/program files/microchip/xc32/v2.40/bin/bin/../../lib/gcc/pic32c/6.2.1/v7e-m/fpv4-sp/hard/crti.o
                0x00000260                _init
 .init          0x00000264        0x8 c:/program files/microchip/xc32/v2.40/bin/bin/../../lib/gcc/pic32c/6.2.1/v7e-m/fpv4-sp/hard/crtn.o
                0x0000026c                . = ALIGN (0x4)
                0x0000026c                __preinit_array_start = .
 *(.preinit_array)
                0x0000026c                __preinit_array_end = .
                0x0000026c                . = ALIGN (0x4)
                0x0000026c                __init_array_start = .
 *(SORT(.init_array.*))
 *(.init_array)
 .init_array    0x0000026c        0x4 c:/program files/microchip/xc32/v2.40/bin/bin/../../lib/gcc/pic32c/6.2.1/v7e-m/fpv4-sp/hard/crtbegin.o
                0x00000270                __init_array_end = .
                0x00000270                . = ALIGN (0x4)
 *crtbegin.o(.ctors)
 *(EXCLUDE_FILE(*crtend.o) .ctors)
 *(SORT(.ctors.*))
 *crtend.o(.ctors)
                0x00000270                . = ALIGN (0x4)
 *(.fini)
 .fini          0x00000270        0x4 c:/program files/microchip/xc32/v2.40/bin/bin/../../lib/gcc/pic32c/6.2.1/v7e-m/fpv4-sp/hard/crti.o
                0x00000270                _fini
 .fini          0x00000274        0x8 c:/program files/microchip/xc32/v2.40/bin/bin/../../lib/gcc/pic32c/6.2.1/v7e-m/fpv4-sp/hard/crtn.o
                0x0000027c                . = ALIGN (0x4)
                0x0000027c                __fini_array_start = .
 *(.fini_array)
 .fini_array    0x0000027c        0x4 c:/program files/microchip/xc32/v2.40/bin/bin/../../lib/gcc/pic32c/6.2.1/v7e-m/fpv4-sp/hard/crtbegin.o
 *(SORT(.fini_array.*))
                0x00000280                __fini_array_end = .
 *crtbegin.o(.dtors)
 *(EXCLUDE_FILE(*crtend.o) .dtors)
 *(SORT(.dtors.*))
 *crtend.o(.dtors)
                0x00000280                . = ALIGN (0x4)
                0x00000280                _efixed = .
                [!provide]                PROVIDE (__exidx_start, .)

.ARM.exidx
 *(.ARM.exidx* .gnu.linkonce.armexidx.*)
                [!provide]                PROVIDE (__exidx_end, .)
                0x00000280                . = ALIGN (0x4)
                0x00000280                _etext = .

.bss            0x20000000     0x23e4
                0x20000000                . = ALIGN (0x4)
                0x20000000                __bss_start__ = .
                0x20000000                _sbss = .
                0x20000000                _szero = .
 *(COMMON)
 COMMON         0x20000000       0xc0 build/LAN9255_SQI_INDIRECT_MODE/production/_ext/60167341/plib_eic.o
                0x20000000                eicCallbackObject
 COMMON         0x200000c0        0xc build/LAN9255_SQI_INDIRECT_MODE/production/_ext/1827571544/plib_systick.o
                0x200000c0                systick
 COMMON         0x200000cc        0x2 build/LAN9255_SQI_INDIRECT_MODE/production/_ext/108147519/LAN925x.o
                0x200000cc                gEscALEvent
 *fill*         0x200000ce        0x2 
 COMMON         0x200000d0        0x8 build/LAN9255_SQI_INDIRECT_MODE/production/_ext/108134065/coeappl.o
                0x200000d0                u32LastDc32Value
                0x200000d4                u32CheckForDcOverrunCnt
 COMMON         0x200000d8       0xe0 build/LAN9255_SQI_INDIRECT_MODE/production/_ext/108134065/ecatappl.o
                0x200000d8                pAPPL_EEPROM_Store
                0x200000dc                bMinCycleTimeMeasurementStarted
                0x200000e0                u32CycleTimeStartValue
                0x200000e4                pAPPL_EEPROM_Read
                0x200000e8                pAPPL_EEPROM_Write
                0x200000ec                bRunApplication
                0x200000f0                u32SystemTimeReadFailure
                0x200000f4                bEcatWaitForInputUpdate
                0x200000f8                u32MinCycleTimeValue
                0x200000fc                aPdOutputData
                0x20000140                pAPPL_FoeError
                0x20000144                u16EepromStoreTimeoutCounter
                0x20000146                EepromReadSize
                0x20000148                pAPPL_FoeReadData
                0x2000014c                pAPPL_MainLoop
                0x20000150                bEtherCATErrorLed
                0x20000154                u32MinCycleTimeStartValue
                0x20000158                aPdInputData
                0x2000019c                pEEPROM
                0x200001a0                bEtherCATRunLed
                0x200001a4                pAPPL_FoeWriteData
                0x200001a8                pAPPL_EEPROM_Reload
                0x200001ac                pAPPL_FoeRead
                0x200001b0                u16EepromStoreTimeoutValue
                0x200001b4                pAPPL_FoeWrite
 COMMON         0x200001b8        0x4 build/LAN9255_SQI_INDIRECT_MODE/production/_ext/108134065/ecatcoe.o
                0x200001b8                pCoeSendStored
 COMMON         0x200001bc       0x16 build/LAN9255_SQI_INDIRECT_MODE/production/_ext/108134065/ecatfoe.o
                0x200001bc                u32FileOffset
                0x200001c0                u16FileAccessState
                0x200001c4                u32PacketNo
                0x200001c8                pFoeSendStored
                0x200001cc                u32LastFileOffset
                0x200001d0                u16FoeMaxSendBlockSize
 *fill*         0x200001d2        0x2 
 COMMON         0x200001d4       0x52 build/LAN9255_SQI_INDIRECT_MODE/production/_ext/108134065/ecatslv.o
                0x200001d4                b3BufferMode
                0x200001d6                nEcatStateTrans
                0x200001d8                EcatWdCounter
                0x200001da                bApplEsmPending
                0x200001db                nAlStatus
                0x200001dc                nPdOutputSize
                0x200001de                u16LocalErrorCode
                0x200001e0                Sync0WdCounter
                0x200001e2                bLocalErrorFlag
                0x200001e4                LatchInputSync0Counter
                0x200001e6                i16WaitForPllRunningCnt
                0x200001e8                nEscAddrOutputData
                0x200001ea                Sync0WdValue
                0x200001ec                u8EcatRunLed
                0x200001ee                i16WaitForPllRunningTimeout
                0x200001f0                Sync1WdValue
                0x200001f2                u16ALEventMask
                0x200001f4                bDcRunning
                0x200001f8                u32dummy
                0x200001fc                SyncManInfo
                0x20000204                b32BitDc
                0x20000206                LatchInputSync0Value
                0x20000208                bEcatWaitForAlControlRes
                0x2000020a                nPdInputSize
                0x2000020c                u16SmSync0Value
                0x2000020e                nMaxEscAddress
                0x20000210                bEcatFirstOutputsReceived
                0x20000211                bSmSyncSequenceValid
                0x20000212                EsmTimeoutCounter
                0x20000214                bBootMode
                0x20000215                bDcSyncActive
                0x20000216                bEcatOutputUpdateRunning
                0x20000218                Sync1WdCounter
                0x2000021a                EcatWdValue
                0x2000021c                bEcatInputUpdateRunning
                0x2000021d                bEscIntEnabled
                0x2000021e                bWdTrigger
                0x20000220                u16SmSync0Counter
                0x20000222                nMaxSyncMan
                0x20000223                u8EcatErrorLed
                0x20000224                nEscAddrInputData
 *fill*         0x20000226        0x2 
 COMMON         0x20000228       0x28 build/LAN9255_SQI_INDIRECT_MODE/production/_ext/108134065/emcy.o
                0x20000228                sSendEmcyQueue
                0x20000238                asEmcy
                0x20000240                sEmptyEmcyQueue
 COMMON         0x20000250       0x94 build/LAN9255_SQI_INDIRECT_MODE/production/_ext/108134065/mailbox.o
                0x20000250                u8MbxReadCounter
                0x20000254                sMbxSendQueue
                0x20000288                sMbxReceiveQueue
                0x200002bc                bNoMbxMemoryAvailable
                0x200002bd                bSendMbxIsFull
                0x200002be                bMbxRunning
                0x200002c0                u16EscAddrReceiveMbx
                0x200002c4                psStoreMbx
                0x200002c8                u16SendMbxSize
                0x200002cc                psReadMbx
                0x200002d0                bReceiveMbxIsLocked
                0x200002d2                u16EscAddrSendMbx
                0x200002d4                psWriteMbx
                0x200002d8                u8MbxWriteCounter
                0x200002d9                u8MailboxSendReqStored
                0x200002da                u16ReceiveMbxSize
                0x200002dc                bMbxRepeatToggle
                0x200002e0                psRepeatMbx
 COMMON         0x200002e4       0x8e build/LAN9255_SQI_INDIRECT_MODE/production/_ext/108134065/objdef.o
                0x200002e4                sSyncManInPar
                0x20000328                sSyncManOutPar
                0x2000036c                bSyncSetByUser
                0x20000370                sCycleDiag
 *fill*         0x20000372        0x2 
 COMMON         0x20000374     0x2016 build/LAN9255_SQI_INDIRECT_MODE/production/_ext/108134065/sample_app.o
                0x20000374                aFileData
                0x20002374                aFileName
 *fill*         0x2000238a        0x2 
 COMMON         0x2000238c       0x4d build/LAN9255_SQI_INDIRECT_MODE/production/_ext/108134065/sdoserv.o
                0x2000238c                nSdoInfoIndex
                0x20002390                pStoreData
                0x20002394                nSdoSegBytesToHandle
                0x20002398                bSdoSegAccess
                0x20002399                bSdoSegFollows
                0x2000239c                nSdoSegCompleteSize
                0x200023a0                pSdoPendFunc
                0x200023a4                u8PendingSdo
                0x200023a5                bStoreCompleteAccess
                0x200023a6                bSdoSegLastToggle
                0x200023a7                nSdoSegService
                0x200023a8                pSdoInfoObjEntry
                0x200023ac                nSdoInfoFragmentsLeft
                0x200023b0                pSdoResStored
                0x200023b4                u32StoreDataSize
                0x200023b8                pSdoSegData
                0x200023bc                nSdoSegIndex
                0x200023c0                aSdoInfoHeader
                0x200023d0                pSdoSegObjEntry
                0x200023d4                nSdoSegSubindex
                0x200023d6                u16StoreIndex
                0x200023d8                u8StoreSubindex
 *fill*         0x200023d9        0x3 
 COMMON         0x200023dc        0x1 build/LAN9255_SQI_INDIRECT_MODE/production/_ext/1360937237/app.o
                0x200023dc                appData
 *fill*         0x200023dd        0x3 
 COMMON         0x200023e0        0x4 c:/program files/microchip/xc32/v2.40/bin/bin/../../lib/gcc/pic32c/6.2.1/../../../../pic32c/lib/v7e-m/fpv4-sp/hard\libc_nano.a(lib_a-reent.o)
                0x200023e0                errno
                0x200023e4                . = ALIGN (0x4)
                0x200023e4                __bss_end__ = .
                0x200023e4                _ebss = .
                0x200023e4                _ezero = .
                0x200023e4                . = ALIGN (0x4)
                0x200023e4                _end = .
                0x2003ffff                _ram_end_ = ((ORIGIN (ram) + LENGTH (ram)) - 0x1)
                0x00000200                _min_heap_size = 0x200
START GROUP
LOAD c:/program files/microchip/xc32/v2.40/bin/bin/../../lib/gcc/pic32c/6.2.1/../../../../pic32c/lib/v7e-m/fpv4-sp/hard\libpic32c.a
LOAD c:/program files/microchip/xc32/v2.40/bin/bin/../../lib/gcc/pic32c/6.2.1/v7e-m/fpv4-sp/hard\libgcc.a
LOAD c:/program files/microchip/xc32/v2.40/bin/bin/../../lib/gcc/pic32c/6.2.1/../../../../pic32c/lib/v7e-m/fpv4-sp/hard\libm_nano.a
LOAD c:/program files/microchip/xc32/v2.40/bin/bin/../../lib/gcc/pic32c/6.2.1/../../../../pic32c/lib/v7e-m/fpv4-sp/hard\libc_nano.a
END GROUP
LOAD c:/program files/microchip/xc32/v2.40/bin/bin/../../lib/gcc/pic32c/6.2.1/v7e-m/fpv4-sp/hard/crtend.o
LOAD c:/program files/microchip/xc32/v2.40/bin/bin/../../lib/gcc/pic32c/6.2.1/v7e-m/fpv4-sp/hard/crtn.o
OUTPUT(dist/LAN9255_SQI_INDIRECT_MODE/production/EVB_LAN9255_IO_FoE.X.production.elf elf32-littlearm)
LOAD stack
LOAD data_init

.ARM.attributes
                0x00000000       0x30
 .ARM.attributes
                0x00000000       0x22 c:/program files/microchip/xc32/v2.40/bin/bin/../../lib/gcc/pic32c/6.2.1/v7e-m/fpv4-sp/hard/crti.o
 .ARM.attributes
                0x00000022       0x34 c:/program files/microchip/xc32/v2.40/bin/bin/../../lib/gcc/pic32c/6.2.1/v7e-m/fpv4-sp/hard/crtbegin.o
 .ARM.attributes
                0x00000056       0x39 build/LAN9255_SQI_INDIRECT_MODE/production/_ext/1984496892/plib_clock.o
 .ARM.attributes
                0x0000008f       0x39 build/LAN9255_SQI_INDIRECT_MODE/production/_ext/60167341/plib_eic.o
 .ARM.attributes
                0x000000c8       0x39 build/LAN9255_SQI_INDIRECT_MODE/production/_ext/1986646378/plib_evsys.o
 .ARM.attributes
                0x00000101       0x39 build/LAN9255_SQI_INDIRECT_MODE/production/_ext/1865468468/plib_nvic.o
 .ARM.attributes
                0x0000013a       0x39 build/LAN9255_SQI_INDIRECT_MODE/production/_ext/1593096446/plib_nvmctrl.o
 .ARM.attributes
                0x00000173       0x39 build/LAN9255_SQI_INDIRECT_MODE/production/_ext/1865521619/plib_port.o
 .ARM.attributes
                0x000001ac       0x39 build/LAN9255_SQI_INDIRECT_MODE/production/_ext/1865555181/plib_qspi.o
 .ARM.attributes
                0x000001e5       0x39 build/LAN9255_SQI_INDIRECT_MODE/production/_ext/1827571544/plib_systick.o
 .ARM.attributes
                0x0000021e       0x39 build/LAN9255_SQI_INDIRECT_MODE/production/_ext/1171490990/exceptions.o
 .ARM.attributes
                0x00000257       0x39 build/LAN9255_SQI_INDIRECT_MODE/production/_ext/1171490990/initialization.o
 .ARM.attributes
                0x00000290       0x39 build/LAN9255_SQI_INDIRECT_MODE/production/_ext/1171490990/interrupts.o
 .ARM.attributes
                0x000002c9       0x39 build/LAN9255_SQI_INDIRECT_MODE/production/_ext/1171490990/startup_xc32.o
 .ARM.attributes
                0x00000302       0x39 build/LAN9255_SQI_INDIRECT_MODE/production/_ext/1171490990/tasks.o
 .ARM.attributes
                0x0000033b       0x39 build/LAN9255_SQI_INDIRECT_MODE/production/_ext/1671622016/Drivers.o
 .ARM.attributes
                0x00000374       0x39 build/LAN9255_SQI_INDIRECT_MODE/production/_ext/108147519/ESC_Utils.o
 .ARM.attributes
                0x000003ad       0x39 build/LAN9255_SQI_INDIRECT_MODE/production/_ext/108147519/LAN925x.o
 .ARM.attributes
                0x000003e6       0x39 build/LAN9255_SQI_INDIRECT_MODE/production/_ext/108134065/bootmode.o
 .ARM.attributes
                0x0000041f       0x39 build/LAN9255_SQI_INDIRECT_MODE/production/_ext/108134065/coeappl.o
 .ARM.attributes
                0x00000458       0x39 build/LAN9255_SQI_INDIRECT_MODE/production/_ext/108134065/ecatappl.o
 .ARM.attributes
                0x00000491       0x39 build/LAN9255_SQI_INDIRECT_MODE/production/_ext/108134065/ecatcoe.o
 .ARM.attributes
                0x000004ca       0x39 build/LAN9255_SQI_INDIRECT_MODE/production/_ext/108134065/ecatfoe.o
 .ARM.attributes
                0x00000503       0x39 build/LAN9255_SQI_INDIRECT_MODE/production/_ext/108134065/ecatslv.o
 .ARM.attributes
                0x0000053c       0x39 build/LAN9255_SQI_INDIRECT_MODE/production/_ext/108134065/emcy.o
 .ARM.attributes
                0x00000575       0x39 build/LAN9255_SQI_INDIRECT_MODE/production/_ext/108134065/foeappl.o
 .ARM.attributes
                0x000005ae       0x39 build/LAN9255_SQI_INDIRECT_MODE/production/_ext/108134065/mailbox.o
 .ARM.attributes
                0x000005e7       0x39 build/LAN9255_SQI_INDIRECT_MODE/production/_ext/108134065/objdef.o
 .ARM.attributes
                0x00000620       0x39 build/LAN9255_SQI_INDIRECT_MODE/production/_ext/108134065/sample_app.o
 .ARM.attributes
                0x00000659       0x39 build/LAN9255_SQI_INDIRECT_MODE/production/_ext/108134065/sdoserv.o
 .ARM.attributes
                0x00000692       0x39 build/LAN9255_SQI_INDIRECT_MODE/production/_ext/1360937237/main.o
 .ARM.attributes
                0x000006cb       0x39 build/LAN9255_SQI_INDIRECT_MODE/production/_ext/1360937237/app.o
 .ARM.attributes
                0x00000704       0x34 c:/program files/microchip/xc32/v2.40/bin/bin/../../lib/gcc/pic32c/6.2.1/../../../../pic32c/lib/v7e-m/fpv4-sp/hard\libpic32c.a(data_init.o)
 .ARM.attributes
                0x00000738       0x34 c:/program files/microchip/xc32/v2.40/bin/bin/../../lib/gcc/pic32c/6.2.1/../../../../pic32c/lib/v7e-m/fpv4-sp/hard\libc_nano.a(lib_a-init.o)
 .ARM.attributes
                0x0000076c       0x34 c:/program files/microchip/xc32/v2.40/bin/bin/../../lib/gcc/pic32c/6.2.1/../../../../pic32c/lib/v7e-m/fpv4-sp/hard\libc_nano.a(lib_a-malloc.o)
 .ARM.attributes
                0x000007a0       0x34 c:/program files/microchip/xc32/v2.40/bin/bin/../../lib/gcc/pic32c/6.2.1/../../../../pic32c/lib/v7e-m/fpv4-sp/hard\libc_nano.a(lib_a-memcpy-stub.o)
 .ARM.attributes
                0x000007d4       0x34 c:/program files/microchip/xc32/v2.40/bin/bin/../../lib/gcc/pic32c/6.2.1/../../../../pic32c/lib/v7e-m/fpv4-sp/hard\libc_nano.a(lib_a-memset.o)
 .ARM.attributes
                0x00000808       0x34 c:/program files/microchip/xc32/v2.40/bin/bin/../../lib/gcc/pic32c/6.2.1/../../../../pic32c/lib/v7e-m/fpv4-sp/hard\libc_nano.a(lib_a-nano-freer.o)
 .ARM.attributes
                0x0000083c       0x34 c:/program files/microchip/xc32/v2.40/bin/bin/../../lib/gcc/pic32c/6.2.1/../../../../pic32c/lib/v7e-m/fpv4-sp/hard\libc_nano.a(lib_a-nano-mallocr.o)
 .ARM.attributes
                0x00000870       0x34 c:/program files/microchip/xc32/v2.40/bin/bin/../../lib/gcc/pic32c/6.2.1/../../../../pic32c/lib/v7e-m/fpv4-sp/hard\libc_nano.a(lib_a-sbrkr.o)
 .ARM.attributes
                0x000008a4       0x1b c:/program files/microchip/xc32/v2.40/bin/bin/../../lib/gcc/pic32c/6.2.1/../../../../pic32c/lib/v7e-m/fpv4-sp/hard\libc_nano.a(lib_a-strlen.o)
 .ARM.attributes
                0x000008bf       0x34 c:/program files/microchip/xc32/v2.40/bin/bin/../../lib/gcc/pic32c/6.2.1/../../../../pic32c/lib/v7e-m/fpv4-sp/hard\libc_nano.a(lib_a-impure.o)
 .ARM.attributes
                0x000008f3       0x34 c:/program files/microchip/xc32/v2.40/bin/bin/../../lib/gcc/pic32c/6.2.1/../../../../pic32c/lib/v7e-m/fpv4-sp/hard\libc_nano.a(lib_a-mlock.o)
 .ARM.attributes
                0x00000927       0x34 c:/program files/microchip/xc32/v2.40/bin/bin/../../lib/gcc/pic32c/6.2.1/../../../../pic32c/lib/v7e-m/fpv4-sp/hard\libc_nano.a(lib_a-reent.o)
 .ARM.attributes
                0x0000095b       0x34 c:/program files/microchip/xc32/v2.40/bin/bin/../../lib/gcc/pic32c/6.2.1/../../../../pic32c/lib/v7e-m/fpv4-sp/hard\libpic32c.a(sbrk.o)
 .ARM.attributes
                0x0000098f       0x22 c:/program files/microchip/xc32/v2.40/bin/bin/../../lib/gcc/pic32c/6.2.1/v7e-m/fpv4-sp/hard/crtn.o

.comment        0x00000000       0x3c
 .comment       0x00000000       0x3c c:/program files/microchip/xc32/v2.40/bin/bin/../../lib/gcc/pic32c/6.2.1/v7e-m/fpv4-sp/hard/crtbegin.o
                                 0x3d (size before relaxing)
 .comment       0x0000003c       0x3d build/LAN9255_SQI_INDIRECT_MODE/production/_ext/1984496892/plib_clock.o
 .comment       0x0000003c       0x3d build/LAN9255_SQI_INDIRECT_MODE/production/_ext/60167341/plib_eic.o
 .comment       0x0000003c       0x3d build/LAN9255_SQI_INDIRECT_MODE/production/_ext/1986646378/plib_evsys.o
 .comment       0x0000003c       0x3d build/LAN9255_SQI_INDIRECT_MODE/production/_ext/1865468468/plib_nvic.o
 .comment       0x0000003c       0x3d build/LAN9255_SQI_INDIRECT_MODE/production/_ext/1593096446/plib_nvmctrl.o
 .comment       0x0000003c       0x3d build/LAN9255_SQI_INDIRECT_MODE/production/_ext/1865521619/plib_port.o
 .comment       0x0000003c       0x3d build/LAN9255_SQI_INDIRECT_MODE/production/_ext/1865555181/plib_qspi.o
 .comment       0x0000003c       0x3d build/LAN9255_SQI_INDIRECT_MODE/production/_ext/1827571544/plib_systick.o
 .comment       0x0000003c       0x3d build/LAN9255_SQI_INDIRECT_MODE/production/_ext/1171490990/exceptions.o
 .comment       0x0000003c       0x3d build/LAN9255_SQI_INDIRECT_MODE/production/_ext/1171490990/initialization.o
 .comment       0x0000003c       0x3d build/LAN9255_SQI_INDIRECT_MODE/production/_ext/1171490990/interrupts.o
 .comment       0x0000003c       0x3d build/LAN9255_SQI_INDIRECT_MODE/production/_ext/1171490990/startup_xc32.o
 .comment       0x0000003c       0x3d build/LAN9255_SQI_INDIRECT_MODE/production/_ext/1171490990/tasks.o
 .comment       0x0000003c       0x3d build/LAN9255_SQI_INDIRECT_MODE/production/_ext/1671622016/Drivers.o
 .comment       0x0000003c       0x3d build/LAN9255_SQI_INDIRECT_MODE/production/_ext/108147519/ESC_Utils.o
 .comment       0x0000003c       0x3d build/LAN9255_SQI_INDIRECT_MODE/production/_ext/108147519/LAN925x.o
 .comment       0x0000003c       0x3d build/LAN9255_SQI_INDIRECT_MODE/production/_ext/108134065/bootmode.o
 .comment       0x0000003c       0x3d build/LAN9255_SQI_INDIRECT_MODE/production/_ext/108134065/coeappl.o
 .comment       0x0000003c       0x3d build/LAN9255_SQI_INDIRECT_MODE/production/_ext/108134065/ecatappl.o
 .comment       0x0000003c       0x3d build/LAN9255_SQI_INDIRECT_MODE/production/_ext/108134065/ecatcoe.o
 .comment       0x0000003c       0x3d build/LAN9255_SQI_INDIRECT_MODE/production/_ext/108134065/ecatfoe.o
 .comment       0x0000003c       0x3d build/LAN9255_SQI_INDIRECT_MODE/production/_ext/108134065/ecatslv.o
 .comment       0x0000003c       0x3d build/LAN9255_SQI_INDIRECT_MODE/production/_ext/108134065/emcy.o
 .comment       0x0000003c       0x3d build/LAN9255_SQI_INDIRECT_MODE/production/_ext/108134065/foeappl.o
 .comment       0x0000003c       0x3d build/LAN9255_SQI_INDIRECT_MODE/production/_ext/108134065/mailbox.o
 .comment       0x0000003c       0x3d build/LAN9255_SQI_INDIRECT_MODE/production/_ext/108134065/objdef.o
 .comment       0x0000003c       0x3d build/LAN9255_SQI_INDIRECT_MODE/production/_ext/108134065/sample_app.o
 .comment       0x0000003c       0x3d build/LAN9255_SQI_INDIRECT_MODE/production/_ext/108134065/sdoserv.o
 .comment       0x0000003c       0x3d build/LAN9255_SQI_INDIRECT_MODE/production/_ext/1360937237/main.o
 .comment       0x0000003c       0x3d build/LAN9255_SQI_INDIRECT_MODE/production/_ext/1360937237/app.o
 .comment       0x0000003c       0x3d c:/program files/microchip/xc32/v2.40/bin/bin/../../lib/gcc/pic32c/6.2.1/../../../../pic32c/lib/v7e-m/fpv4-sp/hard\libpic32c.a(data_init.o)
 .comment       0x0000003c       0x3d c:/program files/microchip/xc32/v2.40/bin/bin/../../lib/gcc/pic32c/6.2.1/../../../../pic32c/lib/v7e-m/fpv4-sp/hard\libc_nano.a(lib_a-init.o)
 .comment       0x0000003c       0x3d c:/program files/microchip/xc32/v2.40/bin/bin/../../lib/gcc/pic32c/6.2.1/../../../../pic32c/lib/v7e-m/fpv4-sp/hard\libc_nano.a(lib_a-malloc.o)
 .comment       0x0000003c       0x3d c:/program files/microchip/xc32/v2.40/bin/bin/../../lib/gcc/pic32c/6.2.1/../../../../pic32c/lib/v7e-m/fpv4-sp/hard\libc_nano.a(lib_a-memcpy-stub.o)
 .comment       0x0000003c       0x3d c:/program files/microchip/xc32/v2.40/bin/bin/../../lib/gcc/pic32c/6.2.1/../../../../pic32c/lib/v7e-m/fpv4-sp/hard\libc_nano.a(lib_a-memset.o)
 .comment       0x0000003c       0x3d c:/program files/microchip/xc32/v2.40/bin/bin/../../lib/gcc/pic32c/6.2.1/../../../../pic32c/lib/v7e-m/fpv4-sp/hard\libc_nano.a(lib_a-nano-freer.o)
 .comment       0x0000003c       0x3d c:/program files/microchip/xc32/v2.40/bin/bin/../../lib/gcc/pic32c/6.2.1/../../../../pic32c/lib/v7e-m/fpv4-sp/hard\libc_nano.a(lib_a-nano-mallocr.o)
 .comment       0x0000003c       0x3d c:/program files/microchip/xc32/v2.40/bin/bin/../../lib/gcc/pic32c/6.2.1/../../../../pic32c/lib/v7e-m/fpv4-sp/hard\libc_nano.a(lib_a-sbrkr.o)
 .comment       0x0000003c       0x3d c:/program files/microchip/xc32/v2.40/bin/bin/../../lib/gcc/pic32c/6.2.1/../../../../pic32c/lib/v7e-m/fpv4-sp/hard\libc_nano.a(lib_a-impure.o)
 .comment       0x0000003c       0x3d c:/program files/microchip/xc32/v2.40/bin/bin/../../lib/gcc/pic32c/6.2.1/../../../../pic32c/lib/v7e-m/fpv4-sp/hard\libc_nano.a(lib_a-mlock.o)
 .comment       0x0000003c       0x3d c:/program files/microchip/xc32/v2.40/bin/bin/../../lib/gcc/pic32c/6.2.1/../../../../pic32c/lib/v7e-m/fpv4-sp/hard\libc_nano.a(lib_a-reent.o)
 .comment       0x0000003c       0x3d c:/program files/microchip/xc32/v2.40/bin/bin/../../lib/gcc/pic32c/6.2.1/../../../../pic32c/lib/v7e-m/fpv4-sp/hard\libpic32c.a(sbrk.o)

.debug_info     0x00000000    0x38cfa
 .debug_info    0x00000000      0xbad build/LAN9255_SQI_INDIRECT_MODE/production/_ext/1984496892/plib_clock.o
 .debug_info    0x00000bad      0x83d build/LAN9255_SQI_INDIRECT_MODE/production/_ext/60167341/plib_eic.o
 .debug_info    0x000013ea      0x3b8 build/LAN9255_SQI_INDIRECT_MODE/production/_ext/1986646378/plib_evsys.o
 .debug_info    0x000017a2     0x1157 build/LAN9255_SQI_INDIRECT_MODE/production/_ext/1865468468/plib_nvic.o
 .debug_info    0x000028f9     0x1718 build/LAN9255_SQI_INDIRECT_MODE/production/_ext/1593096446/plib_nvmctrl.o
 .debug_info    0x00004011      0x874 build/LAN9255_SQI_INDIRECT_MODE/production/_ext/1865521619/plib_port.o
 .debug_info    0x00004885      0xcda build/LAN9255_SQI_INDIRECT_MODE/production/_ext/1865555181/plib_qspi.o
 .debug_info    0x0000555f      0x713 build/LAN9255_SQI_INDIRECT_MODE/production/_ext/1827571544/plib_systick.o
 .debug_info    0x00005c72      0xfe4 build/LAN9255_SQI_INDIRECT_MODE/production/_ext/1171490990/exceptions.o
 .debug_info    0x00006c56      0xf3f build/LAN9255_SQI_INDIRECT_MODE/production/_ext/1171490990/initialization.o
 .debug_info    0x00007b95     0x222b build/LAN9255_SQI_INDIRECT_MODE/production/_ext/1171490990/interrupts.o
 .debug_info    0x00009dc0     0x140f build/LAN9255_SQI_INDIRECT_MODE/production/_ext/1171490990/startup_xc32.o
 .debug_info    0x0000b1cf      0xf14 build/LAN9255_SQI_INDIRECT_MODE/production/_ext/1171490990/tasks.o
 .debug_info    0x0000c0e3     0x32da build/LAN9255_SQI_INDIRECT_MODE/production/_ext/1671622016/Drivers.o
 .debug_info    0x0000f3bd     0x126f build/LAN9255_SQI_INDIRECT_MODE/production/_ext/108147519/ESC_Utils.o
 .debug_info    0x0001062c     0x1e83 build/LAN9255_SQI_INDIRECT_MODE/production/_ext/108147519/LAN925x.o
 .debug_info    0x000124af     0x12aa build/LAN9255_SQI_INDIRECT_MODE/production/_ext/108134065/bootmode.o
 .debug_info    0x00013759     0x2a8e build/LAN9255_SQI_INDIRECT_MODE/production/_ext/108134065/coeappl.o
 .debug_info    0x000161e7     0x2583 build/LAN9255_SQI_INDIRECT_MODE/production/_ext/108134065/ecatappl.o
 .debug_info    0x0001876a     0x16c2 build/LAN9255_SQI_INDIRECT_MODE/production/_ext/108134065/ecatcoe.o
 .debug_info    0x00019e2c     0x1a4e build/LAN9255_SQI_INDIRECT_MODE/production/_ext/108134065/ecatfoe.o
 .debug_info    0x0001b87a     0x2955 build/LAN9255_SQI_INDIRECT_MODE/production/_ext/108134065/ecatslv.o
 .debug_info    0x0001e1cf     0x1ad6 build/LAN9255_SQI_INDIRECT_MODE/production/_ext/108134065/emcy.o
 .debug_info    0x0001fca5     0x1ff9 build/LAN9255_SQI_INDIRECT_MODE/production/_ext/108134065/foeappl.o
 .debug_info    0x00021c9e     0x2193 build/LAN9255_SQI_INDIRECT_MODE/production/_ext/108134065/mailbox.o
 .debug_info    0x00023e31     0x27a1 build/LAN9255_SQI_INDIRECT_MODE/production/_ext/108134065/objdef.o
 .debug_info    0x000265d2     0x2dd3 build/LAN9255_SQI_INDIRECT_MODE/production/_ext/108134065/sample_app.o
 .debug_info    0x000293a5     0x2aa6 build/LAN9255_SQI_INDIRECT_MODE/production/_ext/108134065/sdoserv.o
 .debug_info    0x0002be4b      0xf03 build/LAN9255_SQI_INDIRECT_MODE/production/_ext/1360937237/main.o
 .debug_info    0x0002cd4e     0x2398 build/LAN9255_SQI_INDIRECT_MODE/production/_ext/1360937237/app.o
 .debug_info    0x0002f0e6      0x2a2 c:/program files/microchip/xc32/v2.40/bin/bin/../../lib/gcc/pic32c/6.2.1/../../../../pic32c/lib/v7e-m/fpv4-sp/hard\libpic32c.a(data_init.o)
 .debug_info    0x0002f388      0x41f c:/program files/microchip/xc32/v2.40/bin/bin/../../lib/gcc/pic32c/6.2.1/../../../../pic32c/lib/v7e-m/fpv4-sp/hard\libc_nano.a(lib_a-init.o)
 .debug_info    0x0002f7a7      0xe92 c:/program files/microchip/xc32/v2.40/bin/bin/../../lib/gcc/pic32c/6.2.1/../../../../pic32c/lib/v7e-m/fpv4-sp/hard\libc_nano.a(lib_a-malloc.o)
 .debug_info    0x00030639      0xe68 c:/program files/microchip/xc32/v2.40/bin/bin/../../lib/gcc/pic32c/6.2.1/../../../../pic32c/lib/v7e-m/fpv4-sp/hard\libc_nano.a(lib_a-memcpy-stub.o)
 .debug_info    0x000314a1     0x15ae c:/program files/microchip/xc32/v2.40/bin/bin/../../lib/gcc/pic32c/6.2.1/../../../../pic32c/lib/v7e-m/fpv4-sp/hard\libc_nano.a(lib_a-memset.o)
 .debug_info    0x00032a4f     0x11c1 c:/program files/microchip/xc32/v2.40/bin/bin/../../lib/gcc/pic32c/6.2.1/../../../../pic32c/lib/v7e-m/fpv4-sp/hard\libc_nano.a(lib_a-nano-freer.o)
 .debug_info    0x00033c10     0x1259 c:/program files/microchip/xc32/v2.40/bin/bin/../../lib/gcc/pic32c/6.2.1/../../../../pic32c/lib/v7e-m/fpv4-sp/hard\libc_nano.a(lib_a-nano-mallocr.o)
 .debug_info    0x00034e69      0xedf c:/program files/microchip/xc32/v2.40/bin/bin/../../lib/gcc/pic32c/6.2.1/../../../../pic32c/lib/v7e-m/fpv4-sp/hard\libc_nano.a(lib_a-sbrkr.o)
 .debug_info    0x00035d48      0x12a c:/program files/microchip/xc32/v2.40/bin/bin/../../lib/gcc/pic32c/6.2.1/../../../../pic32c/lib/v7e-m/fpv4-sp/hard\libc_nano.a(lib_a-strlen.o)
 .debug_info    0x00035e72      0xdef c:/program files/microchip/xc32/v2.40/bin/bin/../../lib/gcc/pic32c/6.2.1/../../../../pic32c/lib/v7e-m/fpv4-sp/hard\libc_nano.a(lib_a-impure.o)
 .debug_info    0x00036c61      0xe2c c:/program files/microchip/xc32/v2.40/bin/bin/../../lib/gcc/pic32c/6.2.1/../../../../pic32c/lib/v7e-m/fpv4-sp/hard\libc_nano.a(lib_a-mlock.o)
 .debug_info    0x00037a8d      0xfe7 c:/program files/microchip/xc32/v2.40/bin/bin/../../lib/gcc/pic32c/6.2.1/../../../../pic32c/lib/v7e-m/fpv4-sp/hard\libc_nano.a(lib_a-reent.o)
 .debug_info    0x00038a74      0x286 c:/program files/microchip/xc32/v2.40/bin/bin/../../lib/gcc/pic32c/6.2.1/../../../../pic32c/lib/v7e-m/fpv4-sp/hard\libpic32c.a(sbrk.o)

.debug_abbrev   0x00000000     0x50ee
 .debug_abbrev  0x00000000       0xfd build/LAN9255_SQI_INDIRECT_MODE/production/_ext/1984496892/plib_clock.o
 .debug_abbrev  0x000000fd      0x15d build/LAN9255_SQI_INDIRECT_MODE/production/_ext/60167341/plib_eic.o
 .debug_abbrev  0x0000025a       0x5e build/LAN9255_SQI_INDIRECT_MODE/production/_ext/1986646378/plib_evsys.o
 .debug_abbrev  0x000002b8      0x14d build/LAN9255_SQI_INDIRECT_MODE/production/_ext/1865468468/plib_nvic.o
 .debug_abbrev  0x00000405      0x25d build/LAN9255_SQI_INDIRECT_MODE/production/_ext/1593096446/plib_nvmctrl.o
 .debug_abbrev  0x00000662      0x151 build/LAN9255_SQI_INDIRECT_MODE/production/_ext/1865521619/plib_port.o
 .debug_abbrev  0x000007b3      0x227 build/LAN9255_SQI_INDIRECT_MODE/production/_ext/1865555181/plib_qspi.o
 .debug_abbrev  0x000009da      0x15c build/LAN9255_SQI_INDIRECT_MODE/production/_ext/1827571544/plib_systick.o
 .debug_abbrev  0x00000b36      0x196 build/LAN9255_SQI_INDIRECT_MODE/production/_ext/1171490990/exceptions.o
 .debug_abbrev  0x00000ccc      0x1b2 build/LAN9255_SQI_INDIRECT_MODE/production/_ext/1171490990/initialization.o
 .debug_abbrev  0x00000e7e      0x1a7 build/LAN9255_SQI_INDIRECT_MODE/production/_ext/1171490990/interrupts.o
 .debug_abbrev  0x00001025      0x26e build/LAN9255_SQI_INDIRECT_MODE/production/_ext/1171490990/startup_xc32.o
 .debug_abbrev  0x00001293      0x196 build/LAN9255_SQI_INDIRECT_MODE/production/_ext/1171490990/tasks.o
 .debug_abbrev  0x00001429      0x39d build/LAN9255_SQI_INDIRECT_MODE/production/_ext/1671622016/Drivers.o
 .debug_abbrev  0x000017c6      0x20f build/LAN9255_SQI_INDIRECT_MODE/production/_ext/108147519/ESC_Utils.o
 .debug_abbrev  0x000019d5      0x2b2 build/LAN9255_SQI_INDIRECT_MODE/production/_ext/108147519/LAN925x.o
 .debug_abbrev  0x00001c87      0x1f9 build/LAN9255_SQI_INDIRECT_MODE/production/_ext/108134065/bootmode.o
 .debug_abbrev  0x00001e80      0x2c0 build/LAN9255_SQI_INDIRECT_MODE/production/_ext/108134065/coeappl.o
 .debug_abbrev  0x00002140      0x286 build/LAN9255_SQI_INDIRECT_MODE/production/_ext/108134065/ecatappl.o
 .debug_abbrev  0x000023c6      0x1ee build/LAN9255_SQI_INDIRECT_MODE/production/_ext/108134065/ecatcoe.o
 .debug_abbrev  0x000025b4      0x259 build/LAN9255_SQI_INDIRECT_MODE/production/_ext/108134065/ecatfoe.o
 .debug_abbrev  0x0000280d      0x2c4 build/LAN9255_SQI_INDIRECT_MODE/production/_ext/108134065/ecatslv.o
 .debug_abbrev  0x00002ad1      0x29d build/LAN9255_SQI_INDIRECT_MODE/production/_ext/108134065/emcy.o
 .debug_abbrev  0x00002d6e      0x260 build/LAN9255_SQI_INDIRECT_MODE/production/_ext/108134065/foeappl.o
 .debug_abbrev  0x00002fce      0x290 build/LAN9255_SQI_INDIRECT_MODE/production/_ext/108134065/mailbox.o
 .debug_abbrev  0x0000325e      0x2c2 build/LAN9255_SQI_INDIRECT_MODE/production/_ext/108134065/objdef.o
 .debug_abbrev  0x00003520      0x3d1 build/LAN9255_SQI_INDIRECT_MODE/production/_ext/108134065/sample_app.o
 .debug_abbrev  0x000038f1      0x2df build/LAN9255_SQI_INDIRECT_MODE/production/_ext/108134065/sdoserv.o
 .debug_abbrev  0x00003bd0      0x198 build/LAN9255_SQI_INDIRECT_MODE/production/_ext/1360937237/main.o
 .debug_abbrev  0x00003d68      0x2e3 build/LAN9255_SQI_INDIRECT_MODE/production/_ext/1360937237/app.o
 .debug_abbrev  0x0000404b       0x2a c:/program files/microchip/xc32/v2.40/bin/bin/../../lib/gcc/pic32c/6.2.1/../../../../pic32c/lib/v7e-m/fpv4-sp/hard\libpic32c.a(data_init.o)
 .debug_abbrev  0x00004075       0xa3 c:/program files/microchip/xc32/v2.40/bin/bin/../../lib/gcc/pic32c/6.2.1/../../../../pic32c/lib/v7e-m/fpv4-sp/hard\libc_nano.a(lib_a-init.o)
 .debug_abbrev  0x00004118      0x1b3 c:/program files/microchip/xc32/v2.40/bin/bin/../../lib/gcc/pic32c/6.2.1/../../../../pic32c/lib/v7e-m/fpv4-sp/hard\libc_nano.a(lib_a-malloc.o)
 .debug_abbrev  0x000042cb      0x17c c:/program files/microchip/xc32/v2.40/bin/bin/../../lib/gcc/pic32c/6.2.1/../../../../pic32c/lib/v7e-m/fpv4-sp/hard\libc_nano.a(lib_a-memcpy-stub.o)
 .debug_abbrev  0x00004447      0x170 c:/program files/microchip/xc32/v2.40/bin/bin/../../lib/gcc/pic32c/6.2.1/../../../../pic32c/lib/v7e-m/fpv4-sp/hard\libc_nano.a(lib_a-memset.o)
 .debug_abbrev  0x000045b7      0x242 c:/program files/microchip/xc32/v2.40/bin/bin/../../lib/gcc/pic32c/6.2.1/../../../../pic32c/lib/v7e-m/fpv4-sp/hard\libc_nano.a(lib_a-nano-freer.o)
 .debug_abbrev  0x000047f9      0x281 c:/program files/microchip/xc32/v2.40/bin/bin/../../lib/gcc/pic32c/6.2.1/../../../../pic32c/lib/v7e-m/fpv4-sp/hard\libc_nano.a(lib_a-nano-mallocr.o)
 .debug_abbrev  0x00004a7a      0x1a8 c:/program files/microchip/xc32/v2.40/bin/bin/../../lib/gcc/pic32c/6.2.1/../../../../pic32c/lib/v7e-m/fpv4-sp/hard\libc_nano.a(lib_a-sbrkr.o)
 .debug_abbrev  0x00004c22       0x14 c:/program files/microchip/xc32/v2.40/bin/bin/../../lib/gcc/pic32c/6.2.1/../../../../pic32c/lib/v7e-m/fpv4-sp/hard\libc_nano.a(lib_a-strlen.o)
 .debug_abbrev  0x00004c36      0x131 c:/program files/microchip/xc32/v2.40/bin/bin/../../lib/gcc/pic32c/6.2.1/../../../../pic32c/lib/v7e-m/fpv4-sp/hard\libc_nano.a(lib_a-impure.o)
 .debug_abbrev  0x00004d67      0x165 c:/program files/microchip/xc32/v2.40/bin/bin/../../lib/gcc/pic32c/6.2.1/../../../../pic32c/lib/v7e-m/fpv4-sp/hard\libc_nano.a(lib_a-mlock.o)
 .debug_abbrev  0x00004ecc      0x1f8 c:/program files/microchip/xc32/v2.40/bin/bin/../../lib/gcc/pic32c/6.2.1/../../../../pic32c/lib/v7e-m/fpv4-sp/hard\libc_nano.a(lib_a-reent.o)
 .debug_abbrev  0x000050c4       0x2a c:/program files/microchip/xc32/v2.40/bin/bin/../../lib/gcc/pic32c/6.2.1/../../../../pic32c/lib/v7e-m/fpv4-sp/hard\libpic32c.a(sbrk.o)

.debug_loc      0x00000000     0x55d0
 .debug_loc     0x00000000      0x1c4 build/LAN9255_SQI_INDIRECT_MODE/production/_ext/1984496892/plib_clock.o
 .debug_loc     0x000001c4      0x1dc build/LAN9255_SQI_INDIRECT_MODE/production/_ext/60167341/plib_eic.o
 .debug_loc     0x000003a0       0x44 build/LAN9255_SQI_INDIRECT_MODE/production/_ext/1986646378/plib_evsys.o
 .debug_loc     0x000003e4      0x140 build/LAN9255_SQI_INDIRECT_MODE/production/_ext/1865468468/plib_nvic.o
 .debug_loc     0x00000524      0x5c0 build/LAN9255_SQI_INDIRECT_MODE/production/_ext/1593096446/plib_nvmctrl.o
 .debug_loc     0x00000ae4      0x324 build/LAN9255_SQI_INDIRECT_MODE/production/_ext/1865521619/plib_port.o
 .debug_loc     0x00000e08      0x338 build/LAN9255_SQI_INDIRECT_MODE/production/_ext/1865555181/plib_qspi.o
 .debug_loc     0x00001140      0x31c build/LAN9255_SQI_INDIRECT_MODE/production/_ext/1827571544/plib_systick.o
 .debug_loc     0x0000145c      0x108 build/LAN9255_SQI_INDIRECT_MODE/production/_ext/1171490990/exceptions.o
 .debug_loc     0x00001564       0x50 build/LAN9255_SQI_INDIRECT_MODE/production/_ext/1171490990/initialization.o
 .debug_loc     0x000015b4      0x11c build/LAN9255_SQI_INDIRECT_MODE/production/_ext/1171490990/startup_xc32.o
 .debug_loc     0x000016d0       0x2c build/LAN9255_SQI_INDIRECT_MODE/production/_ext/1171490990/tasks.o
 .debug_loc     0x000016fc      0x7f8 build/LAN9255_SQI_INDIRECT_MODE/production/_ext/1671622016/Drivers.o
 .debug_loc     0x00001ef4      0x130 build/LAN9255_SQI_INDIRECT_MODE/production/_ext/108147519/ESC_Utils.o
 .debug_loc     0x00002024      0x4b0 build/LAN9255_SQI_INDIRECT_MODE/production/_ext/108147519/LAN925x.o
 .debug_loc     0x000024d4      0x158 build/LAN9255_SQI_INDIRECT_MODE/production/_ext/108134065/bootmode.o
 .debug_loc     0x0000262c      0x370 build/LAN9255_SQI_INDIRECT_MODE/production/_ext/108134065/coeappl.o
 .debug_loc     0x0000299c      0x330 build/LAN9255_SQI_INDIRECT_MODE/production/_ext/108134065/ecatappl.o
 .debug_loc     0x00002ccc       0xe4 build/LAN9255_SQI_INDIRECT_MODE/production/_ext/108134065/ecatcoe.o
 .debug_loc     0x00002db0       0xe4 build/LAN9255_SQI_INDIRECT_MODE/production/_ext/108134065/ecatfoe.o
 .debug_loc     0x00002e94      0x682 build/LAN9255_SQI_INDIRECT_MODE/production/_ext/108134065/ecatslv.o
 .debug_loc     0x00003516      0x2f4 build/LAN9255_SQI_INDIRECT_MODE/production/_ext/108134065/emcy.o
 .debug_loc     0x0000380a      0x1e0 build/LAN9255_SQI_INDIRECT_MODE/production/_ext/108134065/foeappl.o
 .debug_loc     0x000039ea      0x428 build/LAN9255_SQI_INDIRECT_MODE/production/_ext/108134065/mailbox.o
 .debug_loc     0x00003e12      0x40e build/LAN9255_SQI_INDIRECT_MODE/production/_ext/108134065/objdef.o
 .debug_loc     0x00004220      0x74e build/LAN9255_SQI_INDIRECT_MODE/production/_ext/108134065/sample_app.o
 .debug_loc     0x0000496e      0x210 build/LAN9255_SQI_INDIRECT_MODE/production/_ext/108134065/sdoserv.o
 .debug_loc     0x00004b7e       0x2c build/LAN9255_SQI_INDIRECT_MODE/production/_ext/1360937237/main.o
 .debug_loc     0x00004baa      0x22a build/LAN9255_SQI_INDIRECT_MODE/production/_ext/1360937237/app.o
 .debug_loc     0x00004dd4       0x74 c:/program files/microchip/xc32/v2.40/bin/bin/../../lib/gcc/pic32c/6.2.1/../../../../pic32c/lib/v7e-m/fpv4-sp/hard\libc_nano.a(lib_a-init.o)
 .debug_loc     0x00004e48       0x58 c:/program files/microchip/xc32/v2.40/bin/bin/../../lib/gcc/pic32c/6.2.1/../../../../pic32c/lib/v7e-m/fpv4-sp/hard\libc_nano.a(lib_a-malloc.o)
 .debug_loc     0x00004ea0       0xb2 c:/program files/microchip/xc32/v2.40/bin/bin/../../lib/gcc/pic32c/6.2.1/../../../../pic32c/lib/v7e-m/fpv4-sp/hard\libc_nano.a(lib_a-memcpy-stub.o)
 .debug_loc     0x00004f52       0x4c c:/program files/microchip/xc32/v2.40/bin/bin/../../lib/gcc/pic32c/6.2.1/../../../../pic32c/lib/v7e-m/fpv4-sp/hard\libc_nano.a(lib_a-memset.o)
 .debug_loc     0x00004f9e      0x141 c:/program files/microchip/xc32/v2.40/bin/bin/../../lib/gcc/pic32c/6.2.1/../../../../pic32c/lib/v7e-m/fpv4-sp/hard\libc_nano.a(lib_a-nano-freer.o)
 .debug_loc     0x000050df      0x326 c:/program files/microchip/xc32/v2.40/bin/bin/../../lib/gcc/pic32c/6.2.1/../../../../pic32c/lib/v7e-m/fpv4-sp/hard\libc_nano.a(lib_a-nano-mallocr.o)
 .debug_loc     0x00005405       0x6d c:/program files/microchip/xc32/v2.40/bin/bin/../../lib/gcc/pic32c/6.2.1/../../../../pic32c/lib/v7e-m/fpv4-sp/hard\libc_nano.a(lib_a-sbrkr.o)
 .debug_loc     0x00005472      0x15e c:/program files/microchip/xc32/v2.40/bin/bin/../../lib/gcc/pic32c/6.2.1/../../../../pic32c/lib/v7e-m/fpv4-sp/hard\libc_nano.a(lib_a-reent.o)

.debug_aranges  0x00000000      0xcb0
 .debug_aranges
                0x00000000       0x50 build/LAN9255_SQI_INDIRECT_MODE/production/_ext/1984496892/plib_clock.o
 .debug_aranges
                0x00000050       0x50 build/LAN9255_SQI_INDIRECT_MODE/production/_ext/60167341/plib_eic.o
 .debug_aranges
                0x000000a0       0x20 build/LAN9255_SQI_INDIRECT_MODE/production/_ext/1986646378/plib_evsys.o
 .debug_aranges
                0x000000c0       0x38 build/LAN9255_SQI_INDIRECT_MODE/production/_ext/1865468468/plib_nvic.o
 .debug_aranges
                0x000000f8       0xb0 build/LAN9255_SQI_INDIRECT_MODE/production/_ext/1593096446/plib_nvmctrl.o
 .debug_aranges
                0x000001a8       0x60 build/LAN9255_SQI_INDIRECT_MODE/production/_ext/1865521619/plib_port.o
 .debug_aranges
                0x00000208       0x68 build/LAN9255_SQI_INDIRECT_MODE/production/_ext/1865555181/plib_qspi.o
 .debug_aranges
                0x00000270       0x70 build/LAN9255_SQI_INDIRECT_MODE/production/_ext/1827571544/plib_systick.o
 .debug_aranges
                0x000002e0       0x48 build/LAN9255_SQI_INDIRECT_MODE/production/_ext/1171490990/exceptions.o
 .debug_aranges
                0x00000328       0x20 build/LAN9255_SQI_INDIRECT_MODE/production/_ext/1171490990/initialization.o
 .debug_aranges
                0x00000348       0x20 build/LAN9255_SQI_INDIRECT_MODE/production/_ext/1171490990/interrupts.o
 .debug_aranges
                0x00000368       0x38 build/LAN9255_SQI_INDIRECT_MODE/production/_ext/1171490990/startup_xc32.o
 .debug_aranges
                0x000003a0       0x20 build/LAN9255_SQI_INDIRECT_MODE/production/_ext/1171490990/tasks.o
 .debug_aranges
                0x000003c0       0xf0 build/LAN9255_SQI_INDIRECT_MODE/production/_ext/1671622016/Drivers.o
 .debug_aranges
                0x000004b0       0x40 build/LAN9255_SQI_INDIRECT_MODE/production/_ext/108147519/ESC_Utils.o
 .debug_aranges
                0x000004f0       0x90 build/LAN9255_SQI_INDIRECT_MODE/production/_ext/108147519/LAN925x.o
 .debug_aranges
                0x00000580       0x38 build/LAN9255_SQI_INDIRECT_MODE/production/_ext/108134065/bootmode.o
 .debug_aranges
                0x000005b8       0x70 build/LAN9255_SQI_INDIRECT_MODE/production/_ext/108134065/coeappl.o
 .debug_aranges
                0x00000628       0x78 build/LAN9255_SQI_INDIRECT_MODE/production/_ext/108134065/ecatappl.o
 .debug_aranges
                0x000006a0       0x30 build/LAN9255_SQI_INDIRECT_MODE/production/_ext/108134065/ecatcoe.o
 .debug_aranges
                0x000006d0       0x30 build/LAN9255_SQI_INDIRECT_MODE/production/_ext/108134065/ecatfoe.o
 .debug_aranges
                0x00000700       0xc8 build/LAN9255_SQI_INDIRECT_MODE/production/_ext/108134065/ecatslv.o
 .debug_aranges
                0x000007c8       0x60 build/LAN9255_SQI_INDIRECT_MODE/production/_ext/108134065/emcy.o
 .debug_aranges
                0x00000828       0x48 build/LAN9255_SQI_INDIRECT_MODE/production/_ext/108134065/foeappl.o
 .debug_aranges
                0x00000870       0x80 build/LAN9255_SQI_INDIRECT_MODE/production/_ext/108134065/mailbox.o
 .debug_aranges
                0x000008f0       0x78 build/LAN9255_SQI_INDIRECT_MODE/production/_ext/108134065/objdef.o
 .debug_aranges
                0x00000968       0xe0 build/LAN9255_SQI_INDIRECT_MODE/production/_ext/108134065/sample_app.o
 .debug_aranges
                0x00000a48       0x50 build/LAN9255_SQI_INDIRECT_MODE/production/_ext/108134065/sdoserv.o
 .debug_aranges
                0x00000a98       0x20 build/LAN9255_SQI_INDIRECT_MODE/production/_ext/1360937237/main.o
 .debug_aranges
                0x00000ab8       0x50 build/LAN9255_SQI_INDIRECT_MODE/production/_ext/1360937237/app.o
 .debug_aranges
                0x00000b08       0x20 c:/program files/microchip/xc32/v2.40/bin/bin/../../lib/gcc/pic32c/6.2.1/../../../../pic32c/lib/v7e-m/fpv4-sp/hard\libpic32c.a(data_init.o)
 .debug_aranges
                0x00000b28       0x20 c:/program files/microchip/xc32/v2.40/bin/bin/../../lib/gcc/pic32c/6.2.1/../../../../pic32c/lib/v7e-m/fpv4-sp/hard\libc_nano.a(lib_a-init.o)
 .debug_aranges
                0x00000b48       0x28 c:/program files/microchip/xc32/v2.40/bin/bin/../../lib/gcc/pic32c/6.2.1/../../../../pic32c/lib/v7e-m/fpv4-sp/hard\libc_nano.a(lib_a-malloc.o)
 .debug_aranges
                0x00000b70       0x20 c:/program files/microchip/xc32/v2.40/bin/bin/../../lib/gcc/pic32c/6.2.1/../../../../pic32c/lib/v7e-m/fpv4-sp/hard\libc_nano.a(lib_a-memcpy-stub.o)
 .debug_aranges
                0x00000b90       0x20 c:/program files/microchip/xc32/v2.40/bin/bin/../../lib/gcc/pic32c/6.2.1/../../../../pic32c/lib/v7e-m/fpv4-sp/hard\libc_nano.a(lib_a-memset.o)
 .debug_aranges
                0x00000bb0       0x20 c:/program files/microchip/xc32/v2.40/bin/bin/../../lib/gcc/pic32c/6.2.1/../../../../pic32c/lib/v7e-m/fpv4-sp/hard\libc_nano.a(lib_a-nano-freer.o)
 .debug_aranges
                0x00000bd0       0x20 c:/program files/microchip/xc32/v2.40/bin/bin/../../lib/gcc/pic32c/6.2.1/../../../../pic32c/lib/v7e-m/fpv4-sp/hard\libc_nano.a(lib_a-nano-mallocr.o)
 .debug_aranges
                0x00000bf0       0x20 c:/program files/microchip/xc32/v2.40/bin/bin/../../lib/gcc/pic32c/6.2.1/../../../../pic32c/lib/v7e-m/fpv4-sp/hard\libc_nano.a(lib_a-sbrkr.o)
 .debug_aranges
                0x00000c10       0x20 c:/program files/microchip/xc32/v2.40/bin/bin/../../lib/gcc/pic32c/6.2.1/../../../../pic32c/lib/v7e-m/fpv4-sp/hard\libc_nano.a(lib_a-strlen.o)
 .debug_aranges
                0x00000c30       0x18 c:/program files/microchip/xc32/v2.40/bin/bin/../../lib/gcc/pic32c/6.2.1/../../../../pic32c/lib/v7e-m/fpv4-sp/hard\libc_nano.a(lib_a-impure.o)
 .debug_aranges
                0x00000c48       0x20 c:/program files/microchip/xc32/v2.40/bin/bin/../../lib/gcc/pic32c/6.2.1/../../../../pic32c/lib/v7e-m/fpv4-sp/hard\libc_nano.a(lib_a-mlock.o)
 .debug_aranges
                0x00000c68       0x28 c:/program files/microchip/xc32/v2.40/bin/bin/../../lib/gcc/pic32c/6.2.1/../../../../pic32c/lib/v7e-m/fpv4-sp/hard\libc_nano.a(lib_a-reent.o)
 .debug_aranges
                0x00000c90       0x20 c:/program files/microchip/xc32/v2.40/bin/bin/../../lib/gcc/pic32c/6.2.1/../../../../pic32c/lib/v7e-m/fpv4-sp/hard\libpic32c.a(sbrk.o)

.debug_ranges   0x00000000      0xb48
 .debug_ranges  0x00000000       0x40 build/LAN9255_SQI_INDIRECT_MODE/production/_ext/1984496892/plib_clock.o
 .debug_ranges  0x00000040       0x40 build/LAN9255_SQI_INDIRECT_MODE/production/_ext/60167341/plib_eic.o
 .debug_ranges  0x00000080       0x10 build/LAN9255_SQI_INDIRECT_MODE/production/_ext/1986646378/plib_evsys.o
 .debug_ranges  0x00000090       0x28 build/LAN9255_SQI_INDIRECT_MODE/production/_ext/1865468468/plib_nvic.o
 .debug_ranges  0x000000b8       0xa0 build/LAN9255_SQI_INDIRECT_MODE/production/_ext/1593096446/plib_nvmctrl.o
 .debug_ranges  0x00000158       0x50 build/LAN9255_SQI_INDIRECT_MODE/production/_ext/1865521619/plib_port.o
 .debug_ranges  0x000001a8       0x58 build/LAN9255_SQI_INDIRECT_MODE/production/_ext/1865555181/plib_qspi.o
 .debug_ranges  0x00000200       0x60 build/LAN9255_SQI_INDIRECT_MODE/production/_ext/1827571544/plib_systick.o
 .debug_ranges  0x00000260       0x38 build/LAN9255_SQI_INDIRECT_MODE/production/_ext/1171490990/exceptions.o
 .debug_ranges  0x00000298       0x10 build/LAN9255_SQI_INDIRECT_MODE/production/_ext/1171490990/initialization.o
 .debug_ranges  0x000002a8       0x10 build/LAN9255_SQI_INDIRECT_MODE/production/_ext/1171490990/interrupts.o
 .debug_ranges  0x000002b8       0x28 build/LAN9255_SQI_INDIRECT_MODE/production/_ext/1171490990/startup_xc32.o
 .debug_ranges  0x000002e0       0x10 build/LAN9255_SQI_INDIRECT_MODE/production/_ext/1171490990/tasks.o
 .debug_ranges  0x000002f0       0xe0 build/LAN9255_SQI_INDIRECT_MODE/production/_ext/1671622016/Drivers.o
 .debug_ranges  0x000003d0       0x30 build/LAN9255_SQI_INDIRECT_MODE/production/_ext/108147519/ESC_Utils.o
 .debug_ranges  0x00000400       0x80 build/LAN9255_SQI_INDIRECT_MODE/production/_ext/108147519/LAN925x.o
 .debug_ranges  0x00000480       0x28 build/LAN9255_SQI_INDIRECT_MODE/production/_ext/108134065/bootmode.o
 .debug_ranges  0x000004a8       0x78 build/LAN9255_SQI_INDIRECT_MODE/production/_ext/108134065/coeappl.o
 .debug_ranges  0x00000520       0x80 build/LAN9255_SQI_INDIRECT_MODE/production/_ext/108134065/ecatappl.o
 .debug_ranges  0x000005a0       0x20 build/LAN9255_SQI_INDIRECT_MODE/production/_ext/108134065/ecatcoe.o
 .debug_ranges  0x000005c0       0x80 build/LAN9255_SQI_INDIRECT_MODE/production/_ext/108134065/ecatfoe.o
 .debug_ranges  0x00000640       0xb8 build/LAN9255_SQI_INDIRECT_MODE/production/_ext/108134065/ecatslv.o
 .debug_ranges  0x000006f8       0x50 build/LAN9255_SQI_INDIRECT_MODE/production/_ext/108134065/emcy.o
 .debug_ranges  0x00000748       0x38 build/LAN9255_SQI_INDIRECT_MODE/production/_ext/108134065/foeappl.o
 .debug_ranges  0x00000780       0x70 build/LAN9255_SQI_INDIRECT_MODE/production/_ext/108134065/mailbox.o
 .debug_ranges  0x000007f0       0x80 build/LAN9255_SQI_INDIRECT_MODE/production/_ext/108134065/objdef.o
 .debug_ranges  0x00000870       0xd0 build/LAN9255_SQI_INDIRECT_MODE/production/_ext/108134065/sample_app.o
 .debug_ranges  0x00000940       0x68 build/LAN9255_SQI_INDIRECT_MODE/production/_ext/108134065/sdoserv.o
 .debug_ranges  0x000009a8       0x10 build/LAN9255_SQI_INDIRECT_MODE/production/_ext/1360937237/main.o
 .debug_ranges  0x000009b8       0x58 build/LAN9255_SQI_INDIRECT_MODE/production/_ext/1360937237/app.o
 .debug_ranges  0x00000a10       0x10 c:/program files/microchip/xc32/v2.40/bin/bin/../../lib/gcc/pic32c/6.2.1/../../../../pic32c/lib/v7e-m/fpv4-sp/hard\libpic32c.a(data_init.o)
 .debug_ranges  0x00000a20       0x10 c:/program files/microchip/xc32/v2.40/bin/bin/../../lib/gcc/pic32c/6.2.1/../../../../pic32c/lib/v7e-m/fpv4-sp/hard\libc_nano.a(lib_a-init.o)
 .debug_ranges  0x00000a30       0x18 c:/program files/microchip/xc32/v2.40/bin/bin/../../lib/gcc/pic32c/6.2.1/../../../../pic32c/lib/v7e-m/fpv4-sp/hard\libc_nano.a(lib_a-malloc.o)
 .debug_ranges  0x00000a48       0x10 c:/program files/microchip/xc32/v2.40/bin/bin/../../lib/gcc/pic32c/6.2.1/../../../../pic32c/lib/v7e-m/fpv4-sp/hard\libc_nano.a(lib_a-memcpy-stub.o)
 .debug_ranges  0x00000a58       0x10 c:/program files/microchip/xc32/v2.40/bin/bin/../../lib/gcc/pic32c/6.2.1/../../../../pic32c/lib/v7e-m/fpv4-sp/hard\libc_nano.a(lib_a-memset.o)
 .debug_ranges  0x00000a68       0x10 c:/program files/microchip/xc32/v2.40/bin/bin/../../lib/gcc/pic32c/6.2.1/../../../../pic32c/lib/v7e-m/fpv4-sp/hard\libc_nano.a(lib_a-nano-freer.o)
 .debug_ranges  0x00000a78       0x58 c:/program files/microchip/xc32/v2.40/bin/bin/../../lib/gcc/pic32c/6.2.1/../../../../pic32c/lib/v7e-m/fpv4-sp/hard\libc_nano.a(lib_a-nano-mallocr.o)
 .debug_ranges  0x00000ad0       0x10 c:/program files/microchip/xc32/v2.40/bin/bin/../../lib/gcc/pic32c/6.2.1/../../../../pic32c/lib/v7e-m/fpv4-sp/hard\libc_nano.a(lib_a-sbrkr.o)
 .debug_ranges  0x00000ae0       0x10 c:/program files/microchip/xc32/v2.40/bin/bin/../../lib/gcc/pic32c/6.2.1/../../../../pic32c/lib/v7e-m/fpv4-sp/hard\libc_nano.a(lib_a-mlock.o)
 .debug_ranges  0x00000af0       0x48 c:/program files/microchip/xc32/v2.40/bin/bin/../../lib/gcc/pic32c/6.2.1/../../../../pic32c/lib/v7e-m/fpv4-sp/hard\libc_nano.a(lib_a-reent.o)
 .debug_ranges  0x00000b38       0x10 c:/program files/microchip/xc32/v2.40/bin/bin/../../lib/gcc/pic32c/6.2.1/../../../../pic32c/lib/v7e-m/fpv4-sp/hard\libpic32c.a(sbrk.o)

.debug_line     0x00000000     0x767c
 .debug_line    0x00000000      0x228 build/LAN9255_SQI_INDIRECT_MODE/production/_ext/1984496892/plib_clock.o
 .debug_line    0x00000228      0x202 build/LAN9255_SQI_INDIRECT_MODE/production/_ext/60167341/plib_eic.o
 .debug_line    0x0000042a      0x12f build/LAN9255_SQI_INDIRECT_MODE/production/_ext/1986646378/plib_evsys.o
 .debug_line    0x00000559      0x1ca build/LAN9255_SQI_INDIRECT_MODE/production/_ext/1865468468/plib_nvic.o
 .debug_line    0x00000723      0x367 build/LAN9255_SQI_INDIRECT_MODE/production/_ext/1593096446/plib_nvmctrl.o
 .debug_line    0x00000a8a      0x213 build/LAN9255_SQI_INDIRECT_MODE/production/_ext/1865521619/plib_port.o
 .debug_line    0x00000c9d      0x2cb build/LAN9255_SQI_INDIRECT_MODE/production/_ext/1865555181/plib_qspi.o
 .debug_line    0x00000f68      0x20a build/LAN9255_SQI_INDIRECT_MODE/production/_ext/1827571544/plib_systick.o
 .debug_line    0x00001172      0x235 build/LAN9255_SQI_INDIRECT_MODE/production/_ext/1171490990/exceptions.o
 .debug_line    0x000013a7      0x1ee build/LAN9255_SQI_INDIRECT_MODE/production/_ext/1171490990/initialization.o
 .debug_line    0x00001595      0x210 build/LAN9255_SQI_INDIRECT_MODE/production/_ext/1171490990/interrupts.o
 .debug_line    0x000017a5      0x29e build/LAN9255_SQI_INDIRECT_MODE/production/_ext/1171490990/startup_xc32.o
 .debug_line    0x00001a43      0x1df build/LAN9255_SQI_INDIRECT_MODE/production/_ext/1171490990/tasks.o
 .debug_line    0x00001c22      0x5cd build/LAN9255_SQI_INDIRECT_MODE/production/_ext/1671622016/Drivers.o
 .debug_line    0x000021ef      0x2e2 build/LAN9255_SQI_INDIRECT_MODE/production/_ext/108147519/ESC_Utils.o
 .debug_line    0x000024d1      0x4bb build/LAN9255_SQI_INDIRECT_MODE/production/_ext/108147519/LAN925x.o
 .debug_line    0x0000298c      0x189 build/LAN9255_SQI_INDIRECT_MODE/production/_ext/108134065/bootmode.o
 .debug_line    0x00002b15      0x3d5 build/LAN9255_SQI_INDIRECT_MODE/production/_ext/108134065/coeappl.o
 .debug_line    0x00002eea      0x4d3 build/LAN9255_SQI_INDIRECT_MODE/production/_ext/108134065/ecatappl.o
 .debug_line    0x000033bd      0x19e build/LAN9255_SQI_INDIRECT_MODE/production/_ext/108134065/ecatcoe.o
 .debug_line    0x0000355b      0x2f5 build/LAN9255_SQI_INDIRECT_MODE/production/_ext/108134065/ecatfoe.o
 .debug_line    0x00003850      0x87f build/LAN9255_SQI_INDIRECT_MODE/production/_ext/108134065/ecatslv.o
 .debug_line    0x000040cf      0x311 build/LAN9255_SQI_INDIRECT_MODE/production/_ext/108134065/emcy.o
 .debug_line    0x000043e0      0x2dd build/LAN9255_SQI_INDIRECT_MODE/production/_ext/108134065/foeappl.o
 .debug_line    0x000046bd      0x45f build/LAN9255_SQI_INDIRECT_MODE/production/_ext/108134065/mailbox.o
 .debug_line    0x00004b1c      0x5e5 build/LAN9255_SQI_INDIRECT_MODE/production/_ext/108134065/objdef.o
 .debug_line    0x00005101      0x569 build/LAN9255_SQI_INDIRECT_MODE/production/_ext/108134065/sample_app.o
 .debug_line    0x0000566a      0x4c3 build/LAN9255_SQI_INDIRECT_MODE/production/_ext/108134065/sdoserv.o
 .debug_line    0x00005b2d      0x1e2 build/LAN9255_SQI_INDIRECT_MODE/production/_ext/1360937237/main.o
 .debug_line    0x00005d0f      0x3b0 build/LAN9255_SQI_INDIRECT_MODE/production/_ext/1360937237/app.o
 .debug_line    0x000060bf       0xd8 c:/program files/microchip/xc32/v2.40/bin/bin/../../lib/gcc/pic32c/6.2.1/../../../../pic32c/lib/v7e-m/fpv4-sp/hard\libpic32c.a(data_init.o)
 .debug_line    0x00006197      0x11d c:/program files/microchip/xc32/v2.40/bin/bin/../../lib/gcc/pic32c/6.2.1/../../../../pic32c/lib/v7e-m/fpv4-sp/hard\libc_nano.a(lib_a-init.o)
 .debug_line    0x000062b4      0x21e c:/program files/microchip/xc32/v2.40/bin/bin/../../lib/gcc/pic32c/6.2.1/../../../../pic32c/lib/v7e-m/fpv4-sp/hard\libc_nano.a(lib_a-malloc.o)
 .debug_line    0x000064d2      0x218 c:/program files/microchip/xc32/v2.40/bin/bin/../../lib/gcc/pic32c/6.2.1/../../../../pic32c/lib/v7e-m/fpv4-sp/hard\libc_nano.a(lib_a-memcpy-stub.o)
 .debug_line    0x000066ea      0x2ae c:/program files/microchip/xc32/v2.40/bin/bin/../../lib/gcc/pic32c/6.2.1/../../../../pic32c/lib/v7e-m/fpv4-sp/hard\libc_nano.a(lib_a-memset.o)
 .debug_line    0x00006998      0x1dc c:/program files/microchip/xc32/v2.40/bin/bin/../../lib/gcc/pic32c/6.2.1/../../../../pic32c/lib/v7e-m/fpv4-sp/hard\libc_nano.a(lib_a-nano-freer.o)
 .debug_line    0x00006b74      0x257 c:/program files/microchip/xc32/v2.40/bin/bin/../../lib/gcc/pic32c/6.2.1/../../../../pic32c/lib/v7e-m/fpv4-sp/hard\libc_nano.a(lib_a-nano-mallocr.o)
 .debug_line    0x00006dcb      0x212 c:/program files/microchip/xc32/v2.40/bin/bin/../../lib/gcc/pic32c/6.2.1/../../../../pic32c/lib/v7e-m/fpv4-sp/hard\libc_nano.a(lib_a-sbrkr.o)
 .debug_line    0x00006fdd       0xb1 c:/program files/microchip/xc32/v2.40/bin/bin/../../lib/gcc/pic32c/6.2.1/../../../../pic32c/lib/v7e-m/fpv4-sp/hard\libc_nano.a(lib_a-strlen.o)
 .debug_line    0x0000708e      0x17e c:/program files/microchip/xc32/v2.40/bin/bin/../../lib/gcc/pic32c/6.2.1/../../../../pic32c/lib/v7e-m/fpv4-sp/hard\libc_nano.a(lib_a-impure.o)
 .debug_line    0x0000720c      0x18d c:/program files/microchip/xc32/v2.40/bin/bin/../../lib/gcc/pic32c/6.2.1/../../../../pic32c/lib/v7e-m/fpv4-sp/hard\libc_nano.a(lib_a-mlock.o)
 .debug_line    0x00007399      0x241 c:/program files/microchip/xc32/v2.40/bin/bin/../../lib/gcc/pic32c/6.2.1/../../../../pic32c/lib/v7e-m/fpv4-sp/hard\libc_nano.a(lib_a-reent.o)
 .debug_line    0x000075da       0xa2 c:/program files/microchip/xc32/v2.40/bin/bin/../../lib/gcc/pic32c/6.2.1/../../../../pic32c/lib/v7e-m/fpv4-sp/hard\libpic32c.a(sbrk.o)

.debug_str      0x00000000      0x7f0
 .debug_str     0x00000000       0x1e build/LAN9255_SQI_INDIRECT_MODE/production/_ext/1984496892/plib_clock.o
 .debug_str     0x0000001e        0x9 build/LAN9255_SQI_INDIRECT_MODE/production/_ext/60167341/plib_eic.o
 .debug_str     0x00000027        0x0 build/LAN9255_SQI_INDIRECT_MODE/production/_ext/1986646378/plib_evsys.o
 .debug_str     0x00000027        0xa build/LAN9255_SQI_INDIRECT_MODE/production/_ext/1865468468/plib_nvic.o
 .debug_str     0x00000031       0x29 build/LAN9255_SQI_INDIRECT_MODE/production/_ext/1593096446/plib_nvmctrl.o
 .debug_str     0x0000005a        0xb build/LAN9255_SQI_INDIRECT_MODE/production/_ext/1865521619/plib_port.o
 .debug_str     0x00000065       0x9a build/LAN9255_SQI_INDIRECT_MODE/production/_ext/1865555181/plib_qspi.o
 .debug_str     0x000000ff        0x9 build/LAN9255_SQI_INDIRECT_MODE/production/_ext/1827571544/plib_systick.o
 .debug_str     0x00000108        0xe build/LAN9255_SQI_INDIRECT_MODE/production/_ext/1171490990/exceptions.o
 .debug_str     0x00000116        0xe build/LAN9255_SQI_INDIRECT_MODE/production/_ext/1171490990/initialization.o
 .debug_str     0x00000124        0xe build/LAN9255_SQI_INDIRECT_MODE/production/_ext/1171490990/interrupts.o
 .debug_str     0x00000132        0xe build/LAN9255_SQI_INDIRECT_MODE/production/_ext/1171490990/startup_xc32.o
 .debug_str     0x00000140        0xe build/LAN9255_SQI_INDIRECT_MODE/production/_ext/1171490990/tasks.o
 .debug_str     0x0000014e       0x89 build/LAN9255_SQI_INDIRECT_MODE/production/_ext/1671622016/Drivers.o
 .debug_str     0x000001d7        0xe build/LAN9255_SQI_INDIRECT_MODE/production/_ext/108147519/ESC_Utils.o
 .debug_str     0x000001e5       0x4b build/LAN9255_SQI_INDIRECT_MODE/production/_ext/108147519/LAN925x.o
 .debug_str     0x00000230        0xe build/LAN9255_SQI_INDIRECT_MODE/production/_ext/108134065/bootmode.o
 .debug_str     0x0000023e       0x48 build/LAN9255_SQI_INDIRECT_MODE/production/_ext/108134065/coeappl.o
 .debug_str     0x00000286       0x4a build/LAN9255_SQI_INDIRECT_MODE/production/_ext/108134065/ecatappl.o
 .debug_str     0x000002d0       0x35 build/LAN9255_SQI_INDIRECT_MODE/production/_ext/108134065/ecatcoe.o
 .debug_str     0x00000305       0x24 build/LAN9255_SQI_INDIRECT_MODE/production/_ext/108134065/ecatfoe.o
 .debug_str     0x00000329       0x6b build/LAN9255_SQI_INDIRECT_MODE/production/_ext/108134065/ecatslv.o
 .debug_str     0x00000394       0x2d build/LAN9255_SQI_INDIRECT_MODE/production/_ext/108134065/emcy.o
 .debug_str     0x000003c1       0x31 build/LAN9255_SQI_INDIRECT_MODE/production/_ext/108134065/foeappl.o
 .debug_str     0x000003f2       0x50 build/LAN9255_SQI_INDIRECT_MODE/production/_ext/108134065/mailbox.o
 .debug_str     0x00000442       0xa5 build/LAN9255_SQI_INDIRECT_MODE/production/_ext/108134065/objdef.o
 .debug_str     0x000004e7       0x66 build/LAN9255_SQI_INDIRECT_MODE/production/_ext/108134065/sample_app.o
 .debug_str     0x0000054d       0xa8 build/LAN9255_SQI_INDIRECT_MODE/production/_ext/108134065/sdoserv.o
 .debug_str     0x000005f5        0xe build/LAN9255_SQI_INDIRECT_MODE/production/_ext/1360937237/main.o
 .debug_str     0x00000603       0x41 build/LAN9255_SQI_INDIRECT_MODE/production/_ext/1360937237/app.o
 .debug_str     0x00000644        0x0 c:/program files/microchip/xc32/v2.40/bin/bin/../../lib/gcc/pic32c/6.2.1/../../../../pic32c/lib/v7e-m/fpv4-sp/hard\libpic32c.a(data_init.o)
 .debug_str     0x00000644        0x0 c:/program files/microchip/xc32/v2.40/bin/bin/../../lib/gcc/pic32c/6.2.1/../../../../pic32c/lib/v7e-m/fpv4-sp/hard\libc_nano.a(lib_a-init.o)
 .debug_str     0x00000644       0x13 c:/program files/microchip/xc32/v2.40/bin/bin/../../lib/gcc/pic32c/6.2.1/../../../../pic32c/lib/v7e-m/fpv4-sp/hard\libc_nano.a(lib_a-malloc.o)
 .debug_str     0x00000657        0x9 c:/program files/microchip/xc32/v2.40/bin/bin/../../lib/gcc/pic32c/6.2.1/../../../../pic32c/lib/v7e-m/fpv4-sp/hard\libc_nano.a(lib_a-memcpy-stub.o)
 .debug_str     0x00000660      0x114 c:/program files/microchip/xc32/v2.40/bin/bin/../../lib/gcc/pic32c/6.2.1/../../../../pic32c/lib/v7e-m/fpv4-sp/hard\libc_nano.a(lib_a-memset.o)
 .debug_str     0x00000774       0x27 c:/program files/microchip/xc32/v2.40/bin/bin/../../lib/gcc/pic32c/6.2.1/../../../../pic32c/lib/v7e-m/fpv4-sp/hard\libc_nano.a(lib_a-nano-freer.o)
 .debug_str     0x0000079b       0x31 c:/program files/microchip/xc32/v2.40/bin/bin/../../lib/gcc/pic32c/6.2.1/../../../../pic32c/lib/v7e-m/fpv4-sp/hard\libc_nano.a(lib_a-nano-mallocr.o)
 .debug_str     0x000007cc        0x9 c:/program files/microchip/xc32/v2.40/bin/bin/../../lib/gcc/pic32c/6.2.1/../../../../pic32c/lib/v7e-m/fpv4-sp/hard\libc_nano.a(lib_a-sbrkr.o)
 .debug_str     0x000007d5        0x9 c:/program files/microchip/xc32/v2.40/bin/bin/../../lib/gcc/pic32c/6.2.1/../../../../pic32c/lib/v7e-m/fpv4-sp/hard\libc_nano.a(lib_a-impure.o)
 .debug_str     0x000007de        0x9 c:/program files/microchip/xc32/v2.40/bin/bin/../../lib/gcc/pic32c/6.2.1/../../../../pic32c/lib/v7e-m/fpv4-sp/hard\libc_nano.a(lib_a-mlock.o)
 .debug_str     0x000007e7        0x9 c:/program files/microchip/xc32/v2.40/bin/bin/../../lib/gcc/pic32c/6.2.1/../../../../pic32c/lib/v7e-m/fpv4-sp/hard\libc_nano.a(lib_a-reent.o)
 .debug_str     0x000007f0        0x0 c:/program files/microchip/xc32/v2.40/bin/bin/../../lib/gcc/pic32c/6.2.1/../../../../pic32c/lib/v7e-m/fpv4-sp/hard\libpic32c.a(sbrk.o)

.debug_frame    0x00000000     0x2840
 .debug_frame   0x00000000       0xec build/LAN9255_SQI_INDIRECT_MODE/production/_ext/1984496892/plib_clock.o
 .debug_frame   0x000000ec       0xfc build/LAN9255_SQI_INDIRECT_MODE/production/_ext/60167341/plib_eic.o
 .debug_frame   0x000001e8       0x30 build/LAN9255_SQI_INDIRECT_MODE/production/_ext/1986646378/plib_evsys.o
 .debug_frame   0x00000218       0xa4 build/LAN9255_SQI_INDIRECT_MODE/production/_ext/1865468468/plib_nvic.o
 .debug_frame   0x000002bc      0x2ac build/LAN9255_SQI_INDIRECT_MODE/production/_ext/1593096446/plib_nvmctrl.o
 .debug_frame   0x00000568      0x170 build/LAN9255_SQI_INDIRECT_MODE/production/_ext/1865521619/plib_port.o
 .debug_frame   0x000006d8      0x180 build/LAN9255_SQI_INDIRECT_MODE/production/_ext/1865555181/plib_qspi.o
 .debug_frame   0x00000858      0x184 build/LAN9255_SQI_INDIRECT_MODE/production/_ext/1827571544/plib_systick.o
 .debug_frame   0x000009dc       0xa0 build/LAN9255_SQI_INDIRECT_MODE/production/_ext/1171490990/exceptions.o
 .debug_frame   0x00000a7c       0x34 build/LAN9255_SQI_INDIRECT_MODE/production/_ext/1171490990/initialization.o
 .debug_frame   0x00000ab0       0x20 build/LAN9255_SQI_INDIRECT_MODE/production/_ext/1171490990/interrupts.o
 .debug_frame   0x00000ad0       0x98 build/LAN9255_SQI_INDIRECT_MODE/production/_ext/1171490990/startup_xc32.o
 .debug_frame   0x00000b68       0x2c build/LAN9255_SQI_INDIRECT_MODE/production/_ext/1171490990/tasks.o
 .debug_frame   0x00000b94      0x3c4 build/LAN9255_SQI_INDIRECT_MODE/production/_ext/1671622016/Drivers.o
 .debug_frame   0x00000f58       0xb4 build/LAN9255_SQI_INDIRECT_MODE/production/_ext/108147519/ESC_Utils.o
 .debug_frame   0x0000100c      0x22c build/LAN9255_SQI_INDIRECT_MODE/production/_ext/108147519/LAN925x.o
 .debug_frame   0x00001238       0xa8 build/LAN9255_SQI_INDIRECT_MODE/production/_ext/108134065/bootmode.o
 .debug_frame   0x000012e0      0x1a8 build/LAN9255_SQI_INDIRECT_MODE/production/_ext/108134065/coeappl.o
 .debug_frame   0x00001488      0x1a8 build/LAN9255_SQI_INDIRECT_MODE/production/_ext/108134065/ecatappl.o
 .debug_frame   0x00001630       0x78 build/LAN9255_SQI_INDIRECT_MODE/production/_ext/108134065/ecatcoe.o
 .debug_frame   0x000016a8       0x7c build/LAN9255_SQI_INDIRECT_MODE/production/_ext/108134065/ecatfoe.o
 .debug_frame   0x00001724      0x320 build/LAN9255_SQI_INDIRECT_MODE/production/_ext/108134065/ecatslv.o
 .debug_frame   0x00001a44      0x160 build/LAN9255_SQI_INDIRECT_MODE/production/_ext/108134065/emcy.o
 .debug_frame   0x00001ba4       0xec build/LAN9255_SQI_INDIRECT_MODE/production/_ext/108134065/foeappl.o
 .debug_frame   0x00001c90      0x1ec build/LAN9255_SQI_INDIRECT_MODE/production/_ext/108134065/mailbox.o
 .debug_frame   0x00001e7c      0x1e8 build/LAN9255_SQI_INDIRECT_MODE/production/_ext/108134065/objdef.o
 .debug_frame   0x00002064      0x374 build/LAN9255_SQI_INDIRECT_MODE/production/_ext/108134065/sample_app.o
 .debug_frame   0x000023d8      0x120 build/LAN9255_SQI_INDIRECT_MODE/production/_ext/108134065/sdoserv.o
 .debug_frame   0x000024f8       0x2c build/LAN9255_SQI_INDIRECT_MODE/production/_ext/1360937237/main.o
 .debug_frame   0x00002524      0x110 build/LAN9255_SQI_INDIRECT_MODE/production/_ext/1360937237/app.o
 .debug_frame   0x00002634       0x2c c:/program files/microchip/xc32/v2.40/bin/bin/../../lib/gcc/pic32c/6.2.1/../../../../pic32c/lib/v7e-m/fpv4-sp/hard\libpic32c.a(data_init.o)
 .debug_frame   0x00002660       0x2c c:/program files/microchip/xc32/v2.40/bin/bin/../../lib/gcc/pic32c/6.2.1/../../../../pic32c/lib/v7e-m/fpv4-sp/hard\libc_nano.a(lib_a-init.o)
 .debug_frame   0x0000268c       0x30 c:/program files/microchip/xc32/v2.40/bin/bin/../../lib/gcc/pic32c/6.2.1/../../../../pic32c/lib/v7e-m/fpv4-sp/hard\libc_nano.a(lib_a-malloc.o)
 .debug_frame   0x000026bc       0x28 c:/program files/microchip/xc32/v2.40/bin/bin/../../lib/gcc/pic32c/6.2.1/../../../../pic32c/lib/v7e-m/fpv4-sp/hard\libc_nano.a(lib_a-memcpy-stub.o)
 .debug_frame   0x000026e4       0x20 c:/program files/microchip/xc32/v2.40/bin/bin/../../lib/gcc/pic32c/6.2.1/../../../../pic32c/lib/v7e-m/fpv4-sp/hard\libc_nano.a(lib_a-memset.o)
 .debug_frame   0x00002704       0x38 c:/program files/microchip/xc32/v2.40/bin/bin/../../lib/gcc/pic32c/6.2.1/../../../../pic32c/lib/v7e-m/fpv4-sp/hard\libc_nano.a(lib_a-nano-freer.o)
 .debug_frame   0x0000273c       0x2c c:/program files/microchip/xc32/v2.40/bin/bin/../../lib/gcc/pic32c/6.2.1/../../../../pic32c/lib/v7e-m/fpv4-sp/hard\libc_nano.a(lib_a-nano-mallocr.o)
 .debug_frame   0x00002768       0x2c c:/program files/microchip/xc32/v2.40/bin/bin/../../lib/gcc/pic32c/6.2.1/../../../../pic32c/lib/v7e-m/fpv4-sp/hard\libc_nano.a(lib_a-sbrkr.o)
 .debug_frame   0x00002794       0x30 c:/program files/microchip/xc32/v2.40/bin/bin/../../lib/gcc/pic32c/6.2.1/../../../../pic32c/lib/v7e-m/fpv4-sp/hard\libc_nano.a(lib_a-mlock.o)
 .debug_frame   0x000027c4       0x5c c:/program files/microchip/xc32/v2.40/bin/bin/../../lib/gcc/pic32c/6.2.1/../../../../pic32c/lib/v7e-m/fpv4-sp/hard\libc_nano.a(lib_a-reent.o)
 .debug_frame   0x00002820       0x20 c:/program files/microchip/xc32/v2.40/bin/bin/../../lib/gcc/pic32c/6.2.1/../../../../pic32c/lib/v7e-m/fpv4-sp/hard\libpic32c.a(sbrk.o)

.stack          0x20002ad8      0x100
 .stack         0x20002ad8      0x100 stack

.data.GenObjDic%1
                0x200023e4      0x1e0
 .data.GenObjDic
                0x200023e4      0x1e0 build/LAN9255_SQI_INDIRECT_MODE/production/_ext/108134065/coeappl.o
                0x200023e4                GenObjDic

.data.ApplicationObjDic%2
                0x200025c4      0x118
 .data.ApplicationObjDic
                0x200025c4      0x118 build/LAN9255_SQI_INDIRECT_MODE/production/_ext/108134065/coeappl.o
                0x200025c4                ApplicationObjDic

.bss.gau8rx_data%3
                0x200026dc       0x80
 .bss.gau8rx_data
                0x200026dc       0x80 build/LAN9255_SQI_INDIRECT_MODE/production/_ext/1671622016/Drivers.o

.data.impure_data%4
                0x2000275c       0x60
 .data.impure_data
                0x2000275c       0x60 c:/program files/microchip/xc32/v2.40/bin/bin/../../lib/gcc/pic32c/6.2.1/../../../../pic32c/lib/v7e-m/fpv4-sp/hard\libc_nano.a(lib_a-impure.o)

.data.gau8DummyCntArr%5
                0x200027bc       0x27
 .data.gau8DummyCntArr
                0x200027bc       0x27 build/LAN9255_SQI_INDIRECT_MODE/production/_ext/108147519/LAN925x.o
                0x200027bc                gau8DummyCntArr

.bss%6          0x200027e4       0x1c
 .bss           0x200027e4       0x1c c:/program files/microchip/xc32/v2.40/bin/bin/../../lib/gcc/pic32c/6.2.1/v7e-m/fpv4-sp/hard/crtbegin.o

.data.acDevicename%7
                0x20002800       0x16
 .data.acDevicename
                0x20002800       0x16 build/LAN9255_SQI_INDIRECT_MODE/production/_ext/108134065/coeappl.o
                0x20002800                acDevicename

.data.sIdentity%8
                0x20002818       0x14
 .data.sIdentity
                0x20002818       0x14 build/LAN9255_SQI_INDIRECT_MODE/production/_ext/108134065/coeappl.o
                0x20002818                sIdentity

.data.aSubindexDesc%9
                0x2000282c        0xd
 .data.aSubindexDesc
                0x2000282c        0xd build/LAN9255_SQI_INDIRECT_MODE/production/_ext/108134065/objdef.o
                0x2000282c                aSubindexDesc

.data.sErrorSettings%10
                0x2000283c        0xc
 .data.sErrorSettings
                0x2000283c        0xc build/LAN9255_SQI_INDIRECT_MODE/production/_ext/108134065/objdef.o
                0x2000283c                sErrorSettings

.bss.u64Timestamp%11
                0x20002848        0x8
 .bss.u64Timestamp
                0x20002848        0x8 build/LAN9255_SQI_INDIRECT_MODE/production/_ext/108134065/coeappl.o
                0x20002848                u64Timestamp

.data.OutputsProcessDataMapping0x1601%12
                0x20002850        0x8
 .data.OutputsProcessDataMapping0x1601
                0x20002850        0x8 build/LAN9255_SQI_INDIRECT_MODE/production/_ext/108134065/sample_app.o
                0x20002850                OutputsProcessDataMapping0x1601

.data.InputsProcessDataMapping0x1A00%13
                0x20002858        0x8
 .data.InputsProcessDataMapping0x1A00
                0x20002858        0x8 build/LAN9255_SQI_INDIRECT_MODE/production/_ext/108134065/sample_app.o
                0x20002858                InputsProcessDataMapping0x1A00

.data.Inputs0x6000%14
                0x20002860        0x8
 .data.Inputs0x6000
                0x20002860        0x8 build/LAN9255_SQI_INDIRECT_MODE/production/_ext/108134065/sample_app.o
                0x20002860                Inputs0x6000

.data.Outputs0x7010%15
                0x20002868        0x8
 .data.Outputs0x7010
                0x20002868        0x8 build/LAN9255_SQI_INDIRECT_MODE/production/_ext/108134065/sample_app.o
                0x20002868                Outputs0x7010

.data.sSyncmanagertype%16
                0x20002870        0x6
 .data.sSyncmanagertype
                0x20002870        0x6 build/LAN9255_SQI_INDIRECT_MODE/production/_ext/108134065/coeappl.o
                0x20002870                sSyncmanagertype

.data.u32Devicetype%17
                0x20002878        0x4
 .data.u32Devicetype
                0x20002878        0x4 build/LAN9255_SQI_INDIRECT_MODE/production/_ext/108134065/coeappl.o
                0x20002878                u32Devicetype

.data.acHardwareversion%18
                0x2000287c        0x4
 .data.acHardwareversion
                0x2000287c        0x4 build/LAN9255_SQI_INDIRECT_MODE/production/_ext/108134065/coeappl.o
                0x2000287c                acHardwareversion

.data.acSoftwareversion%19
                0x20002880        0x4
 .data.acSoftwareversion
                0x20002880        0x4 build/LAN9255_SQI_INDIRECT_MODE/production/_ext/108134065/coeappl.o
                0x20002880                acSoftwareversion

.bss.ObjDicList%20
                0x20002884        0x4
 .bss.ObjDicList
                0x20002884        0x4 build/LAN9255_SQI_INDIRECT_MODE/production/_ext/108134065/coeappl.o
                0x20002884                ObjDicList

.bss.SMActivate%21
                0x20002888        0x4
 .bss.SMActivate
                0x20002888        0x4 build/LAN9255_SQI_INDIRECT_MODE/production/_ext/108134065/ecatslv.o
                0x20002888                SMActivate

.data.sRxPDOassign%22
                0x2000288c        0x4
 .data.sRxPDOassign
                0x2000288c        0x4 build/LAN9255_SQI_INDIRECT_MODE/production/_ext/108134065/sample_app.o
                0x2000288c                sRxPDOassign

.data.sTxPDOassign%23
                0x20002890        0x4
 .data.sTxPDOassign
                0x20002890        0x4 build/LAN9255_SQI_INDIRECT_MODE/production/_ext/108134065/sample_app.o
                0x20002890                sTxPDOassign

.bss.nFileWriteOffset%24
                0x20002894        0x4
 .bss.nFileWriteOffset
                0x20002894        0x4 build/LAN9255_SQI_INDIRECT_MODE/production/_ext/108134065/sample_app.o
                0x20002894                nFileWriteOffset

.bss.nFileTotalLengthOffset%25
                0x20002898        0x4
 .bss.nFileTotalLengthOffset
                0x20002898        0x4 build/LAN9255_SQI_INDIRECT_MODE/production/_ext/108134065/sample_app.o
                0x20002898                nFileTotalLengthOffset

.bss.nFileStartWriteAddress%26
                0x2000289c        0x4
 .bss.nFileStartWriteAddress
                0x2000289c        0x4 build/LAN9255_SQI_INDIRECT_MODE/production/_ext/108134065/sample_app.o
                0x2000289c                nFileStartWriteAddress

.bss.u32FileSize%27
                0x200028a0        0x4
 .bss.u32FileSize
                0x200028a0        0x4 build/LAN9255_SQI_INDIRECT_MODE/production/_ext/108134065/sample_app.o
                0x200028a0                u32FileSize

.bss.__malloc_free_list%28
                0x200028a4        0x4
 .bss.__malloc_free_list
                0x200028a4        0x4 c:/program files/microchip/xc32/v2.40/bin/bin/../../lib/gcc/pic32c/6.2.1/../../../../pic32c/lib/v7e-m/fpv4-sp/hard\libc_nano.a(lib_a-nano-mallocr.o)
                0x200028a4                __malloc_free_list

.bss.__malloc_sbrk_start%29
                0x200028a8        0x4
 .bss.__malloc_sbrk_start
                0x200028a8        0x4 c:/program files/microchip/xc32/v2.40/bin/bin/../../lib/gcc/pic32c/6.2.1/../../../../pic32c/lib/v7e-m/fpv4-sp/hard\libc_nano.a(lib_a-nano-mallocr.o)
                0x200028a8                __malloc_sbrk_start

.data._impure_ptr%30
                0x200028ac        0x4
 .data._impure_ptr
                0x200028ac        0x4 c:/program files/microchip/xc32/v2.40/bin/bin/../../lib/gcc/pic32c/6.2.1/../../../../pic32c/lib/v7e-m/fpv4-sp/hard\libc_nano.a(lib_a-impure.o)
                0x200028ac                _impure_ptr

.bss%31         0x200028b0        0x4
 .bss           0x200028b0        0x4 c:/program files/microchip/xc32/v2.40/bin/bin/../../lib/gcc/pic32c/6.2.1/../../../../pic32c/lib/v7e-m/fpv4-sp/hard\libpic32c.a(sbrk.o)

.bss.nvm_error%32
                0x20002816        0x2
 .bss.nvm_error
                0x20002816        0x2 build/LAN9255_SQI_INDIRECT_MODE/production/_ext/1593096446/plib_nvmctrl.o

.bss.nvm_status%33
                0x20002876        0x2
 .bss.nvm_status
                0x20002876        0x2 build/LAN9255_SQI_INDIRECT_MODE/production/_ext/1593096446/plib_nvmctrl.o

.bss.u16ErrorRegister%34
                0x2000283a        0x2
 .bss.u16ErrorRegister
                0x2000283a        0x2 build/LAN9255_SQI_INDIRECT_MODE/production/_ext/108134065/coeappl.o
                0x2000283a                u16ErrorRegister

.bss.gbALEvtOpEnabled%35
                0x200027e3        0x1
 .bss.gbALEvtOpEnabled
                0x200027e3        0x1 build/LAN9255_SQI_INDIRECT_MODE/production/_ext/108147519/LAN925x.o
                0x200027e3                gbALEvtOpEnabled

.bss.bInitFinished%36
                0x20002839        0x1
 .bss.bInitFinished
                0x20002839        0x1 build/LAN9255_SQI_INDIRECT_MODE/production/_ext/108134065/ecatappl.o
                0x20002839                bInitFinished

.bss.EepromLoaded%37
                0x200028b4        0x1
 .bss.EepromLoaded
                0x200028b4        0x1 build/LAN9255_SQI_INDIRECT_MODE/production/_ext/108134065/ecatslv.o
                0x200028b4                EepromLoaded

.bss.gFirmwareDownload_Started%38
                0x200028b5        0x1
 .bss.gFirmwareDownload_Started
                0x200028b5        0x1 build/LAN9255_SQI_INDIRECT_MODE/production/_ext/108134065/sample_app.o
                0x200028b5                gFirmwareDownload_Started

.bss.gFirmwareDownload_Finished%39
                0x200028b6        0x1
 .bss.gFirmwareDownload_Finished
                0x200028b6        0x1 build/LAN9255_SQI_INDIRECT_MODE/production/_ext/108134065/sample_app.o
                0x200028b6                gFirmwareDownload_Finished

.bss.bSdoInWork%40
                0x200028b7        0x1
 .bss.bSdoInWork
                0x200028b7        0x1 build/LAN9255_SQI_INDIRECT_MODE/production/_ext/108134065/sdoserv.o
                0x200028b7                bSdoInWork

.eh_frame%z1    0x00000000        0x0
 .eh_frame      0x00000000        0x0 c:/program files/microchip/xc32/v2.40/bin/bin/../../lib/gcc/pic32c/6.2.1/v7e-m/fpv4-sp/hard/crtbegin.o

.text.StartInputHandler%41
                0x00000280      0x7e4
 .text.StartInputHandler
                0x00000280      0x7e4 build/LAN9255_SQI_INDIRECT_MODE/production/_ext/108134065/ecatslv.o
                0x00000280                StartInputHandler

.text.AL_ControlInd%42
                0x00000a64      0x790
 .text.AL_ControlInd
                0x00000a64      0x790 build/LAN9255_SQI_INDIRECT_MODE/production/_ext/108134065/ecatslv.o
                0x00000a64                AL_ControlInd

.text.OBJ_Write%43
                0x000011f4      0x710
 .text.OBJ_Write
                0x000011f4      0x710 build/LAN9255_SQI_INDIRECT_MODE/production/_ext/108134065/objdef.o
                0x000011f4                OBJ_Write

.dinit%44       0x00001904      0x6b0
 .dinit         0x00001904      0x6b0 data_init

.text.OBJ_Read%45
                0x00001fb4      0x67c
 .text.OBJ_Read
                0x00001fb4      0x67c build/LAN9255_SQI_INDIRECT_MODE/production/_ext/108134065/objdef.o
                0x00001fb4                OBJ_Read

.text.SDOS_SdoInd%46
                0x00002630      0x5e4
 .text.SDOS_SdoInd
                0x00002630      0x5e4 build/LAN9255_SQI_INDIRECT_MODE/production/_ext/108134065/sdoserv.o
                0x00002630                SDOS_SdoInd

.text.FOE_ServiceInd%47
                0x00002c14      0x488
 .text.FOE_ServiceInd
                0x00002c14      0x488 build/LAN9255_SQI_INDIRECT_MODE/production/_ext/108134065/ecatfoe.o
                0x00002c14                FOE_ServiceInd

.text.SDOS_SdoInfoInd%48
                0x0000309c      0x434
 .text.SDOS_SdoInfoInd
                0x0000309c      0x434 build/LAN9255_SQI_INDIRECT_MODE/production/_ext/108134065/sdoserv.o
                0x0000309c                SDOS_SdoInfoInd

.text.SdoDownloadSegmentInd%49
                0x000034d0      0x3b4
 .text.SdoDownloadSegmentInd
                0x000034d0      0x3b4 build/LAN9255_SQI_INDIRECT_MODE/production/_ext/108134065/sdoserv.o

.text.CheckSmSettings%50
                0x00003884      0x3a0
 .text.CheckSmSettings
                0x00003884      0x3a0 build/LAN9255_SQI_INDIRECT_MODE/production/_ext/108134065/ecatslv.o
                0x00003884                CheckSmSettings

.text.EEPROM_CommandHandler%51
                0x00003c24      0x2bc
 .text.EEPROM_CommandHandler
                0x00003c24      0x2bc build/LAN9255_SQI_INDIRECT_MODE/production/_ext/108134065/ecatappl.o
                0x00003c24                EEPROM_CommandHandler

.text.AL_ControlRes%52
                0x00003ee0      0x2bc
 .text.AL_ControlRes
                0x00003ee0      0x2bc build/LAN9255_SQI_INDIRECT_MODE/production/_ext/108134065/ecatslv.o
                0x00003ee0                AL_ControlRes

.text.SdoUploadSegmentInd%53
                0x0000419c      0x260
 .text.SdoUploadSegmentInd
                0x0000419c      0x260 build/LAN9255_SQI_INDIRECT_MODE/production/_ext/108134065/sdoserv.o

.text.SendSmFailedEmergency%54
                0x000043fc      0x1e0
 .text.SendSmFailedEmergency
                0x000043fc      0x1e0 build/LAN9255_SQI_INDIRECT_MODE/production/_ext/108134065/ecatslv.o
                0x000043fc                SendSmFailedEmergency

.text.SdoRes%55
                0x000045dc      0x1bc
 .text.SdoRes   0x000045dc      0x1bc build/LAN9255_SQI_INDIRECT_MODE/production/_ext/108134065/sdoserv.o
                0x000045dc                SdoRes

.text.ECAT_Main%56
                0x00004798      0x1b4
 .text.ECAT_Main
                0x00004798      0x1b4 build/LAN9255_SQI_INDIRECT_MODE/production/_ext/108134065/ecatslv.o
                0x00004798                ECAT_Main

.text.CheckSyncTypeValue%57
                0x0000494c      0x1b4
 .text.CheckSyncTypeValue
                0x0000494c      0x1b4 build/LAN9255_SQI_INDIRECT_MODE/production/_ext/108134065/objdef.o
                0x0000494c                CheckSyncTypeValue

.text.FoE_WriteData%58
                0x00004b00      0x18c
 .text.FoE_WriteData
                0x00004b00      0x18c build/LAN9255_SQI_INDIRECT_MODE/production/_ext/108134065/sample_app.o
                0x00004b00                FoE_WriteData

.text.OBJ_GetEntryOffset%59
                0x00004c8c      0x178
 .text.OBJ_GetEntryOffset
                0x00004c8c      0x178 build/LAN9255_SQI_INDIRECT_MODE/production/_ext/108134065/objdef.o
                0x00004c8c                OBJ_GetEntryOffset

.text.APPL_GenerateMapping%60
                0x00004e04      0x174
 .text.APPL_GenerateMapping
                0x00004e04      0x174 build/LAN9255_SQI_INDIRECT_MODE/production/_ext/108134065/sample_app.o
                0x00004e04                APPL_GenerateMapping

.text.ECAT_Init%61
                0x00004f78      0x170
 .text.ECAT_Init
                0x00004f78      0x170 build/LAN9255_SQI_INDIRECT_MODE/production/_ext/108134065/ecatslv.o
                0x00004f78                ECAT_Init

.text.SetALStatus%62
                0x000050e8      0x164
 .text.SetALStatus
                0x000050e8      0x164 build/LAN9255_SQI_INDIRECT_MODE/production/_ext/108134065/ecatslv.o
                0x000050e8                SetALStatus

.text.MBX_CheckAndCopyMailbox%63
                0x0000524c      0x164
 .text.MBX_CheckAndCopyMailbox
                0x0000524c      0x164 build/LAN9255_SQI_INDIRECT_MODE/production/_ext/108134065/mailbox.o
                0x0000524c                MBX_CheckAndCopyMailbox

.text.COE_ObjInit%64
                0x000053b0      0x160
 .text.COE_ObjInit
                0x000053b0      0x160 build/LAN9255_SQI_INDIRECT_MODE/production/_ext/108134065/coeappl.o
                0x000053b0                COE_ObjInit

.text.Sync0_Isr%65
                0x00005510      0x15c
 .text.Sync0_Isr
                0x00005510      0x15c build/LAN9255_SQI_INDIRECT_MODE/production/_ext/108134065/ecatappl.o
                0x00005510                Sync0_Isr

.text.MainInit%66
                0x0000566c      0x15c
 .text.MainInit
                0x0000566c      0x15c build/LAN9255_SQI_INDIRECT_MODE/production/_ext/108134065/ecatappl.o
                0x0000566c                MainInit

.text.MBX_StopMailboxHandler%67
                0x000057c8      0x154
 .text.MBX_StopMailboxHandler
                0x000057c8      0x154 build/LAN9255_SQI_INDIRECT_MODE/production/_ext/108134065/mailbox.o
                0x000057c8                MBX_StopMailboxHandler

.text.APP_FlashEEPROMUpdate%68
                0x0000591c      0x154
 .text.APP_FlashEEPROMUpdate
                0x0000591c      0x154 build/LAN9255_SQI_INDIRECT_MODE/production/_ext/1360937237/app.o
                0x0000591c                APP_FlashEEPROMUpdate

.text.PDI_Isr%69
                0x00005a70      0x14c
 .text.PDI_Isr  0x00005a70      0x14c build/LAN9255_SQI_INDIRECT_MODE/production/_ext/108134065/ecatappl.o
                0x00005a70                PDI_Isr

.text.StopInputHandler%70
                0x00005bbc      0x12c
 .text.StopInputHandler
                0x00005bbc      0x12c build/LAN9255_SQI_INDIRECT_MODE/production/_ext/108134065/ecatslv.o
                0x00005bbc                StopInputHandler

.text.MBX_MailboxReadInd%71
                0x00005ce8      0x124
 .text.MBX_MailboxReadInd
                0x00005ce8      0x124 build/LAN9255_SQI_INDIRECT_MODE/production/_ext/108134065/mailbox.o
                0x00005ce8                MBX_MailboxReadInd

.text.OBJ_GetObjectLength%72
                0x00005e0c      0x124
 .text.OBJ_GetObjectLength
                0x00005e0c      0x124 build/LAN9255_SQI_INDIRECT_MODE/production/_ext/108134065/objdef.o
                0x00005e0c                OBJ_GetObjectLength

.text.SDOS_SdoRes%73
                0x00005f30      0x124
 .text.SDOS_SdoRes
                0x00005f30      0x124 build/LAN9255_SQI_INDIRECT_MODE/production/_ext/108134065/sdoserv.o
                0x00005f30                SDOS_SdoRes

.text.DC_CheckWatchdog%74
                0x00006054      0x120
 .text.DC_CheckWatchdog
                0x00006054      0x120 build/LAN9255_SQI_INDIRECT_MODE/production/_ext/108134065/ecatslv.o
                0x00006054                DC_CheckWatchdog

.text.OBJ_GetDesc%75
                0x00006174      0x120
 .text.OBJ_GetDesc
                0x00006174      0x120 build/LAN9255_SQI_INDIRECT_MODE/production/_ext/108134065/objdef.o
                0x00006174                OBJ_GetDesc

.text.MBX_StartMailboxHandler%76
                0x00006294      0x114
 .text.MBX_StartMailboxHandler
                0x00006294      0x114 build/LAN9255_SQI_INDIRECT_MODE/production/_ext/108134065/mailbox.o
                0x00006294                MBX_StartMailboxHandler

.text.MBX_CopyToSendMailbox%77
                0x000063a8      0x10c
 .text.MBX_CopyToSendMailbox
                0x000063a8      0x10c build/LAN9255_SQI_INDIRECT_MODE/production/_ext/108134065/mailbox.o
                0x000063a8                MBX_CopyToSendMailbox

.rodata.aName0x1C32%78
                0x000064b4      0x100
 .rodata.aName0x1C32
                0x000064b4      0x100 build/LAN9255_SQI_INDIRECT_MODE/production/_ext/108134065/coeappl.o
                0x000064b4                aName0x1C32

.rodata.aName0x1C33%79
                0x000065b4      0x100
 .rodata.aName0x1C33
                0x000065b4      0x100 build/LAN9255_SQI_INDIRECT_MODE/production/_ext/108134065/coeappl.o
                0x000065b4                aName0x1C33

.text.MBX_Init%80
                0x000066b4      0x100
 .text.MBX_Init
                0x000066b4      0x100 build/LAN9255_SQI_INDIRECT_MODE/production/_ext/108134065/mailbox.o
                0x000066b4                MBX_Init

.text.HW_EscWrite%81
                0x000067b4       0xf8
 .text.HW_EscWrite
                0x000067b4       0xf8 build/LAN9255_SQI_INDIRECT_MODE/production/_ext/108147519/LAN925x.o
                0x000067b4                HW_EscWrite

.text.ECAT_CheckTimer%82
                0x000068ac       0xf8
 .text.ECAT_CheckTimer
                0x000068ac       0xf8 build/LAN9255_SQI_INDIRECT_MODE/production/_ext/108134065/ecatappl.o
                0x000068ac                ECAT_CheckTimer

.text.OBJ_GetObjectList%83
                0x000069a4       0xf8
 .text.OBJ_GetObjectList
                0x000069a4       0xf8 build/LAN9255_SQI_INDIRECT_MODE/production/_ext/108134065/objdef.o
                0x000069a4                OBJ_GetObjectList

.text.HW_EscRead%84
                0x00006a9c       0xf6
 .text.HW_EscRead
                0x00006a9c       0xf6 build/LAN9255_SQI_INDIRECT_MODE/production/_ext/108147519/LAN925x.o
                0x00006a9c                HW_EscRead

.text.LAN9252SQI_ReadPDRAM%85
                0x00006b92       0xf4
 .text.LAN9252SQI_ReadPDRAM
                0x00006b92       0xf4 build/LAN9255_SQI_INDIRECT_MODE/production/_ext/1671622016/Drivers.o
                0x00006b92                LAN9252SQI_ReadPDRAM

.text.MBX_MailboxWriteInd%86
                0x00006c88       0xf4
 .text.MBX_MailboxWriteInd
                0x00006c88       0xf4 build/LAN9255_SQI_INDIRECT_MODE/production/_ext/108134065/mailbox.o
                0x00006c88                MBX_MailboxWriteInd

.text.EscWrite%87
                0x00006d7c       0xf0
 .text.EscWrite
                0x00006d7c       0xf0 build/LAN9255_SQI_INDIRECT_MODE/production/_ext/108147519/LAN925x.o
                0x00006d7c                EscWrite

.text.EscRead%88
                0x00006e6c       0xee
 .text.EscRead  0x00006e6c       0xee build/LAN9255_SQI_INDIRECT_MODE/production/_ext/108147519/LAN925x.o
                0x00006e6c                EscRead

.text.MainLoop%89
                0x00006f5c       0xec
 .text.MainLoop
                0x00006f5c       0xec build/LAN9255_SQI_INDIRECT_MODE/production/_ext/108134065/ecatappl.o
                0x00006f5c                MainLoop

.text.COE_AddObjectToDic%90
                0x00007048       0xe8
 .text.COE_AddObjectToDic
                0x00007048       0xe8 build/LAN9255_SQI_INDIRECT_MODE/production/_ext/108134065/coeappl.o
                0x00007048                COE_AddObjectToDic

.text.COE_Main%91
                0x00007130       0xe8
 .text.COE_Main
                0x00007130       0xe8 build/LAN9255_SQI_INDIRECT_MODE/production/_ext/108134065/coeappl.o
                0x00007130                COE_Main

.text.EIC_Initialize%92
                0x00007218       0xe4
 .text.EIC_Initialize
                0x00007218       0xe4 build/LAN9255_SQI_INDIRECT_MODE/production/_ext/60167341/plib_eic.o
                0x00007218                EIC_Initialize

.text.LAN9252SQI_Read%93
                0x000072fc       0xe4
 .text.LAN9252SQI_Read
                0x000072fc       0xe4 build/LAN9255_SQI_INDIRECT_MODE/production/_ext/1671622016/Drivers.o
                0x000072fc                LAN9252SQI_Read

.text.MBX_MailboxSendReq%94
                0x000073e0       0xdc
 .text.MBX_MailboxSendReq
                0x000073e0       0xdc build/LAN9255_SQI_INDIRECT_MODE/production/_ext/108134065/mailbox.o
                0x000073e0                MBX_MailboxSendReq

.text.SODS_ClearPendingResponse%95
                0x000074bc       0xcc
 .text.SODS_ClearPendingResponse
                0x000074bc       0xcc build/LAN9255_SQI_INDIRECT_MODE/production/_ext/108134065/sdoserv.o
                0x000074bc                SODS_ClearPendingResponse

.rodata.asEntryDesc0x1C3x%96
                0x00007588       0xc8
 .rodata.asEntryDesc0x1C3x
                0x00007588       0xc8 build/LAN9255_SQI_INDIRECT_MODE/production/_ext/108134065/coeappl.o
                0x00007588                asEntryDesc0x1C3x

.text.GetDummyBytesRequired%97
                0x00007650       0xc6
 .text.GetDummyBytesRequired
                0x00007650       0xc6 build/LAN9255_SQI_INDIRECT_MODE/production/_ext/108147519/ESC_Utils.o
                0x00007650                GetDummyBytesRequired

.text.HW_EepromWrite%98
                0x00007718       0xc4
 .text.HW_EepromWrite
                0x00007718       0xc4 build/LAN9255_SQI_INDIRECT_MODE/production/_ext/108134065/sample_app.o
                0x00007718                HW_EepromWrite

.text.FoE_Read%99
                0x000077dc       0xbc
 .text.FoE_Read
                0x000077dc       0xbc build/LAN9255_SQI_INDIRECT_MODE/production/_ext/108134065/sample_app.o
                0x000077dc                FoE_Read

.text._malloc_r%100
                0x00007898       0xbc
 .text._malloc_r
                0x00007898       0xbc c:/program files/microchip/xc32/v2.40/bin/bin/../../lib/gcc/pic32c/6.2.1/../../../../pic32c/lib/v7e-m/fpv4-sp/hard\libc_nano.a(lib_a-nano-mallocr.o)
                0x00007898                _malloc_r

.text.MBX_Main%101
                0x00007954       0xb8
 .text.MBX_Main
                0x00007954       0xb8 build/LAN9255_SQI_INDIRECT_MODE/production/_ext/108134065/mailbox.o
                0x00007954                MBX_Main

.text.qspi_setup_transfer%102
                0x00007a0c       0xb4
 .text.qspi_setup_transfer
                0x00007a0c       0xb4 build/LAN9255_SQI_INDIRECT_MODE/production/_ext/1865555181/plib_qspi.o

.text.LAN925x_Init%103
                0x00007ac0       0xb4
 .text.LAN925x_Init
                0x00007ac0       0xb4 build/LAN9255_SQI_INDIRECT_MODE/production/_ext/108147519/LAN925x.o
                0x00007ac0                LAN925x_Init

.text.PDO_OutputMapping%104
                0x00007b74       0xb0
 .text.PDO_OutputMapping
                0x00007b74       0xb0 build/LAN9255_SQI_INDIRECT_MODE/production/_ext/108134065/ecatappl.o
                0x00007b74                PDO_OutputMapping

.text.QSPI_MemoryRead%105
                0x00007c24       0xac
 .text.QSPI_MemoryRead
                0x00007c24       0xac build/LAN9255_SQI_INDIRECT_MODE/production/_ext/1865555181/plib_qspi.o
                0x00007c24                QSPI_MemoryRead

.text.LAN9252SQI_WritePDRAM%106
                0x00007cd0       0xac
 .text.LAN9252SQI_WritePDRAM
                0x00007cd0       0xac build/LAN9255_SQI_INDIRECT_MODE/production/_ext/1671622016/Drivers.o
                0x00007cd0                LAN9252SQI_WritePDRAM

.text.QSPI_MemoryWrite%107
                0x00007d7c       0xa8
 .text.QSPI_MemoryWrite
                0x00007d7c       0xa8 build/LAN9255_SQI_INDIRECT_MODE/production/_ext/1865555181/plib_qspi.o
                0x00007d7c                QSPI_MemoryWrite

.text.EMCY_Init%108
                0x00007e24       0xa8
 .text.EMCY_Init
                0x00007e24       0xa8 build/LAN9255_SQI_INDIRECT_MODE/production/_ext/108134065/emcy.o
                0x00007e24                EMCY_Init

.text.PORT_Initialize%109
                0x00007ecc       0xa4
 .text.PORT_Initialize
                0x00007ecc       0xa4 build/LAN9255_SQI_INDIRECT_MODE/production/_ext/1865521619/plib_port.o
                0x00007ecc                PORT_Initialize

.text.EMCY_SendEmergency%110
                0x00007f70       0xa4
 .text.EMCY_SendEmergency
                0x00007f70       0xa4 build/LAN9255_SQI_INDIRECT_MODE/production/_ext/108134065/emcy.o
                0x00007f70                EMCY_SendEmergency

.text.HW_EepromReload%111
                0x00008014       0xa0
 .text.HW_EepromReload
                0x00008014       0xa0 build/LAN9255_SQI_INDIRECT_MODE/production/_ext/108134065/sample_app.o
                0x00008014                HW_EepromReload

.text.COE_SyncTimeStamp%112
                0x000080b4       0x9c
 .text.COE_SyncTimeStamp
                0x000080b4       0x9c build/LAN9255_SQI_INDIRECT_MODE/production/_ext/108134065/coeappl.o
                0x000080b4                COE_SyncTimeStamp

.text.FoE_Write%113
                0x00008150       0x9c
 .text.FoE_Write
                0x00008150       0x9c build/LAN9255_SQI_INDIRECT_MODE/production/_ext/108134065/sample_app.o
                0x00008150                FoE_Write

.text.APP_Tasks%114
                0x000081ec       0x9c
 .text.APP_Tasks
                0x000081ec       0x9c build/LAN9255_SQI_INDIRECT_MODE/production/_ext/1360937237/app.o
                0x000081ec                APP_Tasks

.text._free_r%115
                0x00008288       0x9c
 .text._free_r  0x00008288       0x9c c:/program files/microchip/xc32/v2.40/bin/bin/../../lib/gcc/pic32c/6.2.1/../../../../pic32c/lib/v7e-m/fpv4-sp/hard\libc_nano.a(lib_a-nano-freer.o)
                0x00008288                _free_r

.text.OBJ_GetNoOfObjects%116
                0x00008324       0x98
 .text.OBJ_GetNoOfObjects
                0x00008324       0x98 build/LAN9255_SQI_INDIRECT_MODE/production/_ext/108134065/objdef.o
                0x00008324                OBJ_GetNoOfObjects

.text.RoundUpMultipleOf%117
                0x000083bc       0x96
 .text.RoundUpMultipleOf
                0x000083bc       0x96 build/LAN9255_SQI_INDIRECT_MODE/production/_ext/108147519/ESC_Utils.o

.text.PDO_InputMapping%118
                0x00008454       0x94
 .text.PDO_InputMapping
                0x00008454       0x94 build/LAN9255_SQI_INDIRECT_MODE/production/_ext/108134065/ecatappl.o
                0x00008454                PDO_InputMapping

.text.OBJ_CopyNumberToString%119
                0x000084e8       0x94
 .text.OBJ_CopyNumberToString
                0x000084e8       0x94 build/LAN9255_SQI_INDIRECT_MODE/production/_ext/108134065/objdef.o
                0x000084e8                OBJ_CopyNumberToString

.text.QSPI_CommandWrite%120
                0x0000857c       0x88
 .text.QSPI_CommandWrite
                0x0000857c       0x88 build/LAN9255_SQI_INDIRECT_MODE/production/_ext/1865555181/plib_qspi.o
                0x0000857c                QSPI_CommandWrite

.text.QSPI_RegisterWrite%121
                0x00008604       0x88
 .text.QSPI_RegisterWrite
                0x00008604       0x88 build/LAN9255_SQI_INDIRECT_MODE/production/_ext/1865555181/plib_qspi.o
                0x00008604                QSPI_RegisterWrite

.text.ReBuild_SQI_SetCfg_data%122
                0x0000868c       0x88
 .text.ReBuild_SQI_SetCfg_data
                0x0000868c       0x88 build/LAN9255_SQI_INDIRECT_MODE/production/_ext/1671622016/Drivers.o
                0x0000868c                ReBuild_SQI_SetCfg_data

.text.COE_RemoveDicEntry%123
                0x00008714       0x80
 .text.COE_RemoveDicEntry
                0x00008714       0x80 build/LAN9255_SQI_INDIRECT_MODE/production/_ext/108134065/coeappl.o
                0x00008714                COE_RemoveDicEntry

.text.__pic32c_data_initialization%124
                0x00008794       0x80
 .text.__pic32c_data_initialization
                0x00008794       0x80 c:/program files/microchip/xc32/v2.40/bin/bin/../../lib/gcc/pic32c/6.2.1/../../../../pic32c/lib/v7e-m/fpv4-sp/hard\libpic32c.a(data_init.o)
                0x00008794                __pic32c_data_initialization

.text.HandleCycleTimeMeasurement%125
                0x00008814       0x7c
 .text.HandleCycleTimeMeasurement
                0x00008814       0x7c build/LAN9255_SQI_INDIRECT_MODE/production/_ext/108134065/ecatappl.o
                0x00008814                HandleCycleTimeMeasurement

.text.MBX_MailboxRepeatReq%126
                0x00008890       0x7c
 .text.MBX_MailboxRepeatReq
                0x00008890       0x7c build/LAN9255_SQI_INDIRECT_MODE/production/_ext/108134065/mailbox.o
                0x00008890                MBX_MailboxRepeatReq

.rodata.cAbortCode%127
                0x0000890c       0x78
 .rodata.cAbortCode
                0x0000890c       0x78 build/LAN9255_SQI_INDIRECT_MODE/production/_ext/108134065/sdoserv.o
                0x0000890c                cAbortCode

.text.APP_FlashWrite%128
                0x00008984       0x78
 .text.APP_FlashWrite
                0x00008984       0x78 build/LAN9255_SQI_INDIRECT_MODE/production/_ext/1360937237/app.o
                0x00008984                APP_FlashWrite

.text.COE_ServiceInd%129
                0x000089fc       0x74
 .text.COE_ServiceInd
                0x000089fc       0x74 build/LAN9255_SQI_INDIRECT_MODE/production/_ext/108134065/ecatcoe.o
                0x000089fc                COE_ServiceInd

.text.StartOutputHandler%130
                0x00008a70       0x74
 .text.StartOutputHandler
                0x00008a70       0x74 build/LAN9255_SQI_INDIRECT_MODE/production/_ext/108134065/ecatslv.o
                0x00008a70                StartOutputHandler

.text.GetSystemTimeDelay%131
                0x00008ae4       0x70
 .text.GetSystemTimeDelay
                0x00008ae4       0x70 build/LAN9255_SQI_INDIRECT_MODE/production/_ext/108134065/ecatappl.o
                0x00008ae4                GetSystemTimeDelay

.text.CalculateCRC8%132
                0x00008b54       0x6e
 .text.CalculateCRC8
                0x00008b54       0x6e build/LAN9255_SQI_INDIRECT_MODE/production/_ext/1360937237/app.o
                0x00008b54                CalculateCRC8

.text.FDPLL0_Initialize%133
                0x00008bc4       0x6c
 .text.FDPLL0_Initialize
                0x00008bc4       0x6c build/LAN9255_SQI_INDIRECT_MODE/production/_ext/1984496892/plib_clock.o

.text.FOE_Data%134
                0x00008c30       0x6c
 .text.FOE_Data
                0x00008c30       0x6c build/LAN9255_SQI_INDIRECT_MODE/production/_ext/108134065/foeappl.o
                0x00008c30                FOE_Data

.text.CLOCK_Initialize%135
                0x00008c9c       0x68
 .text.CLOCK_Initialize
                0x00008c9c       0x68 build/LAN9255_SQI_INDIRECT_MODE/production/_ext/1984496892/plib_clock.o
                0x00008c9c                CLOCK_Initialize

.text.NVMCTRL_PageWrite%136
                0x00008d04       0x68
 .text.NVMCTRL_PageWrite
                0x00008d04       0x68 build/LAN9255_SQI_INDIRECT_MODE/production/_ext/1593096446/plib_nvmctrl.o
                0x00008d04                NVMCTRL_PageWrite

.text.COE_UpdateSyncErrorStatus%137
                0x00008d6c       0x68
 .text.COE_UpdateSyncErrorStatus
                0x00008d6c       0x68 build/LAN9255_SQI_INDIRECT_MODE/production/_ext/108134065/coeappl.o
                0x00008d6c                COE_UpdateSyncErrorStatus

.text.MailboxServiceInd%138
                0x00008dd4       0x68
 .text.MailboxServiceInd
                0x00008dd4       0x68 build/LAN9255_SQI_INDIRECT_MODE/production/_ext/108134065/mailbox.o
                0x00008dd4                MailboxServiceInd

.text.ECAT_CheckWatchdog%139
                0x00008e3c       0x64
 .text.ECAT_CheckWatchdog
                0x00008e3c       0x64 build/LAN9255_SQI_INDIRECT_MODE/production/_ext/108134065/ecatslv.o
                0x00008e3c                ECAT_CheckWatchdog

.text.BL_FOE_Application%140
                0x00008ea0       0x64
 .text.BL_FOE_Application
                0x00008ea0       0x64 build/LAN9255_SQI_INDIRECT_MODE/production/_ext/108134065/sample_app.o
                0x00008ea0                BL_FOE_Application

.text.LAN9252SQI_Write%141
                0x00008f04       0x60
 .text.LAN9252SQI_Write
                0x00008f04       0x60 build/LAN9255_SQI_INDIRECT_MODE/production/_ext/1671622016/Drivers.o
                0x00008f04                LAN9252SQI_Write

.text.EIC_CallbackRegister%142
                0x00008f64       0x5c
 .text.EIC_CallbackRegister
                0x00008f64       0x5c build/LAN9255_SQI_INDIRECT_MODE/production/_ext/60167341/plib_eic.o
                0x00008f64                EIC_CallbackRegister

.text.Reset_Handler%143
                0x00008fc0       0x5c
 .text.Reset_Handler
                0x00008fc0       0x5c build/LAN9255_SQI_INDIRECT_MODE/production/_ext/1171490990/startup_xc32.o
                0x00008fc0                Reset_Handler

.text.HW_GetALEventRegister%144
                0x0000901c       0x5c
 .text.HW_GetALEventRegister
                0x0000901c       0x5c build/LAN9255_SQI_INDIRECT_MODE/production/_ext/108147519/LAN925x.o
                0x0000901c                HW_GetALEventRegister

.text.Read0x10F8%145
                0x00009078       0x5c
 .text.Read0x10F8
                0x00009078       0x5c build/LAN9255_SQI_INDIRECT_MODE/production/_ext/108134065/coeappl.o
                0x00009078                Read0x10F8

.text.COE_ContinueInd%146
                0x000090d4       0x5c
 .text.COE_ContinueInd
                0x000090d4       0x5c build/LAN9255_SQI_INDIRECT_MODE/production/_ext/108134065/ecatcoe.o
                0x000090d4                COE_ContinueInd

.text.GetOutOfEmptyEmcyQueue%147
                0x00009130       0x5c
 .text.GetOutOfEmptyEmcyQueue
                0x00009130       0x5c build/LAN9255_SQI_INDIRECT_MODE/production/_ext/108134065/emcy.o
                0x00009130                GetOutOfEmptyEmcyQueue

.text.GetOutOfSendEmcyQueue%148
                0x0000918c       0x5c
 .text.GetOutOfSendEmcyQueue
                0x0000918c       0x5c build/LAN9255_SQI_INDIRECT_MODE/production/_ext/108134065/emcy.o
                0x0000918c                GetOutOfSendEmcyQueue

.text.FoE_ReadData%149
                0x000091e8       0x5c
 .text.FoE_ReadData
                0x000091e8       0x5c build/LAN9255_SQI_INDIRECT_MODE/production/_ext/108134065/sample_app.o
                0x000091e8                FoE_ReadData

.text.ESC_BYTE_TEST_Register_Read%150
                0x00009244       0x5a
 .text.ESC_BYTE_TEST_Register_Read
                0x00009244       0x5a build/LAN9255_SQI_INDIRECT_MODE/production/_ext/1671622016/Drivers.o
                0x00009244                ESC_BYTE_TEST_Register_Read

.text.GetOutOfMbxQueue%151
                0x0000929e       0x58
 .text.GetOutOfMbxQueue
                0x0000929e       0x58 build/LAN9255_SQI_INDIRECT_MODE/production/_ext/108134065/mailbox.o
                0x0000929e                GetOutOfMbxQueue

.text.OBJ_GetEntryDesc%152
                0x000092f6       0x58
 .text.OBJ_GetEntryDesc
                0x000092f6       0x58 build/LAN9255_SQI_INDIRECT_MODE/production/_ext/108134065/objdef.o
                0x000092f6                OBJ_GetEntryDesc

.text.NVIC_Initialize%153
                0x0000934e       0x56
 .text.NVIC_Initialize
                0x0000934e       0x56 build/LAN9255_SQI_INDIRECT_MODE/production/_ext/1865468468/plib_nvic.o
                0x0000934e                NVIC_Initialize

.text.__NVIC_SetPriority%154
                0x000093a4       0x54
 .text.__NVIC_SetPriority
                0x000093a4       0x54 build/LAN9255_SQI_INDIRECT_MODE/production/_ext/1865468468/plib_nvic.o

.text.HW_GetALEventRegister_Isr%155
                0x000093f8       0x54
 .text.HW_GetALEventRegister_Isr
                0x000093f8       0x54 build/LAN9255_SQI_INDIRECT_MODE/production/_ext/108147519/LAN925x.o
                0x000093f8                HW_GetALEventRegister_Isr

.text.PutInMbxQueue%156
                0x0000944c       0x52
 .text.PutInMbxQueue
                0x0000944c       0x52 build/LAN9255_SQI_INDIRECT_MODE/production/_ext/108134065/mailbox.o
                0x0000944c                PutInMbxQueue

.text.ESF_PDI_Init%157
                0x000094a0       0x4c
 .text.ESF_PDI_Init
                0x000094a0       0x4c build/LAN9255_SQI_INDIRECT_MODE/production/_ext/1671622016/Drivers.o
                0x000094a0                ESF_PDI_Init

.text.UpdateEEPROMLoadedState%158
                0x000094ec       0x4c
 .text.UpdateEEPROMLoadedState
                0x000094ec       0x4c build/LAN9255_SQI_INDIRECT_MODE/production/_ext/108134065/ecatslv.o
                0x000094ec                UpdateEEPROMLoadedState

.text.DisableSyncManChannel%159
                0x00009538       0x4c
 .text.DisableSyncManChannel
                0x00009538       0x4c build/LAN9255_SQI_INDIRECT_MODE/production/_ext/108134065/ecatslv.o
                0x00009538                DisableSyncManChannel

.text.CheckIfEcatError%160
                0x00009584       0x4c
 .text.CheckIfEcatError
                0x00009584       0x4c build/LAN9255_SQI_INDIRECT_MODE/production/_ext/108134065/ecatslv.o
                0x00009584                CheckIfEcatError

.text.HW_EscReadIsr%161
                0x000095d0       0x4a
 .text.HW_EscReadIsr
                0x000095d0       0x4a build/LAN9255_SQI_INDIRECT_MODE/production/_ext/108147519/LAN925x.o
                0x000095d0                HW_EscReadIsr

.text.HW_EscWriteIsr%162
                0x0000961a       0x4a
 .text.HW_EscWriteIsr
                0x0000961a       0x4a build/LAN9255_SQI_INDIRECT_MODE/production/_ext/108147519/LAN925x.o
                0x0000961a                HW_EscWriteIsr

.text.EnableSyncManChannel%163
                0x00009664       0x4a
 .text.EnableSyncManChannel
                0x00009664       0x4a build/LAN9255_SQI_INDIRECT_MODE/production/_ext/108134065/ecatslv.o
                0x00009664                EnableSyncManChannel

.text.__NVIC_SetPriorityGrouping%164
                0x000096b0       0x48
 .text.__NVIC_SetPriorityGrouping
                0x000096b0       0x48 build/LAN9255_SQI_INDIRECT_MODE/production/_ext/1865468468/plib_nvic.o

.text.FOE_Read%165
                0x000096f8       0x48
 .text.FOE_Read
                0x000096f8       0x48 build/LAN9255_SQI_INDIRECT_MODE/production/_ext/108134065/foeappl.o
                0x000096f8                FOE_Read

.text.__libc_init_array%166
                0x00009740       0x48
 .text.__libc_init_array
                0x00009740       0x48 c:/program files/microchip/xc32/v2.40/bin/bin/../../lib/gcc/pic32c/6.2.1/../../../../pic32c/lib/v7e-m/fpv4-sp/hard\libc_nano.a(lib_a-init.o)
                0x00009740                __libc_init_array

.text.ResetALEventMask%167
                0x00009788       0x46
 .text.ResetALEventMask
                0x00009788       0x46 build/LAN9255_SQI_INDIRECT_MODE/production/_ext/108134065/ecatslv.o
                0x00009788                ResetALEventMask

.text.SetALEventMask%168
                0x000097ce       0x46
 .text.SetALEventMask
                0x000097ce       0x46 build/LAN9255_SQI_INDIRECT_MODE/production/_ext/108134065/ecatslv.o
                0x000097ce                SetALEventMask

.text.GCLK0_Initialize%169
                0x00009814       0x44
 .text.GCLK0_Initialize
                0x00009814       0x44 build/LAN9255_SQI_INDIRECT_MODE/production/_ext/1984496892/plib_clock.o

.text.FPU_Enable%170
                0x00009858       0x44
 .text.FPU_Enable
                0x00009858       0x44 build/LAN9255_SQI_INDIRECT_MODE/production/_ext/1171490990/startup_xc32.o

.text.COE_ObjDictionaryInit%171
                0x0000989c       0x44
 .text.COE_ObjDictionaryInit
                0x0000989c       0x44 build/LAN9255_SQI_INDIRECT_MODE/production/_ext/108134065/coeappl.o
                0x0000989c                COE_ObjDictionaryInit

.text.Sync1_Isr%172
                0x000098e0       0x44
 .text.Sync1_Isr
                0x000098e0       0x44 build/LAN9255_SQI_INDIRECT_MODE/production/_ext/108134065/ecatappl.o
                0x000098e0                Sync1_Isr

.text.PutInEmptyEmcyQueue%173
                0x00009924       0x44
 .text.PutInEmptyEmcyQueue
                0x00009924       0x44 build/LAN9255_SQI_INDIRECT_MODE/production/_ext/108134065/emcy.o
                0x00009924                PutInEmptyEmcyQueue

.text.PutInSendEmcyQueue%174
                0x00009968       0x44
 .text.PutInSendEmcyQueue
                0x00009968       0x44 build/LAN9255_SQI_INDIRECT_MODE/production/_ext/108134065/emcy.o
                0x00009968                PutInSendEmcyQueue

.text.PORT_PinRead%175
                0x000099ac       0x44
 .text.PORT_PinRead
                0x000099ac       0x44 build/LAN9255_SQI_INDIRECT_MODE/production/_ext/108134065/sample_app.o

.text.APP_FW_startDownload%176
                0x000099f0       0x44
 .text.APP_FW_startDownload
                0x000099f0       0x44 build/LAN9255_SQI_INDIRECT_MODE/production/_ext/108134065/sample_app.o
                0x000099f0                APP_FW_startDownload

.text.AddObjectsToObjDictionary%177
                0x00009a34       0x42
 .text.AddObjectsToObjDictionary
                0x00009a34       0x42 build/LAN9255_SQI_INDIRECT_MODE/production/_ext/108134065/coeappl.o
                0x00009a34                AddObjectsToObjDictionary

.text%178       0x00009a78       0x40
 .text          0x00009a78       0x40 c:/program files/microchip/xc32/v2.40/bin/bin/../../lib/gcc/pic32c/6.2.1/v7e-m/fpv4-sp/hard/crtbegin.o

.text.SYSTICK_TimerInitialize%179
                0x00009ab8       0x40
 .text.SYSTICK_TimerInitialize
                0x00009ab8       0x40 build/LAN9255_SQI_INDIRECT_MODE/production/_ext/1827571544/plib_systick.o
                0x00009ab8                SYSTICK_TimerInitialize

.text.ICache_Enable%180
                0x00009af8       0x40
 .text.ICache_Enable
                0x00009af8       0x40 build/LAN9255_SQI_INDIRECT_MODE/production/_ext/1171490990/startup_xc32.o

.rodata.aName0x10F1%181
                0x00009b38       0x40
 .rodata.aName0x10F1
                0x00009b38       0x40 build/LAN9255_SQI_INDIRECT_MODE/production/_ext/108134065/coeappl.o
                0x00009b38                aName0x10F1

.text.COE_ClearObjDictionary%182
                0x00009b78       0x40
 .text.COE_ClearObjDictionary
                0x00009b78       0x40 build/LAN9255_SQI_INDIRECT_MODE/production/_ext/108134065/coeappl.o
                0x00009b78                COE_ClearObjDictionary

.text.__NVIC_EnableIRQ%183
                0x00009bb8       0x3c
 .text.__NVIC_EnableIRQ
                0x00009bb8       0x3c build/LAN9255_SQI_INDIRECT_MODE/production/_ext/1865468468/plib_nvic.o

.text.QSPI_Initialize%184
                0x00009bf4       0x3c
 .text.QSPI_Initialize
                0x00009bf4       0x3c build/LAN9255_SQI_INDIRECT_MODE/production/_ext/1865555181/plib_qspi.o
                0x00009bf4                QSPI_Initialize

.rodata.aName0x1018%185
                0x00009c30       0x3c
 .rodata.aName0x1018
                0x00009c30       0x3c build/LAN9255_SQI_INDIRECT_MODE/production/_ext/108134065/coeappl.o
                0x00009c30                aName0x1018

.text.ECAT_Application%186
                0x00009c6c       0x3c
 .text.ECAT_Application
                0x00009c6c       0x3c build/LAN9255_SQI_INDIRECT_MODE/production/_ext/108134065/ecatappl.o
                0x00009c6c                ECAT_Application

.text.SQI_SetConfiguration%187
                0x00009ca8       0x3a
 .text.SQI_SetConfiguration
                0x00009ca8       0x3a build/LAN9255_SQI_INDIRECT_MODE/production/_ext/1671622016/Drivers.o
                0x00009ca8                SQI_SetConfiguration

.text.APP_RunApplication%188
                0x00009ce2       0x3a
 .text.APP_RunApplication
                0x00009ce2       0x3a build/LAN9255_SQI_INDIRECT_MODE/production/_ext/1360937237/app.o

.text.PORT_PinSet%189
                0x00009d1c       0x38
 .text.PORT_PinSet
                0x00009d1c       0x38 build/LAN9255_SQI_INDIRECT_MODE/production/_ext/1671622016/Drivers.o

.text.PORT_PinClear%190
                0x00009d54       0x38
 .text.PORT_PinClear
                0x00009d54       0x38 build/LAN9255_SQI_INDIRECT_MODE/production/_ext/1671622016/Drivers.o

.text.PORT_PinOutputEnable%191
                0x00009d8c       0x38
 .text.PORT_PinOutputEnable
                0x00009d8c       0x38 build/LAN9255_SQI_INDIRECT_MODE/production/_ext/1671622016/Drivers.o

.text.PORT_PinSet%192
                0x00009dc4       0x38
 .text.PORT_PinSet
                0x00009dc4       0x38 build/LAN9255_SQI_INDIRECT_MODE/production/_ext/108147519/LAN925x.o

.text.PORT_PinClear%193
                0x00009dfc       0x38
 .text.PORT_PinClear
                0x00009dfc       0x38 build/LAN9255_SQI_INDIRECT_MODE/production/_ext/108147519/LAN925x.o

.text.FOE_Write%194
                0x00009e34       0x38
 .text.FOE_Write
                0x00009e34       0x38 build/LAN9255_SQI_INDIRECT_MODE/production/_ext/108134065/foeappl.o
                0x00009e34                FOE_Write

.text.FOE_Ack%195
                0x00009e6c       0x38
 .text.FOE_Ack  0x00009e6c       0x38 build/LAN9255_SQI_INDIRECT_MODE/production/_ext/108134065/foeappl.o
                0x00009e6c                FOE_Ack

.text.PORT_PinSet%196
                0x00009ea4       0x38
 .text.PORT_PinSet
                0x00009ea4       0x38 build/LAN9255_SQI_INDIRECT_MODE/production/_ext/108134065/sample_app.o

.text.PORT_PinClear%197
                0x00009edc       0x38
 .text.PORT_PinClear
                0x00009edc       0x38 build/LAN9255_SQI_INDIRECT_MODE/production/_ext/108134065/sample_app.o

.text.OBJ_GetObjectHandle%198
                0x00009f14       0x36
 .text.OBJ_GetObjectHandle
                0x00009f14       0x36 build/LAN9255_SQI_INDIRECT_MODE/production/_ext/108134065/objdef.o
                0x00009f14                OBJ_GetObjectHandle

.text.NVMCTRL_BlockErase%199
                0x00009f4c       0x34
 .text.NVMCTRL_BlockErase
                0x00009f4c       0x34 build/LAN9255_SQI_INDIRECT_MODE/production/_ext/1593096446/plib_nvmctrl.o
                0x00009f4c                NVMCTRL_BlockErase

.text.qspi_memcpy_32bit%200
                0x00009f80       0x34
 .text.qspi_memcpy_32bit
                0x00009f80       0x34 build/LAN9255_SQI_INDIRECT_MODE/production/_ext/1865555181/plib_qspi.o

.text.qspi_memcpy_8bit%201
                0x00009fb4       0x34
 .text.qspi_memcpy_8bit
                0x00009fb4       0x34 build/LAN9255_SQI_INDIRECT_MODE/production/_ext/1865555181/plib_qspi.o

.text.SYS_Initialize%202
                0x00009fe8       0x34
 .text.SYS_Initialize
                0x00009fe8       0x34 build/LAN9255_SQI_INDIRECT_MODE/production/_ext/1171490990/initialization.o
                0x00009fe8                SYS_Initialize

.text.APPL_OutputMapping%203
                0x0000a01c       0x34
 .text.APPL_OutputMapping
                0x0000a01c       0x34 build/LAN9255_SQI_INDIRECT_MODE/production/_ext/108134065/sample_app.o
                0x0000a01c                APPL_OutputMapping

.text.FOE_ContinueInd%204
                0x0000a050       0x30
 .text.FOE_ContinueInd
                0x0000a050       0x30 build/LAN9255_SQI_INDIRECT_MODE/production/_ext/108134065/ecatfoe.o
                0x0000a050                FOE_ContinueInd

.text.GetSyncMan%205
                0x0000a080       0x30
 .text.GetSyncMan
                0x0000a080       0x30 build/LAN9255_SQI_INDIRECT_MODE/production/_ext/108134065/ecatslv.o
                0x0000a080                GetSyncMan

.text.GCLK1_Initialize%206
                0x0000a0b0       0x2c
 .text.GCLK1_Initialize
                0x0000a0b0       0x2c build/LAN9255_SQI_INDIRECT_MODE/production/_ext/1984496892/plib_clock.o

.text.EIC_EXTINT_0_InterruptHandler%207
                0x0000a0dc       0x2c
 .text.EIC_EXTINT_0_InterruptHandler
                0x0000a0dc       0x2c build/LAN9255_SQI_INDIRECT_MODE/production/_ext/60167341/plib_eic.o
                0x0000a0dc                EIC_EXTINT_0_InterruptHandler

.text.EIC_EXTINT_1_InterruptHandler%208
                0x0000a108       0x2c
 .text.EIC_EXTINT_1_InterruptHandler
                0x0000a108       0x2c build/LAN9255_SQI_INDIRECT_MODE/production/_ext/60167341/plib_eic.o
                0x0000a108                EIC_EXTINT_1_InterruptHandler

.text.EIC_EXTINT_7_InterruptHandler%209
                0x0000a134       0x2c
 .text.EIC_EXTINT_7_InterruptHandler
                0x0000a134       0x2c build/LAN9255_SQI_INDIRECT_MODE/production/_ext/60167341/plib_eic.o
                0x0000a134                EIC_EXTINT_7_InterruptHandler

.text.SysTick_Handler%210
                0x0000a160       0x2c
 .text.SysTick_Handler
                0x0000a160       0x2c build/LAN9255_SQI_INDIRECT_MODE/production/_ext/1827571544/plib_systick.o
                0x0000a160                SysTick_Handler

.text.SQI_EnableQuadMode%211
                0x0000a18c       0x2c
 .text.SQI_EnableQuadMode
                0x0000a18c       0x2c build/LAN9255_SQI_INDIRECT_MODE/production/_ext/1671622016/Drivers.o
                0x0000a18c                SQI_EnableQuadMode

.text.SQI_DisableQuadMode%212
                0x0000a1b8       0x2c
 .text.SQI_DisableQuadMode
                0x0000a1b8       0x2c build/LAN9255_SQI_INDIRECT_MODE/production/_ext/1671622016/Drivers.o
                0x0000a1b8                SQI_DisableQuadMode

.rodata.aName0x1601%213
                0x0000a1e4       0x2c
 .rodata.aName0x1601
                0x0000a1e4       0x2c build/LAN9255_SQI_INDIRECT_MODE/production/_ext/108134065/coeappl.o
                0x0000a1e4                aName0x1601

.rodata.aName0x1A00%214
                0x0000a210       0x2c
 .rodata.aName0x1A00
                0x0000a210       0x2c build/LAN9255_SQI_INDIRECT_MODE/production/_ext/108134065/coeappl.o
                0x0000a210                aName0x1A00

.text.FOE_Init%215
                0x0000a23c       0x2c
 .text.FOE_Init
                0x0000a23c       0x2c build/LAN9255_SQI_INDIRECT_MODE/production/_ext/108134065/ecatfoe.o
                0x0000a23c                FOE_Init

.text.Emulation_Init%216
                0x0000a268       0x2c
 .text.Emulation_Init
                0x0000a268       0x2c build/LAN9255_SQI_INDIRECT_MODE/production/_ext/108134065/sample_app.o
                0x0000a268                Emulation_Init

.text.APPL_InputMapping%217
                0x0000a294       0x2c
 .text.APPL_InputMapping
                0x0000a294       0x2c build/LAN9255_SQI_INDIRECT_MODE/production/_ext/108134065/sample_app.o
                0x0000a294                APPL_InputMapping

.text._sbrk%218
                0x0000a2c0       0x2c
 .text._sbrk    0x0000a2c0       0x2c c:/program files/microchip/xc32/v2.40/bin/bin/../../lib/gcc/pic32c/6.2.1/../../../../pic32c/lib/v7e-m/fpv4-sp/hard\libpic32c.a(sbrk.o)
                0x0000a2c0                _sbrk

.text.OSCCTRL_Initialize%219
                0x0000a2ec       0x28
 .text.OSCCTRL_Initialize
                0x0000a2ec       0x28 build/LAN9255_SQI_INDIRECT_MODE/production/_ext/1984496892/plib_clock.o

.text.NVMCTRL_IsBusy%220
                0x0000a314       0x28
 .text.NVMCTRL_IsBusy
                0x0000a314       0x28 build/LAN9255_SQI_INDIRECT_MODE/production/_ext/1593096446/plib_nvmctrl.o
                0x0000a314                NVMCTRL_IsBusy

.text.SYSTICK_TimerCallbackSet%221
                0x0000a33c       0x28
 .text.SYSTICK_TimerCallbackSet
                0x0000a33c       0x28 build/LAN9255_SQI_INDIRECT_MODE/production/_ext/1827571544/plib_systick.o
                0x0000a33c                SYSTICK_TimerCallbackSet

.text.ESC_IRQ_cb%222
                0x0000a364       0x28
 .text.ESC_IRQ_cb
                0x0000a364       0x28 build/LAN9255_SQI_INDIRECT_MODE/production/_ext/1671622016/Drivers.o
                0x0000a364                ESC_IRQ_cb

.text.APP_FW_StateBOOTtoINIT%223
                0x0000a38c       0x28
 .text.APP_FW_StateBOOTtoINIT
                0x0000a38c       0x28 build/LAN9255_SQI_INDIRECT_MODE/production/_ext/108134065/sample_app.o
                0x0000a38c                APP_FW_StateBOOTtoINIT

.text.NVMCTRL_StatusGet%224
                0x0000a3b4       0x24
 .text.NVMCTRL_StatusGet
                0x0000a3b4       0x24 build/LAN9255_SQI_INDIRECT_MODE/production/_ext/1593096446/plib_nvmctrl.o
                0x0000a3b4                NVMCTRL_StatusGet

.text.SYSTICK_TimerStart%225
                0x0000a3d8       0x24
 .text.SYSTICK_TimerStart
                0x0000a3d8       0x24 build/LAN9255_SQI_INDIRECT_MODE/production/_ext/1827571544/plib_systick.o
                0x0000a3d8                SYSTICK_TimerStart

.text.TCM_Configure%226
                0x0000a3fc       0x24
 .text.TCM_Configure
                0x0000a3fc       0x24 build/LAN9255_SQI_INDIRECT_MODE/production/_ext/1171490990/startup_xc32.o

.text.PDI_Init_SYNC_Interrupts%227
                0x0000a420       0x24
 .text.PDI_Init_SYNC_Interrupts
                0x0000a420       0x24 build/LAN9255_SQI_INDIRECT_MODE/production/_ext/108147519/ESC_Utils.o
                0x0000a420                PDI_Init_SYNC_Interrupts

.text.COE_Init%228
                0x0000a444       0x24
 .text.COE_Init
                0x0000a444       0x24 build/LAN9255_SQI_INDIRECT_MODE/production/_ext/108134065/ecatcoe.o
                0x0000a444                COE_Init

.text.StopOutputHandler%229
                0x0000a468       0x24
 .text.StopOutputHandler
                0x0000a468       0x24 build/LAN9255_SQI_INDIRECT_MODE/production/_ext/108134065/ecatslv.o
                0x0000a468                StopOutputHandler

.text.EMCY_IsQueueEmpty%230
                0x0000a48c       0x24
 .text.EMCY_IsQueueEmpty
                0x0000a48c       0x24 build/LAN9255_SQI_INDIRECT_MODE/production/_ext/108134065/emcy.o
                0x0000a48c                EMCY_IsQueueEmpty

.text.FOE_Error%231
                0x0000a4b0       0x24
 .text.FOE_Error
                0x0000a4b0       0x24 build/LAN9255_SQI_INDIRECT_MODE/production/_ext/108134065/foeappl.o
                0x0000a4b0                FOE_Error

.text.APP_BankSwitch%232
                0x0000a4d4       0x24
 .text.APP_BankSwitch
                0x0000a4d4       0x24 build/LAN9255_SQI_INDIRECT_MODE/production/_ext/1360937237/app.o

.text.NVMCTRL_Read%233
                0x0000a4f8       0x22
 .text.NVMCTRL_Read
                0x0000a4f8       0x22 build/LAN9255_SQI_INDIRECT_MODE/production/_ext/1593096446/plib_nvmctrl.o
                0x0000a4f8                NVMCTRL_Read

.text.EMCY_ContinueInd%234
                0x0000a51a       0x22
 .text.EMCY_ContinueInd
                0x0000a51a       0x22 build/LAN9255_SQI_INDIRECT_MODE/production/_ext/108134065/emcy.o
                0x0000a51a                EMCY_ContinueInd

.rodata.asEntryDesc0x1018%235
                0x0000a53c       0x20
 .rodata.asEntryDesc0x1018
                0x0000a53c       0x20 build/LAN9255_SQI_INDIRECT_MODE/production/_ext/108134065/coeappl.o
                0x0000a53c                asEntryDesc0x1018

.text.FOE_Busy%236
                0x0000a55c       0x20
 .text.FOE_Busy
                0x0000a55c       0x20 build/LAN9255_SQI_INDIRECT_MODE/production/_ext/108134065/foeappl.o
                0x0000a55c                FOE_Busy

.rodata.cBitMask%237
                0x0000a57c       0x20
 .rodata.cBitMask
                0x0000a57c       0x20 build/LAN9255_SQI_INDIRECT_MODE/production/_ext/108134065/objdef.o
                0x0000a57c                cBitMask

.text._sbrk_r%238
                0x0000a59c       0x20
 .text._sbrk_r  0x0000a59c       0x20 c:/program files/microchip/xc32/v2.40/bin/bin/../../lib/gcc/pic32c/6.2.1/../../../../pic32c/lib/v7e-m/fpv4-sp/hard\libc_nano.a(lib_a-sbrkr.o)
                0x0000a59c                _sbrk_r

.text.NVMCTRL_Initialize%239
                0x0000a5bc       0x1c
 .text.NVMCTRL_Initialize
                0x0000a5bc       0x1c build/LAN9255_SQI_INDIRECT_MODE/production/_ext/1593096446/plib_nvmctrl.o
                0x0000a5bc                NVMCTRL_Initialize

.text.NVMCTRL_BankSwap%240
                0x0000a5d8       0x1c
 .text.NVMCTRL_BankSwap
                0x0000a5d8       0x1c build/LAN9255_SQI_INDIRECT_MODE/production/_ext/1593096446/plib_nvmctrl.o
                0x0000a5d8                NVMCTRL_BankSwap

.text.PORT_GroupSet%241
                0x0000a5f4       0x1c
 .text.PORT_GroupSet
                0x0000a5f4       0x1c build/LAN9255_SQI_INDIRECT_MODE/production/_ext/1865521619/plib_port.o
                0x0000a5f4                PORT_GroupSet

.text.PORT_GroupClear%242
                0x0000a610       0x1c
 .text.PORT_GroupClear
                0x0000a610       0x1c build/LAN9255_SQI_INDIRECT_MODE/production/_ext/1865521619/plib_port.o
                0x0000a610                PORT_GroupClear

.text.PORT_GroupOutputEnable%243
                0x0000a62c       0x1c
 .text.PORT_GroupOutputEnable
                0x0000a62c       0x1c build/LAN9255_SQI_INDIRECT_MODE/production/_ext/1865521619/plib_port.o
                0x0000a62c                PORT_GroupOutputEnable

.text.qspi_end_transfer%244
                0x0000a648       0x1c
 .text.qspi_end_transfer
                0x0000a648       0x1c build/LAN9255_SQI_INDIRECT_MODE/production/_ext/1865555181/plib_qspi.o

.text.CRITICAL_SECTION_ENTER%245
                0x0000a664       0x1c
 .text.CRITICAL_SECTION_ENTER
                0x0000a664       0x1c build/LAN9255_SQI_INDIRECT_MODE/production/_ext/1671622016/Drivers.o
                0x0000a664                CRITICAL_SECTION_ENTER

.text.CRITICAL_SECTION_LEAVE%246
                0x0000a680       0x1c
 .text.CRITICAL_SECTION_LEAVE
                0x0000a680       0x1c build/LAN9255_SQI_INDIRECT_MODE/production/_ext/1671622016/Drivers.o
                0x0000a680                CRITICAL_SECTION_LEAVE

.text.ECAT_SysTick_Handler%247
                0x0000a69c       0x1c
 .text.ECAT_SysTick_Handler
                0x0000a69c       0x1c build/LAN9255_SQI_INDIRECT_MODE/production/_ext/1671622016/Drivers.o
                0x0000a69c                ECAT_SysTick_Handler

.rodata.aName0x1C12%248
                0x0000a6b8       0x1c
 .rodata.aName0x1C12
                0x0000a6b8       0x1c build/LAN9255_SQI_INDIRECT_MODE/production/_ext/108134065/coeappl.o
                0x0000a6b8                aName0x1C12

.rodata.aName0x1C13%249
                0x0000a6d4       0x1c
 .rodata.aName0x1C13
                0x0000a6d4       0x1c build/LAN9255_SQI_INDIRECT_MODE/production/_ext/108134065/coeappl.o
                0x0000a6d4                aName0x1C13

.text.OSC32KCTRL_Initialize%250
                0x0000a6f0       0x18
 .text.OSC32KCTRL_Initialize
                0x0000a6f0       0x18 build/LAN9255_SQI_INDIRECT_MODE/production/_ext/1984496892/plib_clock.o

.text.PORT_GroupRead%251
                0x0000a708       0x18
 .text.PORT_GroupRead
                0x0000a708       0x18 build/LAN9255_SQI_INDIRECT_MODE/production/_ext/1865521619/plib_port.o
                0x0000a708                PORT_GroupRead

.text.PDI_Init_SYSTick_Interrupt%252
                0x0000a720       0x18
 .text.PDI_Init_SYSTick_Interrupt
                0x0000a720       0x18 build/LAN9255_SQI_INDIRECT_MODE/production/_ext/1671622016/Drivers.o

.text.PDI_IRQ_Interrupt%253
                0x0000a738       0x18
 .text.PDI_IRQ_Interrupt
                0x0000a738       0x18 build/LAN9255_SQI_INDIRECT_MODE/production/_ext/108147519/ESC_Utils.o
                0x0000a738                PDI_IRQ_Interrupt

.rodata.aName0x7010%254
                0x0000a750       0x18
 .rodata.aName0x7010
                0x0000a750       0x18 build/LAN9255_SQI_INDIRECT_MODE/production/_ext/108134065/coeappl.o
                0x0000a750                aName0x7010

.text.COE_GetObjectDictionary%255
                0x0000a768       0x18
 .text.COE_GetObjectDictionary
                0x0000a768       0x18 build/LAN9255_SQI_INDIRECT_MODE/production/_ext/108134065/coeappl.o
                0x0000a768                COE_GetObjectDictionary

.text.BackToInitTransition%256
                0x0000a780       0x18
 .text.BackToInitTransition
                0x0000a780       0x18 build/LAN9255_SQI_INDIRECT_MODE/production/_ext/108134065/ecatslv.o
                0x0000a780                BackToInitTransition

.text.OBJ_GetObjDesc%257
                0x0000a798       0x18
 .text.OBJ_GetObjDesc
                0x0000a798       0x18 build/LAN9255_SQI_INDIRECT_MODE/production/_ext/108134065/objdef.o
                0x0000a798                OBJ_GetObjDesc

.text.APP_FW_GetDownloadStateFinished%258
                0x0000a7b0       0x18
 .text.APP_FW_GetDownloadStateFinished
                0x0000a7b0       0x18 build/LAN9255_SQI_INDIRECT_MODE/production/_ext/108134065/sample_app.o
                0x0000a7b0                APP_FW_GetDownloadStateFinished

.text.APP_Initialize%259
                0x0000a7c8       0x18
 .text.APP_Initialize
                0x0000a7c8       0x18 build/LAN9255_SQI_INDIRECT_MODE/production/_ext/1360937237/app.o
                0x0000a7c8                APP_Initialize

.text.BL_Start%260
                0x0000a7e0       0x16
 .text.BL_Start
                0x0000a7e0       0x16 build/LAN9255_SQI_INDIRECT_MODE/production/_ext/108134065/bootmode.o
                0x0000a7e0                BL_Start

.text.EMCY_GetEmcyBuffer%261
                0x0000a7f6       0x16
 .text.EMCY_GetEmcyBuffer
                0x0000a7f6       0x16 build/LAN9255_SQI_INDIRECT_MODE/production/_ext/108134065/emcy.o
                0x0000a7f6                EMCY_GetEmcyBuffer

.text.APPL_AckErrorInd%262
                0x0000a80c       0x16
 .text.APPL_AckErrorInd
                0x0000a80c       0x16 build/LAN9255_SQI_INDIRECT_MODE/production/_ext/108134065/sample_app.o
                0x0000a80c                APPL_AckErrorInd

.text.APPL_StartInputHandler%263
                0x0000a822       0x16
 .text.APPL_StartInputHandler
                0x0000a822       0x16 build/LAN9255_SQI_INDIRECT_MODE/production/_ext/108134065/sample_app.o
                0x0000a822                APPL_StartInputHandler

.text.memcpy%264
                0x0000a838       0x16
 .text.memcpy   0x0000a838       0x16 c:/program files/microchip/xc32/v2.40/bin/bin/../../lib/gcc/pic32c/6.2.1/../../../../pic32c/lib/v7e-m/fpv4-sp/hard\libc_nano.a(lib_a-memcpy-stub.o)
                0x0000a838                memcpy

.text.ESC_Sync0_cb%265
                0x0000a84e       0x14
 .text.ESC_Sync0_cb
                0x0000a84e       0x14 build/LAN9255_SQI_INDIRECT_MODE/production/_ext/1671622016/Drivers.o
                0x0000a84e                ESC_Sync0_cb

.text.ESC_Sync1_cb%266
                0x0000a862       0x14
 .text.ESC_Sync1_cb
                0x0000a862       0x14 build/LAN9255_SQI_INDIRECT_MODE/production/_ext/1671622016/Drivers.o
                0x0000a862                ESC_Sync1_cb

.rodata.aName0x6000%267
                0x0000a878       0x14
 .rodata.aName0x6000
                0x0000a878       0x14 build/LAN9255_SQI_INDIRECT_MODE/production/_ext/108134065/coeappl.o
                0x0000a878                aName0x6000

.rodata.aName0x1009%268
                0x0000a88c       0x14
 .rodata.aName0x1009
                0x0000a88c       0x14 build/LAN9255_SQI_INDIRECT_MODE/production/_ext/108134065/coeappl.o
                0x0000a88c                aName0x1009

.rodata.aName0x100A%269
                0x0000a8a0       0x14
 .rodata.aName0x100A
                0x0000a8a0       0x14 build/LAN9255_SQI_INDIRECT_MODE/production/_ext/108134065/coeappl.o
                0x0000a8a0                aName0x100A

.rodata.asEntryDesc0x10F1%270
                0x0000a8b4       0x14
 .rodata.asEntryDesc0x10F1
                0x0000a8b4       0x14 build/LAN9255_SQI_INDIRECT_MODE/production/_ext/108134065/coeappl.o
                0x0000a8b4                asEntryDesc0x10F1

.rodata.aName0x10F8%271
                0x0000a8c8       0x14
 .rodata.aName0x10F8
                0x0000a8c8       0x14 build/LAN9255_SQI_INDIRECT_MODE/production/_ext/108134065/coeappl.o
                0x0000a8c8                aName0x10F8

.rodata.aName0x1C00%272
                0x0000a8dc       0x14
 .rodata.aName0x1C00
                0x0000a8dc       0x14 build/LAN9255_SQI_INDIRECT_MODE/production/_ext/108134065/coeappl.o
                0x0000a8dc                aName0x1C00

.rodata.aName0x1001%273
                0x0000a8f0       0x10
 .rodata.aName0x1001
                0x0000a8f0       0x10 build/LAN9255_SQI_INDIRECT_MODE/production/_ext/108134065/coeappl.o
                0x0000a8f0                aName0x1001

.text.APPL_StartMailboxHandler%274
                0x0000a900       0x10
 .text.APPL_StartMailboxHandler
                0x0000a900       0x10 build/LAN9255_SQI_INDIRECT_MODE/production/_ext/108134065/sample_app.o
                0x0000a900                APPL_StartMailboxHandler

.text.APPL_StopInputHandler%275
                0x0000a910       0x10
 .text.APPL_StopInputHandler
                0x0000a910       0x10 build/LAN9255_SQI_INDIRECT_MODE/production/_ext/108134065/sample_app.o
                0x0000a910                APPL_StopInputHandler

.text.APPL_StartOutputHandler%276
                0x0000a920       0x10
 .text.APPL_StartOutputHandler
                0x0000a920       0x10 build/LAN9255_SQI_INDIRECT_MODE/production/_ext/108134065/sample_app.o
                0x0000a920                APPL_StartOutputHandler

.text.APPL_StopOutputHandler%277
                0x0000a930       0x10
 .text.APPL_StopOutputHandler
                0x0000a930       0x10 build/LAN9255_SQI_INDIRECT_MODE/production/_ext/108134065/sample_app.o
                0x0000a930                APPL_StopOutputHandler

.text.main%278  0x0000a940       0x10
 .text.main     0x0000a940       0x10 build/LAN9255_SQI_INDIRECT_MODE/production/_ext/1360937237/main.o
                0x0000a940                main

.text.malloc%279
                0x0000a950       0x10
 .text.malloc   0x0000a950       0x10 c:/program files/microchip/xc32/v2.40/bin/bin/../../lib/gcc/pic32c/6.2.1/../../../../pic32c/lib/v7e-m/fpv4-sp/hard\libc_nano.a(lib_a-malloc.o)
                0x0000a950                malloc

.text.free%280  0x0000a960       0x10
 .text.free     0x0000a960       0x10 c:/program files/microchip/xc32/v2.40/bin/bin/../../lib/gcc/pic32c/6.2.1/../../../../pic32c/lib/v7e-m/fpv4-sp/hard\libc_nano.a(lib_a-malloc.o)
                0x0000a960                free

.text.memset%281
                0x0000a970       0x10
 .text.memset   0x0000a970       0x10 c:/program files/microchip/xc32/v2.40/bin/bin/../../lib/gcc/pic32c/6.2.1/../../../../pic32c/lib/v7e-m/fpv4-sp/hard\libc_nano.a(lib_a-memset.o)
                0x0000a970                memset

.text%282       0x0000a980       0x10
 .text          0x0000a980       0x10 c:/program files/microchip/xc32/v2.40/bin/bin/../../lib/gcc/pic32c/6.2.1/../../../../pic32c/lib/v7e-m/fpv4-sp/hard\libc_nano.a(lib_a-strlen.o)
                0x0000a980                strlen

.text.DFLL_Initialize%283
                0x0000a990        0xe
 .text.DFLL_Initialize
                0x0000a990        0xe build/LAN9255_SQI_INDIRECT_MODE/production/_ext/1984496892/plib_clock.o

.text.EVSYS_Initialize%284
                0x0000a99e        0xe
 .text.EVSYS_Initialize
                0x0000a99e        0xe build/LAN9255_SQI_INDIRECT_MODE/production/_ext/1986646378/plib_evsys.o
                0x0000a99e                EVSYS_Initialize

.text.BL_Stop%285
                0x0000a9ac        0xe
 .text.BL_Stop  0x0000a9ac        0xe build/LAN9255_SQI_INDIRECT_MODE/production/_ext/108134065/bootmode.o
                0x0000a9ac                BL_Stop

.text.APPL_StopMailboxHandler%286
                0x0000a9ba        0xe
 .text.APPL_StopMailboxHandler
                0x0000a9ba        0xe build/LAN9255_SQI_INDIRECT_MODE/production/_ext/108134065/sample_app.o
                0x0000a9ba                APPL_StopMailboxHandler

.text.APPL_Application%287
                0x0000a9c8        0xe
 .text.APPL_Application
                0x0000a9c8        0xe build/LAN9255_SQI_INDIRECT_MODE/production/_ext/108134065/sample_app.o
                0x0000a9c8                APPL_Application

.text.SYS_Tasks%288
                0x0000a9d6        0xc
 .text.SYS_Tasks
                0x0000a9d6        0xc build/LAN9255_SQI_INDIRECT_MODE/production/_ext/1171490990/tasks.o
                0x0000a9d6                SYS_Tasks

.text.PDI_Timer_Interrupt%289
                0x0000a9e2        0xc
 .text.PDI_Timer_Interrupt
                0x0000a9e2        0xc build/LAN9255_SQI_INDIRECT_MODE/production/_ext/1671622016/Drivers.o
                0x0000a9e2                PDI_Timer_Interrupt

.text.ESC_Init%290
                0x0000a9ee        0xc
 .text.ESC_Init
                0x0000a9ee        0xc build/LAN9255_SQI_INDIRECT_MODE/production/_ext/108147519/ESC_Utils.o
                0x0000a9ee                ESC_Init

.rodata.asEntryDesc0x1601%291
                0x0000a9fc        0xc
 .rodata.asEntryDesc0x1601
                0x0000a9fc        0xc build/LAN9255_SQI_INDIRECT_MODE/production/_ext/108134065/coeappl.o
                0x0000a9fc                asEntryDesc0x1601

.rodata.asEntryDesc0x1A00%292
                0x0000aa08        0xc
 .rodata.asEntryDesc0x1A00
                0x0000aa08        0xc build/LAN9255_SQI_INDIRECT_MODE/production/_ext/108134065/coeappl.o
                0x0000aa08                asEntryDesc0x1A00

.rodata.asEntryDesc0x1C12%293
                0x0000aa14        0xc
 .rodata.asEntryDesc0x1C12
                0x0000aa14        0xc build/LAN9255_SQI_INDIRECT_MODE/production/_ext/108134065/coeappl.o
                0x0000aa14                asEntryDesc0x1C12

.rodata.asEntryDesc0x1C13%294
                0x0000aa20        0xc
 .rodata.asEntryDesc0x1C13
                0x0000aa20        0xc build/LAN9255_SQI_INDIRECT_MODE/production/_ext/108134065/coeappl.o
                0x0000aa20                asEntryDesc0x1C13

.rodata.asEntryDesc0x6000%295
                0x0000aa2c        0xc
 .rodata.asEntryDesc0x6000
                0x0000aa2c        0xc build/LAN9255_SQI_INDIRECT_MODE/production/_ext/108134065/coeappl.o
                0x0000aa2c                asEntryDesc0x6000

.rodata.asEntryDesc0x7010%296
                0x0000aa38        0xc
 .rodata.asEntryDesc0x7010
                0x0000aa38        0xc build/LAN9255_SQI_INDIRECT_MODE/production/_ext/108134065/coeappl.o
                0x0000aa38                asEntryDesc0x7010

.rodata.aName0x1000%297
                0x0000aa44        0xc
 .rodata.aName0x1000
                0x0000aa44        0xc build/LAN9255_SQI_INDIRECT_MODE/production/_ext/108134065/coeappl.o
                0x0000aa44                aName0x1000

.rodata.aName0x1008%298
                0x0000aa50        0xc
 .rodata.aName0x1008
                0x0000aa50        0xc build/LAN9255_SQI_INDIRECT_MODE/production/_ext/108134065/coeappl.o
                0x0000aa50                aName0x1008

.rodata.asEntryDesc0x1C00%299
                0x0000aa5c        0xc
 .rodata.asEntryDesc0x1C00
                0x0000aa5c        0xc build/LAN9255_SQI_INDIRECT_MODE/production/_ext/108134065/coeappl.o
                0x0000aa5c                asEntryDesc0x1C00

.rodata.sEntryDesc0x1000%300
                0x0000aa68        0x8
 .rodata.sEntryDesc0x1000
                0x0000aa68        0x8 build/LAN9255_SQI_INDIRECT_MODE/production/_ext/108134065/coeappl.o
                0x0000aa68                sEntryDesc0x1000

.rodata.sEntryDesc0x1001%301
                0x0000aa70        0x8
 .rodata.sEntryDesc0x1001
                0x0000aa70        0x8 build/LAN9255_SQI_INDIRECT_MODE/production/_ext/108134065/coeappl.o
                0x0000aa70                sEntryDesc0x1001

.rodata.sEntryDesc0x1008%302
                0x0000aa78        0x8
 .rodata.sEntryDesc0x1008
                0x0000aa78        0x8 build/LAN9255_SQI_INDIRECT_MODE/production/_ext/108134065/coeappl.o
                0x0000aa78                sEntryDesc0x1008

.rodata.sEntryDesc0x1009%303
                0x0000aa80        0x8
 .rodata.sEntryDesc0x1009
                0x0000aa80        0x8 build/LAN9255_SQI_INDIRECT_MODE/production/_ext/108134065/coeappl.o
                0x0000aa80                sEntryDesc0x1009

.rodata.sEntryDesc0x100A%304
                0x0000aa88        0x8
 .rodata.sEntryDesc0x100A
                0x0000aa88        0x8 build/LAN9255_SQI_INDIRECT_MODE/production/_ext/108134065/coeappl.o
                0x0000aa88                sEntryDesc0x100A

.rodata.sEntryDesc0x10F8%305
                0x0000aa90        0x8
 .rodata.sEntryDesc0x10F8
                0x0000aa90        0x8 build/LAN9255_SQI_INDIRECT_MODE/production/_ext/108134065/coeappl.o
                0x0000aa90                sEntryDesc0x10F8

.rodata.acEmcyCoeHeader%306
                0x0000aa98        0x8
 .rodata.acEmcyCoeHeader
                0x0000aa98        0x8 build/LAN9255_SQI_INDIRECT_MODE/production/_ext/108134065/emcy.o
                0x0000aa98                acEmcyCoeHeader

.text.NonMaskableInt_Handler%307
                0x0000aaa0        0x6
 .text.NonMaskableInt_Handler
                0x0000aaa0        0x6 build/LAN9255_SQI_INDIRECT_MODE/production/_ext/1171490990/exceptions.o
                0x0000aaa0                NonMaskableInt_Handler

.text.HardFault_Handler%308
                0x0000aaa6        0x6
 .text.HardFault_Handler
                0x0000aaa6        0x6 build/LAN9255_SQI_INDIRECT_MODE/production/_ext/1171490990/exceptions.o
                0x0000aaa6                HardFault_Handler

.text.DebugMonitor_Handler%309
                0x0000aaac        0x6
 .text.DebugMonitor_Handler
                0x0000aaac        0x6 build/LAN9255_SQI_INDIRECT_MODE/production/_ext/1171490990/exceptions.o
                0x0000aaac                DebugMonitor_Handler

.text.MemoryManagement_Handler%310
                0x0000aab2        0x6
 .text.MemoryManagement_Handler
                0x0000aab2        0x6 build/LAN9255_SQI_INDIRECT_MODE/production/_ext/1171490990/exceptions.o
                0x0000aab2                MemoryManagement_Handler

.text.BusFault_Handler%311
                0x0000aab8        0x6
 .text.BusFault_Handler
                0x0000aab8        0x6 build/LAN9255_SQI_INDIRECT_MODE/production/_ext/1171490990/exceptions.o
                0x0000aab8                BusFault_Handler

.text.UsageFault_Handler%312
                0x0000aabe        0x6
 .text.UsageFault_Handler
                0x0000aabe        0x6 build/LAN9255_SQI_INDIRECT_MODE/production/_ext/1171490990/exceptions.o
                0x0000aabe                UsageFault_Handler

.rodata%313     0x0000aac4        0x4
 .rodata        0x0000aac4        0x4 build/LAN9255_SQI_INDIRECT_MODE/production/_ext/108134065/sample_app.o

.text.Dummy_Handler%314
                0x00006c86        0x2
 .text.Dummy_Handler
                0x00006c86        0x2 build/LAN9255_SQI_INDIRECT_MODE/production/_ext/1171490990/interrupts.o
                0x00006c86                EIC_EXTINT_9_Handler
                0x00006c86                TCC0_MC5_Handler
                0x00006c86                SVCall_Handler
                0x00006c86                SERCOM0_2_Handler
                0x00006c86                USB_SOF_HSOF_Handler
                0x00006c86                TCC4_OTHER_Handler
                0x00006c86                TCC2_MC2_Handler
                0x00006c86                EVSYS_0_Handler
                0x00006c86                TRNG_Handler
                0x00006c86                TC2_Handler
                0x00006c86                USB_TRCPT0_Handler
                0x00006c86                DAC_OTHER_Handler
                0x00006c86                AC_Handler
                0x00006c86                DAC_EMPTY_0_Handler
                0x00006c86                DMAC_OTHER_Handler
                0x00006c86                EIC_EXTINT_5_Handler
                0x00006c86                SERCOM3_1_Handler
                0x00006c86                SERCOM4_OTHER_Handler
                0x00006c86                SERCOM3_2_Handler
                0x00006c86                EIC_EXTINT_6_Handler
                0x00006c86                PendSV_Handler
                0x00006c86                TCC4_MC0_Handler
                0x00006c86                EVSYS_3_Handler
                0x00006c86                QSPI_Handler
                0x00006c86                TCC2_MC0_Handler
                0x00006c86                PDEC_OTHER_Handler
                0x00006c86                TCC3_MC0_Handler
                0x00006c86                PDEC_MC1_Handler
                0x00006c86                TCC2_MC1_Handler
                0x00006c86                OSCCTRL_XOSC1_Handler
                0x00006c86                PDEC_MC0_Handler
                0x00006c86                EIC_EXTINT_4_Handler
                0x00006c86                SERCOM0_OTHER_Handler
                0x00006c86                EVSYS_OTHER_Handler
                0x00006c86                SERCOM0_0_Handler
                0x00006c86                RTC_Handler
                0x00006c86                SERCOM4_0_Handler
                0x00006c86                TCC1_MC0_Handler
                0x00006c86                SERCOM1_OTHER_Handler
                0x00006c86                TCC2_OTHER_Handler
                0x00006c86                EIC_EXTINT_11_Handler
                0x00006c86                SUPC_BODDET_Handler
                0x00006c86                EIC_EXTINT_14_Handler
                0x00006c86                OSC32KCTRL_Handler
                0x00006c86                EVSYS_1_Handler
                0x00006c86                TCC4_MC1_Handler
                0x00006c86                DMAC_0_Handler
                0x00006c86                SUPC_OTHER_Handler
                0x00006c86                WDT_Handler
                0x00006c86                EIC_EXTINT_15_Handler
                0x00006c86                TCC3_MC1_Handler
                0x00006c86                SERCOM5_0_Handler
                0x00006c86                TC4_Handler
                0x00006c86                TC1_Handler
                0x00006c86                TCC1_MC1_Handler
                0x00006c86                TCC1_OTHER_Handler
                0x00006c86                PAC_Handler
                0x00006c86                SERCOM4_1_Handler
                0x00006c86                TC3_Handler
                0x00006c86                Dummy_Handler
                0x00006c86                DAC_RESRDY_0_Handler
                0x00006c86                SERCOM5_1_Handler
                0x00006c86                DMAC_2_Handler
                0x00006c86                TCC0_MC4_Handler
                0x00006c86                USB_TRCPT1_Handler
                0x00006c86                SERCOM0_1_Handler
                0x00006c86                TCC0_MC3_Handler
                0x00006c86                EIC_EXTINT_12_Handler
                0x00006c86                OSCCTRL_DPLL0_Handler
                0x00006c86                SERCOM5_OTHER_Handler
                0x00006c86                PM_Handler
                0x00006c86                OSCCTRL_DFLL_Handler
                0x00006c86                DAC_RESRDY_1_Handler
                0x00006c86                DMAC_1_Handler
                0x00006c86                USB_OTHER_Handler
                0x00006c86                TCC0_OTHER_Handler
                0x00006c86                EIC_EXTINT_10_Handler
                0x00006c86                TCC1_MC3_Handler
                0x00006c86                OSCCTRL_XOSC0_Handler
                0x00006c86                TCC0_MC0_Handler
                0x00006c86                EIC_EXTINT_2_Handler
                0x00006c86                SDHC0_Handler
                0x00006c86                SERCOM1_1_Handler
                0x00006c86                I2S_Handler
                0x00006c86                PCC_Handler
                0x00006c86                TCC3_OTHER_Handler
                0x00006c86                EIC_EXTINT_13_Handler
                0x00006c86                SERCOM1_0_Handler
                0x00006c86                PUKCC_Handler
                0x00006c86                SERCOM2_1_Handler
                0x00006c86                SERCOM1_2_Handler
                0x00006c86                SERCOM3_0_Handler
                0x00006c86                SERCOM4_2_Handler
                0x00006c86                TCC1_MC2_Handler
                0x00006c86                ADC1_RESRDY_Handler
                0x00006c86                NVMCTRL_1_Handler
                0x00006c86                SERCOM5_2_Handler
                0x00006c86                SERCOM2_2_Handler
                0x00006c86                DAC_EMPTY_1_Handler
                0x00006c86                ADC1_OTHER_Handler
                0x00006c86                OSCCTRL_DPLL1_Handler
                0x00006c86                EIC_EXTINT_3_Handler
                0x00006c86                SERCOM3_OTHER_Handler
                0x00006c86                EIC_EXTINT_8_Handler
                0x00006c86                NVMCTRL_0_Handler
                0x00006c86                ADC0_RESRDY_Handler
                0x00006c86                ADC0_OTHER_Handler
                0x00006c86                MCLK_Handler
                0x00006c86                EVSYS_2_Handler
                0x00006c86                SERCOM2_OTHER_Handler
                0x00006c86                FREQM_Handler
                0x00006c86                TC0_Handler
                0x00006c86                TCC0_MC1_Handler
                0x00006c86                DMAC_3_Handler
                0x00006c86                RAMECC_Handler
                0x00006c86                TC5_Handler
                0x00006c86                SERCOM2_0_Handler
                0x00006c86                AES_Handler
                0x00006c86                ICM_Handler
                0x00006c86                TCC0_MC2_Handler

.text.__malloc_lock%315
                0x00006f5a        0x2
 .text.__malloc_lock
                0x00006f5a        0x2 c:/program files/microchip/xc32/v2.40/bin/bin/../../lib/gcc/pic32c/6.2.1/../../../../pic32c/lib/v7e-m/fpv4-sp/hard\libc_nano.a(lib_a-mlock.o)
                0x00006f5a                __malloc_lock

.text.__malloc_unlock%316
                0x00007716        0x2
 .text.__malloc_unlock
                0x00007716        0x2 c:/program files/microchip/xc32/v2.40/bin/bin/../../lib/gcc/pic32c/6.2.1/../../../../pic32c/lib/v7e-m/fpv4-sp/hard\libc_nano.a(lib_a-mlock.o)
                0x00007716                __malloc_unlock
