Archive member included to satisfy reference by file (symbol)

c:/program files/microchip/xc32/v2.40/bin/bin/../../lib/gcc/pic32c/6.2.1/../../../../pic32c/lib/v7e-m/fpv4-sp/hard\libpic32c.a(data_init.o)
                              build/LAN9255_SQI_DIRECT_MODE/production/_ext/1171490990/startup_xc32.o (__pic32c_data_initialization)
c:/program files/microchip/xc32/v2.40/bin/bin/../../lib/gcc/pic32c/6.2.1/../../../../pic32c/lib/v7e-m/fpv4-sp/hard\libc_nano.a(lib_a-init.o)
                              build/LAN9255_SQI_DIRECT_MODE/production/_ext/1171490990/startup_xc32.o (__libc_init_array)
c:/program files/microchip/xc32/v2.40/bin/bin/../../lib/gcc/pic32c/6.2.1/../../../../pic32c/lib/v7e-m/fpv4-sp/hard\libc_nano.a(lib_a-malloc.o)
                              build/LAN9255_SQI_DIRECT_MODE/production/_ext/108134065/ecatcoe.o (malloc)
c:/program files/microchip/xc32/v2.40/bin/bin/../../lib/gcc/pic32c/6.2.1/../../../../pic32c/lib/v7e-m/fpv4-sp/hard\libc_nano.a(lib_a-memcpy-stub.o)
                              build/LAN9255_SQI_DIRECT_MODE/production/_ext/1593096446/plib_nvmctrl.o (memcpy)
c:/program files/microchip/xc32/v2.40/bin/bin/../../lib/gcc/pic32c/6.2.1/../../../../pic32c/lib/v7e-m/fpv4-sp/hard\libc_nano.a(lib_a-memset.o)
                              build/LAN9255_SQI_DIRECT_MODE/production/_ext/1671622016/Drivers.o (memset)
c:/program files/microchip/xc32/v2.40/bin/bin/../../lib/gcc/pic32c/6.2.1/../../../../pic32c/lib/v7e-m/fpv4-sp/hard\libc_nano.a(lib_a-nano-freer.o)
                              c:/program files/microchip/xc32/v2.40/bin/bin/../../lib/gcc/pic32c/6.2.1/../../../../pic32c/lib/v7e-m/fpv4-sp/hard\libc_nano.a(lib_a-malloc.o) (_free_r)
c:/program files/microchip/xc32/v2.40/bin/bin/../../lib/gcc/pic32c/6.2.1/../../../../pic32c/lib/v7e-m/fpv4-sp/hard\libc_nano.a(lib_a-nano-mallocr.o)
                              c:/program files/microchip/xc32/v2.40/bin/bin/../../lib/gcc/pic32c/6.2.1/../../../../pic32c/lib/v7e-m/fpv4-sp/hard\libc_nano.a(lib_a-malloc.o) (_malloc_r)
c:/program files/microchip/xc32/v2.40/bin/bin/../../lib/gcc/pic32c/6.2.1/../../../../pic32c/lib/v7e-m/fpv4-sp/hard\libc_nano.a(lib_a-sbrkr.o)
                              c:/program files/microchip/xc32/v2.40/bin/bin/../../lib/gcc/pic32c/6.2.1/../../../../pic32c/lib/v7e-m/fpv4-sp/hard\libc_nano.a(lib_a-nano-mallocr.o) (_sbrk_r)
c:/program files/microchip/xc32/v2.40/bin/bin/../../lib/gcc/pic32c/6.2.1/../../../../pic32c/lib/v7e-m/fpv4-sp/hard\libc_nano.a(lib_a-strlen.o)
                              build/LAN9255_SQI_DIRECT_MODE/production/_ext/108134065/objdef.o (strlen)
c:/program files/microchip/xc32/v2.40/bin/bin/../../lib/gcc/pic32c/6.2.1/../../../../pic32c/lib/v7e-m/fpv4-sp/hard\libc_nano.a(lib_a-impure.o)
                              c:/program files/microchip/xc32/v2.40/bin/bin/../../lib/gcc/pic32c/6.2.1/../../../../pic32c/lib/v7e-m/fpv4-sp/hard\libc_nano.a(lib_a-malloc.o) (_impure_ptr)
c:/program files/microchip/xc32/v2.40/bin/bin/../../lib/gcc/pic32c/6.2.1/../../../../pic32c/lib/v7e-m/fpv4-sp/hard\libc_nano.a(lib_a-mlock.o)
                              c:/program files/microchip/xc32/v2.40/bin/bin/../../lib/gcc/pic32c/6.2.1/../../../../pic32c/lib/v7e-m/fpv4-sp/hard\libc_nano.a(lib_a-nano-freer.o) (__malloc_lock)
c:/program files/microchip/xc32/v2.40/bin/bin/../../lib/gcc/pic32c/6.2.1/../../../../pic32c/lib/v7e-m/fpv4-sp/hard\libc_nano.a(lib_a-reent.o)
                              c:/program files/microchip/xc32/v2.40/bin/bin/../../lib/gcc/pic32c/6.2.1/../../../../pic32c/lib/v7e-m/fpv4-sp/hard\libc_nano.a(lib_a-sbrkr.o) (errno)
c:/program files/microchip/xc32/v2.40/bin/bin/../../lib/gcc/pic32c/6.2.1/../../../../pic32c/lib/v7e-m/fpv4-sp/hard\libpic32c.a(sbrk.o)
                              c:/program files/microchip/xc32/v2.40/bin/bin/../../lib/gcc/pic32c/6.2.1/../../../../pic32c/lib/v7e-m/fpv4-sp/hard\libc_nano.a(lib_a-sbrkr.o) (_sbrk)

Allocating common symbols
Common symbol       size              file

b3BufferMode        0x1               build/LAN9255_SQI_DIRECT_MODE/production/_ext/108134065/ecatslv.o
nEcatStateTrans     0x2               build/LAN9255_SQI_DIRECT_MODE/production/_ext/108134065/ecatslv.o
EcatWdCounter       0x2               build/LAN9255_SQI_DIRECT_MODE/production/_ext/108134065/ecatslv.o
sSendEmcyQueue      0x10              build/LAN9255_SQI_DIRECT_MODE/production/_ext/108134065/emcy.o
bApplEsmPending     0x1               build/LAN9255_SQI_DIRECT_MODE/production/_ext/108134065/ecatslv.o
pCoeSendStored      0x4               build/LAN9255_SQI_DIRECT_MODE/production/_ext/108134065/ecatcoe.o
pAPPL_EEPROM_Store  0x4               build/LAN9255_SQI_DIRECT_MODE/production/_ext/108134065/ecatappl.o
nSdoInfoIndex       0x2               build/LAN9255_SQI_DIRECT_MODE/production/_ext/108134065/sdoserv.o
pStoreData          0x4               build/LAN9255_SQI_DIRECT_MODE/production/_ext/108134065/sdoserv.o
u8MbxReadCounter    0x1               build/LAN9255_SQI_DIRECT_MODE/production/_ext/108134065/mailbox.o
nAlStatus           0x1               build/LAN9255_SQI_DIRECT_MODE/production/_ext/108134065/ecatslv.o
nPdOutputSize       0x2               build/LAN9255_SQI_DIRECT_MODE/production/_ext/108134065/ecatslv.o
u32FileOffset       0x4               build/LAN9255_SQI_DIRECT_MODE/production/_ext/108134065/ecatfoe.o
u16LocalErrorCode   0x2               build/LAN9255_SQI_DIRECT_MODE/production/_ext/108134065/ecatslv.o
nSdoSegBytesToHandle
                    0x4               build/LAN9255_SQI_DIRECT_MODE/production/_ext/108134065/sdoserv.o
errno               0x4               c:/program files/microchip/xc32/v2.40/bin/bin/../../lib/gcc/pic32c/6.2.1/../../../../pic32c/lib/v7e-m/fpv4-sp/hard\libc_nano.a(lib_a-reent.o)
sMbxSendQueue       0x34              build/LAN9255_SQI_DIRECT_MODE/production/_ext/108134065/mailbox.o
gEscALEvent         0x2               build/LAN9255_SQI_DIRECT_MODE/production/_ext/108147519/LAN925x.o
sMbxReceiveQueue    0x34              build/LAN9255_SQI_DIRECT_MODE/production/_ext/108134065/mailbox.o
bNoMbxMemoryAvailable
                    0x1               build/LAN9255_SQI_DIRECT_MODE/production/_ext/108134065/mailbox.o
u16FileAccessState  0x2               build/LAN9255_SQI_DIRECT_MODE/production/_ext/108134065/ecatfoe.o
Sync0WdCounter      0x2               build/LAN9255_SQI_DIRECT_MODE/production/_ext/108134065/ecatslv.o
u32PacketNo         0x4               build/LAN9255_SQI_DIRECT_MODE/production/_ext/108134065/ecatfoe.o
bMinCycleTimeMeasurementStarted
                    0x1               build/LAN9255_SQI_DIRECT_MODE/production/_ext/108134065/ecatappl.o
bLocalErrorFlag     0x1               build/LAN9255_SQI_DIRECT_MODE/production/_ext/108134065/ecatslv.o
bSendMbxIsFull      0x1               build/LAN9255_SQI_DIRECT_MODE/production/_ext/108134065/mailbox.o
u32CycleTimeStartValue
                    0x4               build/LAN9255_SQI_DIRECT_MODE/production/_ext/108134065/ecatappl.o
LatchInputSync0Counter
                    0x2               build/LAN9255_SQI_DIRECT_MODE/production/_ext/108134065/ecatslv.o
i16WaitForPllRunningCnt
                    0x2               build/LAN9255_SQI_DIRECT_MODE/production/_ext/108134065/ecatslv.o
nEscAddrOutputData  0x2               build/LAN9255_SQI_DIRECT_MODE/production/_ext/108134065/ecatslv.o
bMbxRunning         0x1               build/LAN9255_SQI_DIRECT_MODE/production/_ext/108134065/mailbox.o
aFileData           0x2000            build/LAN9255_SQI_DIRECT_MODE/production/_ext/108134065/sample_app.o
Sync0WdValue        0x2               build/LAN9255_SQI_DIRECT_MODE/production/_ext/108134065/ecatslv.o
u8EcatRunLed        0x1               build/LAN9255_SQI_DIRECT_MODE/production/_ext/108134065/ecatslv.o
i16WaitForPllRunningTimeout
                    0x2               build/LAN9255_SQI_DIRECT_MODE/production/_ext/108134065/ecatslv.o
bSdoSegAccess       0x1               build/LAN9255_SQI_DIRECT_MODE/production/_ext/108134065/sdoserv.o
pAPPL_EEPROM_Read   0x4               build/LAN9255_SQI_DIRECT_MODE/production/_ext/108134065/ecatappl.o
Sync1WdValue        0x2               build/LAN9255_SQI_DIRECT_MODE/production/_ext/108134065/ecatslv.o
pAPPL_EEPROM_Write  0x4               build/LAN9255_SQI_DIRECT_MODE/production/_ext/108134065/ecatappl.o
bSdoSegFollows      0x1               build/LAN9255_SQI_DIRECT_MODE/production/_ext/108134065/sdoserv.o
nSdoSegCompleteSize
                    0x4               build/LAN9255_SQI_DIRECT_MODE/production/_ext/108134065/sdoserv.o
u16ALEventMask      0x2               build/LAN9255_SQI_DIRECT_MODE/production/_ext/108134065/ecatslv.o
pSdoPendFunc        0x4               build/LAN9255_SQI_DIRECT_MODE/production/_ext/108134065/sdoserv.o
bDcRunning          0x1               build/LAN9255_SQI_DIRECT_MODE/production/_ext/108134065/ecatslv.o
u32dummy            0x4               build/LAN9255_SQI_DIRECT_MODE/production/_ext/108134065/ecatslv.o
bRunApplication     0x1               build/LAN9255_SQI_DIRECT_MODE/production/_ext/108134065/ecatappl.o
u16EscAddrReceiveMbx
                    0x2               build/LAN9255_SQI_DIRECT_MODE/production/_ext/108134065/mailbox.o
psStoreMbx          0x4               build/LAN9255_SQI_DIRECT_MODE/production/_ext/108134065/mailbox.o
SyncManInfo         0x8               build/LAN9255_SQI_DIRECT_MODE/production/_ext/108134065/ecatslv.o
b32BitDc            0x1               build/LAN9255_SQI_DIRECT_MODE/production/_ext/108134065/ecatslv.o
u32SystemTimeReadFailure
                    0x4               build/LAN9255_SQI_DIRECT_MODE/production/_ext/108134065/ecatappl.o
u8PendingSdo        0x1               build/LAN9255_SQI_DIRECT_MODE/production/_ext/108134065/sdoserv.o
appData             0x1               build/LAN9255_SQI_DIRECT_MODE/production/_ext/1360937237/app.o
LatchInputSync0Value
                    0x2               build/LAN9255_SQI_DIRECT_MODE/production/_ext/108134065/ecatslv.o
u16SendMbxSize      0x2               build/LAN9255_SQI_DIRECT_MODE/production/_ext/108134065/mailbox.o
bEcatWaitForAlControlRes
                    0x1               build/LAN9255_SQI_DIRECT_MODE/production/_ext/108134065/ecatslv.o
psReadMbx           0x4               build/LAN9255_SQI_DIRECT_MODE/production/_ext/108134065/mailbox.o
bEcatWaitForInputUpdate
                    0x1               build/LAN9255_SQI_DIRECT_MODE/production/_ext/108134065/ecatappl.o
sSyncManInPar       0x44              build/LAN9255_SQI_DIRECT_MODE/production/_ext/108134065/objdef.o
nPdInputSize        0x2               build/LAN9255_SQI_DIRECT_MODE/production/_ext/108134065/ecatslv.o
u32MinCycleTimeValue
                    0x4               build/LAN9255_SQI_DIRECT_MODE/production/_ext/108134065/ecatappl.o
u16SmSync0Value     0x2               build/LAN9255_SQI_DIRECT_MODE/production/_ext/108134065/ecatslv.o
bStoreCompleteAccess
                    0x1               build/LAN9255_SQI_DIRECT_MODE/production/_ext/108134065/sdoserv.o
aPdOutputData       0x44              build/LAN9255_SQI_DIRECT_MODE/production/_ext/108134065/ecatappl.o
bSdoSegLastToggle   0x1               build/LAN9255_SQI_DIRECT_MODE/production/_ext/108134065/sdoserv.o
eicCallbackObject   0xc0              build/LAN9255_SQI_DIRECT_MODE/production/_ext/60167341/plib_eic.o
nSdoSegService      0x1               build/LAN9255_SQI_DIRECT_MODE/production/_ext/108134065/sdoserv.o
bReceiveMbxIsLocked
                    0x1               build/LAN9255_SQI_DIRECT_MODE/production/_ext/108134065/mailbox.o
pAPPL_FoeError      0x4               build/LAN9255_SQI_DIRECT_MODE/production/_ext/108134065/ecatappl.o
u16EscAddrSendMbx   0x2               build/LAN9255_SQI_DIRECT_MODE/production/_ext/108134065/mailbox.o
u16EepromStoreTimeoutCounter
                    0x2               build/LAN9255_SQI_DIRECT_MODE/production/_ext/108134065/ecatappl.o
sysObj              0x1               build/LAN9255_SQI_DIRECT_MODE/production/_ext/1171490990/initialization.o
nMaxEscAddress      0x2               build/LAN9255_SQI_DIRECT_MODE/production/_ext/108134065/ecatslv.o
bEcatFirstOutputsReceived
                    0x1               build/LAN9255_SQI_DIRECT_MODE/production/_ext/108134065/ecatslv.o
psWriteMbx          0x4               build/LAN9255_SQI_DIRECT_MODE/production/_ext/108134065/mailbox.o
u8MbxWriteCounter   0x1               build/LAN9255_SQI_DIRECT_MODE/production/_ext/108134065/mailbox.o
u32LastDc32Value    0x4               build/LAN9255_SQI_DIRECT_MODE/production/_ext/108134065/coeappl.o
u32CheckForDcOverrunCnt
                    0x4               build/LAN9255_SQI_DIRECT_MODE/production/_ext/108134065/coeappl.o
u8MailboxSendReqStored
                    0x1               build/LAN9255_SQI_DIRECT_MODE/production/_ext/108134065/mailbox.o
EepromReadSize      0x2               build/LAN9255_SQI_DIRECT_MODE/production/_ext/108134065/ecatappl.o
pSdoInfoObjEntry    0x4               build/LAN9255_SQI_DIRECT_MODE/production/_ext/108134065/sdoserv.o
bSmSyncSequenceValid
                    0x1               build/LAN9255_SQI_DIRECT_MODE/production/_ext/108134065/ecatslv.o
nSdoInfoFragmentsLeft
                    0x2               build/LAN9255_SQI_DIRECT_MODE/production/_ext/108134065/sdoserv.o
EsmTimeoutCounter   0x2               build/LAN9255_SQI_DIRECT_MODE/production/_ext/108134065/ecatslv.o
pAPPL_FoeReadData   0x4               build/LAN9255_SQI_DIRECT_MODE/production/_ext/108134065/ecatappl.o
u16ReceiveMbxSize   0x2               build/LAN9255_SQI_DIRECT_MODE/production/_ext/108134065/mailbox.o
pSdoResStored       0x4               build/LAN9255_SQI_DIRECT_MODE/production/_ext/108134065/sdoserv.o
asEmcy              0x8               build/LAN9255_SQI_DIRECT_MODE/production/_ext/108134065/emcy.o
bBootMode           0x1               build/LAN9255_SQI_DIRECT_MODE/production/_ext/108134065/ecatslv.o
u32StoreDataSize    0x4               build/LAN9255_SQI_DIRECT_MODE/production/_ext/108134065/sdoserv.o
pSdoSegData         0x4               build/LAN9255_SQI_DIRECT_MODE/production/_ext/108134065/sdoserv.o
bDcSyncActive       0x1               build/LAN9255_SQI_DIRECT_MODE/production/_ext/108134065/ecatslv.o
bEcatOutputUpdateRunning
                    0x1               build/LAN9255_SQI_DIRECT_MODE/production/_ext/108134065/ecatslv.o
pAPPL_MainLoop      0x4               build/LAN9255_SQI_DIRECT_MODE/production/_ext/108134065/ecatappl.o
sSyncManOutPar      0x44              build/LAN9255_SQI_DIRECT_MODE/production/_ext/108134065/objdef.o
sEmptyEmcyQueue     0x10              build/LAN9255_SQI_DIRECT_MODE/production/_ext/108134065/emcy.o
Sync1WdCounter      0x2               build/LAN9255_SQI_DIRECT_MODE/production/_ext/108134065/ecatslv.o
EcatWdValue         0x2               build/LAN9255_SQI_DIRECT_MODE/production/_ext/108134065/ecatslv.o
bEtherCATErrorLed   0x1               build/LAN9255_SQI_DIRECT_MODE/production/_ext/108134065/ecatappl.o
u32MinCycleTimeStartValue
                    0x4               build/LAN9255_SQI_DIRECT_MODE/production/_ext/108134065/ecatappl.o
bSyncSetByUser      0x1               build/LAN9255_SQI_DIRECT_MODE/production/_ext/108134065/objdef.o
bMbxRepeatToggle    0x1               build/LAN9255_SQI_DIRECT_MODE/production/_ext/108134065/mailbox.o
bEcatInputUpdateRunning
                    0x1               build/LAN9255_SQI_DIRECT_MODE/production/_ext/108134065/ecatslv.o
bEscIntEnabled      0x1               build/LAN9255_SQI_DIRECT_MODE/production/_ext/108134065/ecatslv.o
psRepeatMbx         0x4               build/LAN9255_SQI_DIRECT_MODE/production/_ext/108134065/mailbox.o
nSdoSegIndex        0x2               build/LAN9255_SQI_DIRECT_MODE/production/_ext/108134065/sdoserv.o
aSdoInfoHeader      0x10              build/LAN9255_SQI_DIRECT_MODE/production/_ext/108134065/sdoserv.o
pSdoSegObjEntry     0x4               build/LAN9255_SQI_DIRECT_MODE/production/_ext/108134065/sdoserv.o
aPdInputData        0x44              build/LAN9255_SQI_DIRECT_MODE/production/_ext/108134065/ecatappl.o
bWdTrigger          0x1               build/LAN9255_SQI_DIRECT_MODE/production/_ext/108134065/ecatslv.o
nSdoSegSubindex     0x1               build/LAN9255_SQI_DIRECT_MODE/production/_ext/108134065/sdoserv.o
pEEPROM             0x4               build/LAN9255_SQI_DIRECT_MODE/production/_ext/108134065/ecatappl.o
u16StoreIndex       0x2               build/LAN9255_SQI_DIRECT_MODE/production/_ext/108134065/sdoserv.o
bEtherCATRunLed     0x1               build/LAN9255_SQI_DIRECT_MODE/production/_ext/108134065/ecatappl.o
pAPPL_FoeWriteData  0x4               build/LAN9255_SQI_DIRECT_MODE/production/_ext/108134065/ecatappl.o
u16SmSync0Counter   0x2               build/LAN9255_SQI_DIRECT_MODE/production/_ext/108134065/ecatslv.o
pFoeSendStored      0x4               build/LAN9255_SQI_DIRECT_MODE/production/_ext/108134065/ecatfoe.o
nMaxSyncMan         0x1               build/LAN9255_SQI_DIRECT_MODE/production/_ext/108134065/ecatslv.o
pAPPL_EEPROM_Reload
                    0x4               build/LAN9255_SQI_DIRECT_MODE/production/_ext/108134065/ecatappl.o
u8StoreSubindex     0x1               build/LAN9255_SQI_DIRECT_MODE/production/_ext/108134065/sdoserv.o
aFileName           0x16              build/LAN9255_SQI_DIRECT_MODE/production/_ext/108134065/sample_app.o
u32LastFileOffset   0x4               build/LAN9255_SQI_DIRECT_MODE/production/_ext/108134065/ecatfoe.o
pAPPL_FoeRead       0x4               build/LAN9255_SQI_DIRECT_MODE/production/_ext/108134065/ecatappl.o
u16EepromStoreTimeoutValue
                    0x2               build/LAN9255_SQI_DIRECT_MODE/production/_ext/108134065/ecatappl.o
sCycleDiag          0x2               build/LAN9255_SQI_DIRECT_MODE/production/_ext/108134065/objdef.o
systick             0xc               build/LAN9255_SQI_DIRECT_MODE/production/_ext/1827571544/plib_systick.o
pAPPL_FoeWrite      0x4               build/LAN9255_SQI_DIRECT_MODE/production/_ext/108134065/ecatappl.o
u16FoeMaxSendBlockSize
                    0x2               build/LAN9255_SQI_DIRECT_MODE/production/_ext/108134065/ecatfoe.o
u8EcatErrorLed      0x1               build/LAN9255_SQI_DIRECT_MODE/production/_ext/108134065/ecatslv.o
nEscAddrInputData   0x2               build/LAN9255_SQI_DIRECT_MODE/production/_ext/108134065/ecatslv.o

Microchip PIC32 Memory-Usage Report

ROM Program-Memory Usage
section                    address  length [bytes]      (dec)  Description
-------                 ----------  -------------------------  -----------
.vectors                         0          0x260         608   
.text                        0x260           0x20          32  App's exec code 
.text.StartInputHandler      0x280          0x7e4        2020   
.text.AL_ControlInd          0xa64          0x790        1936   
.text.OBJ_Write             0x11f4          0x710        1808   
.dinit                      0x1904          0x690        1680   
.text.OBJ_Read              0x1f94          0x67c        1660   
.text.SDOS_SdoInd           0x2610          0x5e4        1508   
.text.FOE_ServiceInd        0x2bf4          0x488        1160   
.text.SDOS_SdoInfoInd       0x307c          0x434        1076   
.text.SdoDownloadSegmen     0x34b0          0x3b4         948   
.text.CheckSmSettings       0x3864          0x3a0         928   
.text.EEPROM_CommandHan     0x3c04          0x2bc         700   
.text.AL_ControlRes         0x3ec0          0x2bc         700   
.text.SdoUploadSegmentI     0x417c          0x260         608   
.text.SendSmFailedEmerg     0x43dc          0x1e0         480   
.text.SdoRes                0x45bc          0x1bc         444   
.text.ECAT_Main             0x4778          0x1b4         436   
.text.CheckSyncTypeValu     0x492c          0x1b4         436   
.text.FoE_WriteData         0x4ae0          0x18c         396   
.text.OBJ_GetEntryOffse     0x4c6c          0x178         376   
.text.APPL_GenerateMapp     0x4de4          0x174         372   
.text.ECAT_Init             0x4f58          0x170         368   
.text.SetALStatus           0x50c8          0x164         356   
.text.MBX_CheckAndCopyM     0x522c          0x164         356   
.text.COE_ObjInit           0x5390          0x160         352   
.text.Sync0_Isr             0x54f0          0x15c         348   
.text.MainInit              0x564c          0x15c         348   
.text.MBX_StopMailboxHa     0x57a8          0x154         340   
.text.APP_FlashEEPROMUp     0x58fc          0x154         340   
.text.PDI_Isr               0x5a50          0x14c         332   
.text.StopInputHandler      0x5b9c          0x12c         300   
.text.MBX_MailboxReadIn     0x5cc8          0x124         292   
.text.OBJ_GetObjectLeng     0x5dec          0x124         292   
.text.SDOS_SdoRes           0x5f10          0x124         292   
.text.DC_CheckWatchdog      0x6034          0x120         288   
.text.OBJ_GetDesc           0x6154          0x120         288   
.text.MBX_StartMailboxH     0x6274          0x114         276   
.text.MBX_CopyToSendMai     0x6388          0x10c         268   
.rodata.aName0x1C32         0x6494          0x100         256   
.rodata.aName0x1C33         0x6594          0x100         256   
.text.MBX_Init              0x6694          0x100         256   
.text.ECAT_CheckTimer       0x6794           0xf8         248   
.text.OBJ_GetObjectList     0x688c           0xf8         248   
.text.MBX_MailboxWriteI     0x6984           0xf4         244   
.text.LAN9253SQI_Read       0x6a78           0xec         236   
.text.MainLoop              0x6b64           0xec         236   
.text.HW_EscWriteIsr        0x6c50           0xe8         232   
.text.COE_AddObjectToDi     0x6d38           0xe8         232   
.text.COE_Main              0x6e20           0xe8         232   
.text.HW_EscReadIsr         0x6f08           0xe6         230   
.text.Dummy_Handler         0x6fee            0x2           2   
.text.EIC_Initialize        0x6ff0           0xe4         228   
.text.MBX_MailboxSendRe     0x70d4           0xdc         220   
.text.HW_EscWrite           0x71b0           0xce         206   
.text.HW_EscRead            0x727e           0xcc         204   
.text.__malloc_lock         0x734a            0x2           2   
.text.SODS_ClearPending     0x734c           0xcc         204   
.rodata.asEntryDesc0x1C     0x7418           0xc8         200   
.text.GetDummyBytesRequ     0x74e0           0xc6         198   
.text.EscWrite              0x75a6           0xc6         198   
.text.EscRead               0x766c           0xc4         196   
.text.HW_EepromWrite        0x7730           0xc4         196   
.text.LAN925x_Init          0x77f4           0xbc         188   
.text.FoE_Read              0x78b0           0xbc         188   
.text._malloc_r             0x796c           0xbc         188   
.text.MBX_Main              0x7a28           0xb8         184   
.text.qspi_setup_transf     0x7ae0           0xb4         180   
.text.LAN9253SQI_Write      0x7b94           0xb0         176   
.text.PDO_OutputMapping     0x7c44           0xb0         176   
.text.QSPI_MemoryRead       0x7cf4           0xac         172   
.text.QSPI_MemoryWrite      0x7da0           0xa8         168   
.text.EMCY_Init             0x7e48           0xa8         168   
.text.PORT_Initialize       0x7ef0           0xa4         164   
.text.EMCY_SendEmergenc     0x7f94           0xa4         164   
.text.HW_EepromReload       0x8038           0xa0         160   
.text.COE_SyncTimeStamp     0x80d8           0x9c         156   
.text.FoE_Write             0x8174           0x9c         156   
.text.APP_Tasks             0x8210           0x9c         156   
.text._free_r               0x82ac           0x9c         156   
.text.OBJ_GetNoOfObject     0x8348           0x98         152   
.text.RoundUpMultipleOf     0x83e0           0x96         150   
.text.__malloc_unlock       0x8476            0x2           2   
.text.PDO_InputMapping      0x8478           0x94         148   
.text.OBJ_CopyNumberToS     0x850c           0x94         148   
.text.QSPI_CommandWrite     0x85a0           0x88         136   
.text.QSPI_RegisterWrit     0x8628           0x88         136   
.text.ReBuild_SQI_SetCf     0x86b0           0x88         136   
.text.COE_RemoveDicEntr     0x8738           0x80         128   
.text.__pic32c_data_ini     0x87b8           0x80         128   
.text.HandleCycleTimeMe     0x8838           0x7c         124   
.text.MBX_MailboxRepeat     0x88b4           0x7c         124   
.rodata.cAbortCode          0x8930           0x78         120   
.text.APP_FlashWrite        0x89a8           0x78         120   
.text.COE_ServiceInd        0x8a20           0x74         116   
.text.StartOutputHandle     0x8a94           0x74         116   
.text.GetSystemTimeDela     0x8b08           0x70         112   
.text.CalculateCRC8         0x8b78           0x6e         110   
.text.FDPLL0_Initialize     0x8be8           0x6c         108   
.text.FOE_Data              0x8c54           0x6c         108   
.text.CLOCK_Initialize      0x8cc0           0x68         104   
.text.NVMCTRL_PageWrite     0x8d28           0x68         104   
.text.COE_UpdateSyncErr     0x8d90           0x68         104   
.text.MailboxServiceInd     0x8df8           0x68         104   
.text.ECAT_CheckWatchdo     0x8e60           0x64         100   
.text.BL_FOE_Applicatio     0x8ec4           0x64         100   
.text.EIC_CallbackRegis     0x8f28           0x5c          92   
.text.Reset_Handler         0x8f84           0x5c          92   
.text.ESC_BYTE_TEST_Reg     0x8fe0           0x5c          92   
.text.Read0x10F8            0x903c           0x5c          92   
.text.COE_ContinueInd       0x9098           0x5c          92   
.text.GetOutOfEmptyEmcy     0x90f4           0x5c          92   
.text.GetOutOfSendEmcyQ     0x9150           0x5c          92   
.text.FoE_ReadData          0x91ac           0x5c          92   
.text.GetOutOfMbxQueue      0x9208           0x58          88   
.text.OBJ_GetEntryDesc      0x9260           0x58          88   
.text.NVIC_Initialize       0x92b8           0x56          86   
.text.__NVIC_SetPriorit     0x9310           0x54          84   
.text.PutInMbxQueue         0x9364           0x52          82   
.text.ESF_PDI_Init          0x93b8           0x4c          76   
.text.UpdateEEPROMLoade     0x9404           0x4c          76   
.text.DisableSyncManCha     0x9450           0x4c          76   
.text.CheckIfEcatError      0x949c           0x4c          76   
.text.EnableSyncManChan     0x94e8           0x4a          74   
.text.__NVIC_SetPriorit     0x9534           0x48          72   
.text.FOE_Read              0x957c           0x48          72   
.text.__libc_init_array     0x95c4           0x48          72   
.text.ResetALEventMask      0x960c           0x46          70   
.text.SetALEventMask        0x9652           0x46          70   
.text.GCLK0_Initialize      0x9698           0x44          68   
.text.FPU_Enable            0x96dc           0x44          68   
.text.COE_ObjDictionary     0x9720           0x44          68   
.text.Sync1_Isr             0x9764           0x44          68   
.text.PutInEmptyEmcyQue     0x97a8           0x44          68   
.text.PutInSendEmcyQueu     0x97ec           0x44          68   
.text.PORT_PinRead          0x9830           0x44          68   
.text.APP_FW_startDownl     0x9874           0x44          68   
.text.AddObjectsToObjDi     0x98b8           0x42          66   
.text                       0x98fc           0x40          64  App's exec code 
.text.SYSTICK_TimerInit     0x993c           0x40          64   
.text.ICache_Enable         0x997c           0x40          64   
.rodata.aName0x10F1         0x99bc           0x40          64   
.text.COE_ClearObjDicti     0x99fc           0x40          64   
.text.__NVIC_EnableIRQ      0x9a3c           0x3c          60   
.text.QSPI_Initialize       0x9a78           0x3c          60   
.rodata.aName0x1018         0x9ab4           0x3c          60   
.text.ECAT_Application      0x9af0           0x3c          60   
.text.SQI_SetConfigurat     0x9b2c           0x3a          58   
.text.APP_RunApplicatio     0x9b66           0x3a          58   
.text.PORT_PinSet           0x9ba0           0x38          56   
.text.PORT_PinClear         0x9bd8           0x38          56   
.text.PORT_PinOutputEna     0x9c10           0x38          56   
.text.PORT_PinSet           0x9c48           0x38          56   
.text.PORT_PinClear         0x9c80           0x38          56   
.text.FOE_Write             0x9cb8           0x38          56   
.text.FOE_Ack               0x9cf0           0x38          56   
.text.PORT_PinSet           0x9d28           0x38          56   
.text.PORT_PinClear         0x9d60           0x38          56   
.text.OBJ_GetObjectHand     0x9d98           0x36          54   
.text.NVMCTRL_BlockEras     0x9dd0           0x34          52   
.text.qspi_memcpy_32bit     0x9e04           0x34          52   
.text.qspi_memcpy_8bit      0x9e38           0x34          52   
.text.SYS_Initialize        0x9e6c           0x34          52   
.text.APPL_OutputMappin     0x9ea0           0x34          52   
.text.FOE_ContinueInd       0x9ed4           0x30          48   
.text.GetSyncMan            0x9f04           0x30          48   
.text.GCLK1_Initialize      0x9f34           0x2c          44   
.text.EIC_EXTINT_0_Inte     0x9f60           0x2c          44   
.text.EIC_EXTINT_1_Inte     0x9f8c           0x2c          44   
.text.EIC_EXTINT_7_Inte     0x9fb8           0x2c          44   
.text.SysTick_Handler       0x9fe4           0x2c          44   
.text.SQI_EnableQuadMod     0xa010           0x2c          44   
.text.SQI_DisableQuadMo     0xa03c           0x2c          44   
.rodata.aName0x1601         0xa068           0x2c          44   
.rodata.aName0x1A00         0xa094           0x2c          44   
.text.FOE_Init              0xa0c0           0x2c          44   
.text.Emulation_Init        0xa0ec           0x2c          44   
.text.APPL_InputMapping     0xa118           0x2c          44   
.text._sbrk                 0xa144           0x2c          44   
.text.OSCCTRL_Initializ     0xa170           0x28          40   
.text.NVMCTRL_IsBusy        0xa198           0x28          40   
.text.SYSTICK_TimerCall     0xa1c0           0x28          40   
.text.ESC_IRQ_cb            0xa1e8           0x28          40   
.text.APP_FW_StateBOOTt     0xa210           0x28          40   
.text.HW_GetALEventRegi     0xa238           0x26          38   
.text.NVMCTRL_StatusGet     0xa260           0x24          36   
.text.SYSTICK_TimerStar     0xa284           0x24          36   
.text.TCM_Configure         0xa2a8           0x24          36   
.text.PDI_Init_SYNC_Int     0xa2cc           0x24          36   
.text.COE_Init              0xa2f0           0x24          36   
.text.StopOutputHandler     0xa314           0x24          36   
.text.EMCY_IsQueueEmpty     0xa338           0x24          36   
.text.FOE_Error             0xa35c           0x24          36   
.text.APP_BankSwitch        0xa380           0x24          36   
.text.NVMCTRL_Read          0xa3a4           0x22          34   
.text.EMCY_ContinueInd      0xa3c6           0x22          34   
.rodata.asEntryDesc0x10     0xa3e8           0x20          32   
.text.FOE_Busy              0xa408           0x20          32   
.rodata.cBitMask            0xa428           0x20          32   
.text._sbrk_r               0xa448           0x20          32   
.text.HW_GetALEventRegi     0xa468           0x1e          30   
.text.NVMCTRL_Initializ     0xa488           0x1c          28   
.text.NVMCTRL_BankSwap      0xa4a4           0x1c          28   
.text.PORT_GroupSet         0xa4c0           0x1c          28   
.text.PORT_GroupClear       0xa4dc           0x1c          28   
.text.PORT_GroupOutputE     0xa4f8           0x1c          28   
.text.qspi_end_transfer     0xa514           0x1c          28   
.text.CRITICAL_SECTION_     0xa530           0x1c          28   
.text.CRITICAL_SECTION_     0xa54c           0x1c          28   
.text.ECAT_SysTick_Hand     0xa568           0x1c          28   
.rodata.aName0x1C12         0xa584           0x1c          28   
.rodata.aName0x1C13         0xa5a0           0x1c          28   
.text.OSC32KCTRL_Initia     0xa5bc           0x18          24   
.text.PORT_GroupRead        0xa5d4           0x18          24   
.text.PDI_Init_SYSTick_     0xa5ec           0x18          24   
.text.PDI_IRQ_Interrupt     0xa604           0x18          24   
.rodata.aName0x7010         0xa61c           0x18          24   
.text.COE_GetObjectDict     0xa634           0x18          24   
.text.BackToInitTransit     0xa64c           0x18          24   
.text.OBJ_GetObjDesc        0xa664           0x18          24   
.text.APP_FW_GetDownloa     0xa67c           0x18          24   
.text.APP_Initialize        0xa694           0x18          24   
.text.BL_Start              0xa6ac           0x16          22   
.text.EMCY_GetEmcyBuffe     0xa6c2           0x16          22   
.text.APPL_AckErrorInd      0xa6d8           0x16          22   
.text.APPL_StartInputHa     0xa6ee           0x16          22   
.text.memcpy                0xa704           0x16          22   
.text.ESC_Sync0_cb          0xa71a           0x14          20   
.text.ESC_Sync1_cb          0xa72e           0x14          20   
.rodata.aName0x6000         0xa744           0x14          20   
.rodata.aName0x1009         0xa758           0x14          20   
.rodata.aName0x100A         0xa76c           0x14          20   
.rodata.asEntryDesc0x10     0xa780           0x14          20   
.rodata.aName0x10F8         0xa794           0x14          20   
.rodata.aName0x1C00         0xa7a8           0x14          20   
.rodata.aName0x1001         0xa7bc           0x10          16   
.text.APPL_StartMailbox     0xa7cc           0x10          16   
.text.APPL_StopInputHan     0xa7dc           0x10          16   
.text.APPL_StartOutputH     0xa7ec           0x10          16   
.text.APPL_StopOutputHa     0xa7fc           0x10          16   
.text.main                  0xa80c           0x10          16   
.text.malloc                0xa81c           0x10          16   
.text.free                  0xa82c           0x10          16   
.text.memset                0xa83c           0x10          16   
.text                       0xa84c           0x10          16  App's exec code 
.text.DFLL_Initialize       0xa85c            0xe          14   
.text.EVSYS_Initialize      0xa86a            0xe          14   
.text.BL_Stop               0xa878            0xe          14   
.text.APPL_StopMailboxH     0xa886            0xe          14   
.text.APPL_Application      0xa894            0xe          14   
.text.SYS_Tasks             0xa8a2            0xc          12   
.text.PDI_Timer_Interru     0xa8ae            0xc          12   
.text.ESC_Init              0xa8ba            0xc          12   
.rodata.asEntryDesc0x16     0xa8c8            0xc          12   
.rodata.asEntryDesc0x1A     0xa8d4            0xc          12   
.rodata.asEntryDesc0x1C     0xa8e0            0xc          12   
.rodata.asEntryDesc0x1C     0xa8ec            0xc          12   
.rodata.asEntryDesc0x60     0xa8f8            0xc          12   
.rodata.asEntryDesc0x70     0xa904            0xc          12   
.rodata.aName0x1000         0xa910            0xc          12   
.rodata.aName0x1008         0xa91c            0xc          12   
.rodata.asEntryDesc0x1C     0xa928            0xc          12   
.rodata.sEntryDesc0x100     0xa934            0x8           8   
.rodata.sEntryDesc0x100     0xa93c            0x8           8   
.rodata.sEntryDesc0x100     0xa944            0x8           8   
.rodata.sEntryDesc0x100     0xa94c            0x8           8   
.rodata.sEntryDesc0x100     0xa954            0x8           8   
.rodata.sEntryDesc0x10F     0xa95c            0x8           8   
.rodata.acEmcyCoeHeader     0xa964            0x8           8   
.text.NonMaskableInt_Ha     0xa96c            0x6           6   
.text.HardFault_Handler     0xa972            0x6           6   
.text.DebugMonitor_Hand     0xa978            0x6           6   
.text.MemoryManagement_     0xa97e            0x6           6   
.text.BusFault_Handler      0xa984            0x6           6   
.text.UsageFault_Handle     0xa98a            0x6           6   
.rodata                     0xa990            0x4           4  Read-only const 
.config_eeprom             0x3e000          0x800        2048   
      Total ROM used  :      0xb180       45440  4.4% of 0xfe000
        --------------------------------------------------------------------------
         Total Program Memory used  :      0xb180       45440  4.4% of 0xfe000
        --------------------------------------------------------------------------


RAM Data-Memory Usage
section                    address  length [bytes]      (dec)  Description
-------                 ----------  -------------------------  -----------
.bss                    0x20000000         0x23e0        9184  Uninitialized data 
.data.GenObjDic         0x200023e0          0x1e0         480   
.data.ApplicationObjDic 0x200025c0          0x118         280   
.bss.gau8rx_data        0x200026d8           0x80         128   
.data.impure_data       0x20002758           0x60          96   
.data.gau8DummyCntArr   0x200027b8           0x27          39   
.bss.bInitFinished      0x200027df            0x1           1   
.bss                    0x200027e0           0x1c          28  Uninitialized data 
.data.acDevicename      0x200027fc           0x16          22   
.bss.nvm_error          0x20002812            0x2           2   
.data.sIdentity         0x20002814           0x14          20   
.data.aSubindexDesc     0x20002828            0xd          13   
.bss.EepromLoaded       0x20002835            0x1           1   
.bss.u16ErrorRegister   0x20002836            0x2           2   
.data.sErrorSettings    0x20002838            0xc          12   
.data.u32Devicetype     0x20002844            0x4           4   
.bss.u64Timestamp       0x20002848            0x8           8   
.data.OutputsProcessDat 0x20002850            0x8           8   
.data.InputsProcessData 0x20002858            0x8           8   
.data.Inputs0x6000      0x20002860            0x8           8   
.data.Outputs0x7010     0x20002868            0x8           8   
.data.sSyncmanagertype  0x20002870            0x6           6   
.bss.nvm_status         0x20002876            0x2           2   
.data.acHardwareversion 0x20002878            0x4           4   
.data.acSoftwareversion 0x2000287c            0x4           4   
.bss.ObjDicList         0x20002880            0x4           4   
.bss.SMActivate         0x20002884            0x4           4   
.data.sRxPDOassign      0x20002888            0x4           4   
.data.sTxPDOassign      0x2000288c            0x4           4   
.bss.nFileWriteOffset   0x20002890            0x4           4   
.bss.nFileTotalLengthOf 0x20002894            0x4           4   
.bss.nFileStartWriteAdd 0x20002898            0x4           4   
.bss.u32FileSize        0x2000289c            0x4           4   
.bss.__malloc_free_list 0x200028a0            0x4           4   
.bss.__malloc_sbrk_star 0x200028a4            0x4           4   
.data._impure_ptr       0x200028a8            0x4           4   
.bss                    0x200028ac            0x4           4  Uninitialized data 
.bss.gFirmwareDownload_ 0x200028b0            0x1           1   
.bss.gFirmwareDownload_ 0x200028b1            0x1           1   
.bss.bSdoInWork         0x200028b2            0x1           1   
         Total RAM used  :      0x28b3       10419  4.0% of 0x40000
        --------------------------------------------------------------------------
            Total Data Memory used  :      0x28b3       10419  4.0% of 0x40000
        --------------------------------------------------------------------------


Dynamic Data-Memory Reservation
section                    address  length [bytes]      (dec)  Description
-------                 ----------  -------------------------  -----------
heap                    0x200028b8          0x200         512  Reserved for heap 
stack                   0x20002ad0        0x3d520      251168  Reserved for stack 

        --------------------------------------------------------------------------

Discarded input sections

 .text          0x00000000        0x0 c:/program files/microchip/xc32/v2.40/bin/bin/../../lib/gcc/pic32c/6.2.1/v7e-m/fpv4-sp/hard/crti.o
 .data          0x00000000        0x0 c:/program files/microchip/xc32/v2.40/bin/bin/../../lib/gcc/pic32c/6.2.1/v7e-m/fpv4-sp/hard/crti.o
 .bss           0x00000000        0x0 c:/program files/microchip/xc32/v2.40/bin/bin/../../lib/gcc/pic32c/6.2.1/v7e-m/fpv4-sp/hard/crti.o
 .data          0x00000000        0x4 c:/program files/microchip/xc32/v2.40/bin/bin/../../lib/gcc/pic32c/6.2.1/v7e-m/fpv4-sp/hard/crtbegin.o
 .text          0x00000000        0x0 build/LAN9255_SQI_DIRECT_MODE/production/_ext/1984496892/plib_clock.o
 .data          0x00000000        0x0 build/LAN9255_SQI_DIRECT_MODE/production/_ext/1984496892/plib_clock.o
 .bss           0x00000000        0x0 build/LAN9255_SQI_DIRECT_MODE/production/_ext/1984496892/plib_clock.o
 .text          0x00000000        0x0 build/LAN9255_SQI_DIRECT_MODE/production/_ext/1865131932/plib_cmcc.o
 .data          0x00000000        0x0 build/LAN9255_SQI_DIRECT_MODE/production/_ext/1865131932/plib_cmcc.o
 .bss           0x00000000        0x0 build/LAN9255_SQI_DIRECT_MODE/production/_ext/1865131932/plib_cmcc.o
 .text.CMCC_Disable
                0x00000000       0x2c build/LAN9255_SQI_DIRECT_MODE/production/_ext/1865131932/plib_cmcc.o
 .text.CMCC_EnableICache
                0x00000000       0x40 build/LAN9255_SQI_DIRECT_MODE/production/_ext/1865131932/plib_cmcc.o
 .text.CMCC_DisableICache
                0x00000000       0x40 build/LAN9255_SQI_DIRECT_MODE/production/_ext/1865131932/plib_cmcc.o
 .text.CMCC_EnableDCache
                0x00000000       0x40 build/LAN9255_SQI_DIRECT_MODE/production/_ext/1865131932/plib_cmcc.o
 .text.CMCC_DisableDCache
                0x00000000       0x40 build/LAN9255_SQI_DIRECT_MODE/production/_ext/1865131932/plib_cmcc.o
 .text.CMCC_InvalidateAll
                0x00000000       0x34 build/LAN9255_SQI_DIRECT_MODE/production/_ext/1865131932/plib_cmcc.o
 .debug_info    0x00000000      0x5ec build/LAN9255_SQI_DIRECT_MODE/production/_ext/1865131932/plib_cmcc.o
 .debug_abbrev  0x00000000       0x93 build/LAN9255_SQI_DIRECT_MODE/production/_ext/1865131932/plib_cmcc.o
 .debug_loc     0x00000000      0x198 build/LAN9255_SQI_DIRECT_MODE/production/_ext/1865131932/plib_cmcc.o
 .debug_aranges
                0x00000000       0x48 build/LAN9255_SQI_DIRECT_MODE/production/_ext/1865131932/plib_cmcc.o
 .debug_ranges  0x00000000       0x38 build/LAN9255_SQI_DIRECT_MODE/production/_ext/1865131932/plib_cmcc.o
 .debug_line    0x00000000      0x1da build/LAN9255_SQI_DIRECT_MODE/production/_ext/1865131932/plib_cmcc.o
 .debug_str     0x00000000        0x0 build/LAN9255_SQI_DIRECT_MODE/production/_ext/1865131932/plib_cmcc.o
 .comment       0x00000000       0x3d build/LAN9255_SQI_DIRECT_MODE/production/_ext/1865131932/plib_cmcc.o
 .debug_frame   0x00000000       0xd0 build/LAN9255_SQI_DIRECT_MODE/production/_ext/1865131932/plib_cmcc.o
 .ARM.attributes
                0x00000000       0x39 build/LAN9255_SQI_DIRECT_MODE/production/_ext/1865131932/plib_cmcc.o
 .text          0x00000000        0x0 build/LAN9255_SQI_DIRECT_MODE/production/_ext/60167341/plib_eic.o
 .data          0x00000000        0x0 build/LAN9255_SQI_DIRECT_MODE/production/_ext/60167341/plib_eic.o
 .bss           0x00000000        0x0 build/LAN9255_SQI_DIRECT_MODE/production/_ext/60167341/plib_eic.o
 .text.EIC_InterruptEnable
                0x00000000       0x28 build/LAN9255_SQI_DIRECT_MODE/production/_ext/60167341/plib_eic.o
 .text.EIC_InterruptDisable
                0x00000000       0x28 build/LAN9255_SQI_DIRECT_MODE/production/_ext/60167341/plib_eic.o
 .text          0x00000000        0x0 build/LAN9255_SQI_DIRECT_MODE/production/_ext/1986646378/plib_evsys.o
 .data          0x00000000        0x0 build/LAN9255_SQI_DIRECT_MODE/production/_ext/1986646378/plib_evsys.o
 .bss           0x00000000        0x0 build/LAN9255_SQI_DIRECT_MODE/production/_ext/1986646378/plib_evsys.o
 .text          0x00000000        0x0 build/LAN9255_SQI_DIRECT_MODE/production/_ext/1865468468/plib_nvic.o
 .data          0x00000000        0x0 build/LAN9255_SQI_DIRECT_MODE/production/_ext/1865468468/plib_nvic.o
 .bss           0x00000000        0x0 build/LAN9255_SQI_DIRECT_MODE/production/_ext/1865468468/plib_nvic.o
 .text          0x00000000        0x0 build/LAN9255_SQI_DIRECT_MODE/production/_ext/1593096446/plib_nvmctrl.o
 .data          0x00000000        0x0 build/LAN9255_SQI_DIRECT_MODE/production/_ext/1593096446/plib_nvmctrl.o
 .bss           0x00000000        0x0 build/LAN9255_SQI_DIRECT_MODE/production/_ext/1593096446/plib_nvmctrl.o
 .bss.smart_eep_status
                0x00000000        0x4 build/LAN9255_SQI_DIRECT_MODE/production/_ext/1593096446/plib_nvmctrl.o
 .text.NVMCTRL_SetWriteMode
                0x00000000       0x34 build/LAN9255_SQI_DIRECT_MODE/production/_ext/1593096446/plib_nvmctrl.o
 .text.NVMCTRL_QuadWordWrite
                0x00000000       0x84 build/LAN9255_SQI_DIRECT_MODE/production/_ext/1593096446/plib_nvmctrl.o
 .text.NVMCTRL_DoubleWordWrite
                0x00000000       0x84 build/LAN9255_SQI_DIRECT_MODE/production/_ext/1593096446/plib_nvmctrl.o
 .text.NVMCTRL_ErrorGet
                0x00000000       0x40 build/LAN9255_SQI_DIRECT_MODE/production/_ext/1593096446/plib_nvmctrl.o
 .text.NVMCTRL_RegionLock
                0x00000000       0x28 build/LAN9255_SQI_DIRECT_MODE/production/_ext/1593096446/plib_nvmctrl.o
 .text.NVMCTRL_RegionUnlock
                0x00000000       0x28 build/LAN9255_SQI_DIRECT_MODE/production/_ext/1593096446/plib_nvmctrl.o
 .text.NVMCTRL_RegionLockStatusGet
                0x00000000       0x18 build/LAN9255_SQI_DIRECT_MODE/production/_ext/1593096446/plib_nvmctrl.o
 .text.NVMCTRL_SmartEEPROM_IsBusy
                0x00000000       0x24 build/LAN9255_SQI_DIRECT_MODE/production/_ext/1593096446/plib_nvmctrl.o
 .text.NVMCTRL_SmartEEPROMStatusGet
                0x00000000       0x24 build/LAN9255_SQI_DIRECT_MODE/production/_ext/1593096446/plib_nvmctrl.o
 .text.NVMCTRL_SmartEEPROM_IsActiveSectorFull
                0x00000000       0x28 build/LAN9255_SQI_DIRECT_MODE/production/_ext/1593096446/plib_nvmctrl.o
 .text.NVMCTRL_SmartEEPROMSectorReallocate
                0x00000000       0x1c build/LAN9255_SQI_DIRECT_MODE/production/_ext/1593096446/plib_nvmctrl.o
 .text.NVMCTRL_SmartEEPROMFlushPageBuffer
                0x00000000       0x24 build/LAN9255_SQI_DIRECT_MODE/production/_ext/1593096446/plib_nvmctrl.o
 .text          0x00000000        0x0 build/LAN9255_SQI_DIRECT_MODE/production/_ext/1865521619/plib_port.o
 .data          0x00000000        0x0 build/LAN9255_SQI_DIRECT_MODE/production/_ext/1865521619/plib_port.o
 .bss           0x00000000        0x0 build/LAN9255_SQI_DIRECT_MODE/production/_ext/1865521619/plib_port.o
 .text.PORT_GroupWrite
                0x00000000       0x2e build/LAN9255_SQI_DIRECT_MODE/production/_ext/1865521619/plib_port.o
 .text.PORT_GroupLatchRead
                0x00000000       0x18 build/LAN9255_SQI_DIRECT_MODE/production/_ext/1865521619/plib_port.o
 .text.PORT_GroupToggle
                0x00000000       0x1c build/LAN9255_SQI_DIRECT_MODE/production/_ext/1865521619/plib_port.o
 .text.PORT_GroupInputEnable
                0x00000000       0x1c build/LAN9255_SQI_DIRECT_MODE/production/_ext/1865521619/plib_port.o
 .text          0x00000000        0x0 build/LAN9255_SQI_DIRECT_MODE/production/_ext/1865555181/plib_qspi.o
 .data          0x00000000        0x0 build/LAN9255_SQI_DIRECT_MODE/production/_ext/1865555181/plib_qspi.o
 .bss           0x00000000        0x0 build/LAN9255_SQI_DIRECT_MODE/production/_ext/1865555181/plib_qspi.o
 .text.QSPI_RegisterRead
                0x00000000       0x90 build/LAN9255_SQI_DIRECT_MODE/production/_ext/1865555181/plib_qspi.o
 .text          0x00000000        0x0 build/LAN9255_SQI_DIRECT_MODE/production/_ext/1865555181/plib_qspi_spi.o
 .data          0x00000000        0x0 build/LAN9255_SQI_DIRECT_MODE/production/_ext/1865555181/plib_qspi_spi.o
 .bss           0x00000000        0x0 build/LAN9255_SQI_DIRECT_MODE/production/_ext/1865555181/plib_qspi_spi.o
 .debug_line    0x00000000        0x0 build/LAN9255_SQI_DIRECT_MODE/production/_ext/1865555181/plib_qspi_spi.o
 .debug_str     0x00000000        0x0 build/LAN9255_SQI_DIRECT_MODE/production/_ext/1865555181/plib_qspi_spi.o
 .comment       0x00000000       0x3d build/LAN9255_SQI_DIRECT_MODE/production/_ext/1865555181/plib_qspi_spi.o
 .ARM.attributes
                0x00000000       0x39 build/LAN9255_SQI_DIRECT_MODE/production/_ext/1865555181/plib_qspi_spi.o
 .text          0x00000000        0x0 build/LAN9255_SQI_DIRECT_MODE/production/_ext/1827571544/plib_systick.o
 .data          0x00000000        0x0 build/LAN9255_SQI_DIRECT_MODE/production/_ext/1827571544/plib_systick.o
 .bss           0x00000000        0x0 build/LAN9255_SQI_DIRECT_MODE/production/_ext/1827571544/plib_systick.o
 .text.SYSTICK_TimerRestart
                0x00000000       0x30 build/LAN9255_SQI_DIRECT_MODE/production/_ext/1827571544/plib_systick.o
 .text.SYSTICK_TimerStop
                0x00000000       0x20 build/LAN9255_SQI_DIRECT_MODE/production/_ext/1827571544/plib_systick.o
 .text.SYSTICK_TimerPeriodSet
                0x00000000       0x20 build/LAN9255_SQI_DIRECT_MODE/production/_ext/1827571544/plib_systick.o
 .text.SYSTICK_TimerPeriodGet
                0x00000000       0x18 build/LAN9255_SQI_DIRECT_MODE/production/_ext/1827571544/plib_systick.o
 .text.SYSTICK_TimerCounterGet
                0x00000000       0x18 build/LAN9255_SQI_DIRECT_MODE/production/_ext/1827571544/plib_systick.o
 .text.SYSTICK_TimerFrequencyGet
                0x00000000       0x14 build/LAN9255_SQI_DIRECT_MODE/production/_ext/1827571544/plib_systick.o
 .text.SYSTICK_DelayMs
                0x00000000       0x58 build/LAN9255_SQI_DIRECT_MODE/production/_ext/1827571544/plib_systick.o
 .text          0x00000000        0x0 build/LAN9255_SQI_DIRECT_MODE/production/_ext/163028504/xc32_monitor.o
 .data          0x00000000        0x0 build/LAN9255_SQI_DIRECT_MODE/production/_ext/163028504/xc32_monitor.o
 .bss           0x00000000        0x0 build/LAN9255_SQI_DIRECT_MODE/production/_ext/163028504/xc32_monitor.o
 .text._mon_getc
                0x00000000       0x16 build/LAN9255_SQI_DIRECT_MODE/production/_ext/163028504/xc32_monitor.o
 .text._mon_putc
                0x00000000       0x16 build/LAN9255_SQI_DIRECT_MODE/production/_ext/163028504/xc32_monitor.o
 .debug_info    0x00000000      0x2fb build/LAN9255_SQI_DIRECT_MODE/production/_ext/163028504/xc32_monitor.o
 .debug_abbrev  0x00000000       0x66 build/LAN9255_SQI_DIRECT_MODE/production/_ext/163028504/xc32_monitor.o
 .debug_loc     0x00000000       0xb8 build/LAN9255_SQI_DIRECT_MODE/production/_ext/163028504/xc32_monitor.o
 .debug_aranges
                0x00000000       0x28 build/LAN9255_SQI_DIRECT_MODE/production/_ext/163028504/xc32_monitor.o
 .debug_ranges  0x00000000       0x18 build/LAN9255_SQI_DIRECT_MODE/production/_ext/163028504/xc32_monitor.o
 .debug_line    0x00000000       0x6c build/LAN9255_SQI_DIRECT_MODE/production/_ext/163028504/xc32_monitor.o
 .debug_str     0x00000000        0x0 build/LAN9255_SQI_DIRECT_MODE/production/_ext/163028504/xc32_monitor.o
 .comment       0x00000000       0x3d build/LAN9255_SQI_DIRECT_MODE/production/_ext/163028504/xc32_monitor.o
 .debug_frame   0x00000000       0x60 build/LAN9255_SQI_DIRECT_MODE/production/_ext/163028504/xc32_monitor.o
 .ARM.attributes
                0x00000000       0x39 build/LAN9255_SQI_DIRECT_MODE/production/_ext/163028504/xc32_monitor.o
 .text          0x00000000        0x0 build/LAN9255_SQI_DIRECT_MODE/production/_ext/1881668453/sys_int.o
 .data          0x00000000        0x0 build/LAN9255_SQI_DIRECT_MODE/production/_ext/1881668453/sys_int.o
 .bss           0x00000000        0x0 build/LAN9255_SQI_DIRECT_MODE/production/_ext/1881668453/sys_int.o
 .text.__NVIC_EnableIRQ
                0x00000000       0x3c build/LAN9255_SQI_DIRECT_MODE/production/_ext/1881668453/sys_int.o
 .text.__NVIC_GetEnableIRQ
                0x00000000       0x40 build/LAN9255_SQI_DIRECT_MODE/production/_ext/1881668453/sys_int.o
 .text.__NVIC_DisableIRQ
                0x00000000       0x44 build/LAN9255_SQI_DIRECT_MODE/production/_ext/1881668453/sys_int.o
 .text.SYS_INT_Enable
                0x00000000       0x14 build/LAN9255_SQI_DIRECT_MODE/production/_ext/1881668453/sys_int.o
 .text.SYS_INT_Disable
                0x00000000       0x2c build/LAN9255_SQI_DIRECT_MODE/production/_ext/1881668453/sys_int.o
 .text.SYS_INT_Restore
                0x00000000       0x2a build/LAN9255_SQI_DIRECT_MODE/production/_ext/1881668453/sys_int.o
 .text.SYS_INT_SourceDisable
                0x00000000       0x44 build/LAN9255_SQI_DIRECT_MODE/production/_ext/1881668453/sys_int.o
 .text.SYS_INT_SourceRestore
                0x00000000       0x2a build/LAN9255_SQI_DIRECT_MODE/production/_ext/1881668453/sys_int.o
 .debug_info    0x00000000     0x115d build/LAN9255_SQI_DIRECT_MODE/production/_ext/1881668453/sys_int.o
 .debug_abbrev  0x00000000      0x206 build/LAN9255_SQI_DIRECT_MODE/production/_ext/1881668453/sys_int.o
 .debug_loc     0x00000000      0x2b0 build/LAN9255_SQI_DIRECT_MODE/production/_ext/1881668453/sys_int.o
 .debug_aranges
                0x00000000       0x58 build/LAN9255_SQI_DIRECT_MODE/production/_ext/1881668453/sys_int.o
 .debug_ranges  0x00000000       0x48 build/LAN9255_SQI_DIRECT_MODE/production/_ext/1881668453/sys_int.o
 .debug_line    0x00000000      0x285 build/LAN9255_SQI_DIRECT_MODE/production/_ext/1881668453/sys_int.o
 .debug_str     0x00000000       0x10 build/LAN9255_SQI_DIRECT_MODE/production/_ext/1881668453/sys_int.o
 .comment       0x00000000       0x3d build/LAN9255_SQI_DIRECT_MODE/production/_ext/1881668453/sys_int.o
 .debug_frame   0x00000000      0x140 build/LAN9255_SQI_DIRECT_MODE/production/_ext/1881668453/sys_int.o
 .ARM.attributes
                0x00000000       0x39 build/LAN9255_SQI_DIRECT_MODE/production/_ext/1881668453/sys_int.o
 .text          0x00000000        0x0 build/LAN9255_SQI_DIRECT_MODE/production/_ext/1171490990/exceptions.o
 .data          0x00000000        0x0 build/LAN9255_SQI_DIRECT_MODE/production/_ext/1171490990/exceptions.o
 .bss           0x00000000        0x0 build/LAN9255_SQI_DIRECT_MODE/production/_ext/1171490990/exceptions.o
 .text          0x00000000        0x0 build/LAN9255_SQI_DIRECT_MODE/production/_ext/1171490990/initialization.o
 .data          0x00000000        0x0 build/LAN9255_SQI_DIRECT_MODE/production/_ext/1171490990/initialization.o
 .bss           0x00000000        0x0 build/LAN9255_SQI_DIRECT_MODE/production/_ext/1171490990/initialization.o
 COMMON         0x00000000        0x1 build/LAN9255_SQI_DIRECT_MODE/production/_ext/1171490990/initialization.o
 .text          0x00000000        0x0 build/LAN9255_SQI_DIRECT_MODE/production/_ext/1171490990/interrupts.o
 .data          0x00000000        0x0 build/LAN9255_SQI_DIRECT_MODE/production/_ext/1171490990/interrupts.o
 .bss           0x00000000        0x0 build/LAN9255_SQI_DIRECT_MODE/production/_ext/1171490990/interrupts.o
 .text          0x00000000        0x0 build/LAN9255_SQI_DIRECT_MODE/production/_ext/1171490990/libc_syscalls.o
 .data          0x00000000        0x0 build/LAN9255_SQI_DIRECT_MODE/production/_ext/1171490990/libc_syscalls.o
 .bss           0x00000000        0x0 build/LAN9255_SQI_DIRECT_MODE/production/_ext/1171490990/libc_syscalls.o
 .text._exit    0x00000000        0xa build/LAN9255_SQI_DIRECT_MODE/production/_ext/1171490990/libc_syscalls.o
 .debug_info    0x00000000      0xf14 build/LAN9255_SQI_DIRECT_MODE/production/_ext/1171490990/libc_syscalls.o
 .debug_abbrev  0x00000000      0x1a8 build/LAN9255_SQI_DIRECT_MODE/production/_ext/1171490990/libc_syscalls.o
 .debug_loc     0x00000000       0x38 build/LAN9255_SQI_DIRECT_MODE/production/_ext/1171490990/libc_syscalls.o
 .debug_aranges
                0x00000000       0x20 build/LAN9255_SQI_DIRECT_MODE/production/_ext/1171490990/libc_syscalls.o
 .debug_ranges  0x00000000       0x10 build/LAN9255_SQI_DIRECT_MODE/production/_ext/1171490990/libc_syscalls.o
 .debug_line    0x00000000      0x1d0 build/LAN9255_SQI_DIRECT_MODE/production/_ext/1171490990/libc_syscalls.o
 .debug_str     0x00000000        0xe build/LAN9255_SQI_DIRECT_MODE/production/_ext/1171490990/libc_syscalls.o
 .comment       0x00000000       0x3d build/LAN9255_SQI_DIRECT_MODE/production/_ext/1171490990/libc_syscalls.o
 .debug_frame   0x00000000       0x2c build/LAN9255_SQI_DIRECT_MODE/production/_ext/1171490990/libc_syscalls.o
 .ARM.attributes
                0x00000000       0x39 build/LAN9255_SQI_DIRECT_MODE/production/_ext/1171490990/libc_syscalls.o
 .text          0x00000000        0x0 build/LAN9255_SQI_DIRECT_MODE/production/_ext/1171490990/startup_xc32.o
 .data          0x00000000        0x0 build/LAN9255_SQI_DIRECT_MODE/production/_ext/1171490990/startup_xc32.o
 .bss           0x00000000        0x0 build/LAN9255_SQI_DIRECT_MODE/production/_ext/1171490990/startup_xc32.o
 .text          0x00000000        0x0 build/LAN9255_SQI_DIRECT_MODE/production/_ext/1171490990/tasks.o
 .data          0x00000000        0x0 build/LAN9255_SQI_DIRECT_MODE/production/_ext/1171490990/tasks.o
 .bss           0x00000000        0x0 build/LAN9255_SQI_DIRECT_MODE/production/_ext/1171490990/tasks.o
 .text          0x00000000        0x0 build/LAN9255_SQI_DIRECT_MODE/production/_ext/1671622016/Drivers.o
 .data          0x00000000        0x0 build/LAN9255_SQI_DIRECT_MODE/production/_ext/1671622016/Drivers.o
 .bss           0x00000000        0x0 build/LAN9255_SQI_DIRECT_MODE/production/_ext/1671622016/Drivers.o
 .text.__NVIC_EnableIRQ
                0x00000000       0x3c build/LAN9255_SQI_DIRECT_MODE/production/_ext/1671622016/Drivers.o
 .text.__NVIC_DisableIRQ
                0x00000000       0x44 build/LAN9255_SQI_DIRECT_MODE/production/_ext/1671622016/Drivers.o
 .text.PDI_GetTimer
                0x00000000       0x10 build/LAN9255_SQI_DIRECT_MODE/production/_ext/1671622016/Drivers.o
 .text.PDI_ClearTimer
                0x00000000        0xe build/LAN9255_SQI_DIRECT_MODE/production/_ext/1671622016/Drivers.o
 .text.stop_timer
                0x00000000       0x10 build/LAN9255_SQI_DIRECT_MODE/production/_ext/1671622016/Drivers.o
 .text.start_timer
                0x00000000       0x10 build/LAN9255_SQI_DIRECT_MODE/production/_ext/1671622016/Drivers.o
 .text          0x00000000        0x0 build/LAN9255_SQI_DIRECT_MODE/production/_ext/108147519/ESC_Utils.o
 .data          0x00000000        0x0 build/LAN9255_SQI_DIRECT_MODE/production/_ext/108147519/ESC_Utils.o
 .bss           0x00000000        0x0 build/LAN9255_SQI_DIRECT_MODE/production/_ext/108147519/ESC_Utils.o
 .text          0x00000000        0x0 build/LAN9255_SQI_DIRECT_MODE/production/_ext/108147519/LAN925x.o
 .data          0x00000000        0x0 build/LAN9255_SQI_DIRECT_MODE/production/_ext/108147519/LAN925x.o
 .bss           0x00000000        0x0 build/LAN9255_SQI_DIRECT_MODE/production/_ext/108147519/LAN925x.o
 .bss.gbALEvtOpEnabled
                0x00000000        0x1 build/LAN9255_SQI_DIRECT_MODE/production/_ext/108147519/LAN925x.o
 .text.HW_Release
                0x00000000        0xe build/LAN9255_SQI_DIRECT_MODE/production/_ext/108147519/LAN925x.o
 .text.HW_EscWriteMailbox
                0x00000000       0x24 build/LAN9255_SQI_DIRECT_MODE/production/_ext/108147519/LAN925x.o
 .text.HW_EscReadMailbox
                0x00000000       0x24 build/LAN9255_SQI_DIRECT_MODE/production/_ext/108147519/LAN925x.o
 .text.HW_SetLed
                0x00000000       0x1c build/LAN9255_SQI_DIRECT_MODE/production/_ext/108147519/LAN925x.o
 COMMON         0x00000000        0x2 build/LAN9255_SQI_DIRECT_MODE/production/_ext/108147519/LAN925x.o
 .text          0x00000000        0x0 build/LAN9255_SQI_DIRECT_MODE/production/_ext/108134065/bootmode.o
 .data          0x00000000        0x0 build/LAN9255_SQI_DIRECT_MODE/production/_ext/108134065/bootmode.o
 .bss           0x00000000        0x0 build/LAN9255_SQI_DIRECT_MODE/production/_ext/108134065/bootmode.o
 .text.BL_StartDownload
                0x00000000       0x14 build/LAN9255_SQI_DIRECT_MODE/production/_ext/108134065/bootmode.o
 .text.BL_Data  0x00000000       0x1a build/LAN9255_SQI_DIRECT_MODE/production/_ext/108134065/bootmode.o
 .text          0x00000000        0x0 build/LAN9255_SQI_DIRECT_MODE/production/_ext/108134065/coeappl.o
 .data          0x00000000        0x0 build/LAN9255_SQI_DIRECT_MODE/production/_ext/108134065/coeappl.o
 .bss           0x00000000        0x0 build/LAN9255_SQI_DIRECT_MODE/production/_ext/108134065/coeappl.o
 .text          0x00000000        0x0 build/LAN9255_SQI_DIRECT_MODE/production/_ext/108134065/ecatappl.o
 .data          0x00000000        0x0 build/LAN9255_SQI_DIRECT_MODE/production/_ext/108134065/ecatappl.o
 .bss           0x00000000        0x0 build/LAN9255_SQI_DIRECT_MODE/production/_ext/108134065/ecatappl.o
 .text          0x00000000        0x0 build/LAN9255_SQI_DIRECT_MODE/production/_ext/108134065/ecatcoe.o
 .data          0x00000000        0x0 build/LAN9255_SQI_DIRECT_MODE/production/_ext/108134065/ecatcoe.o
 .bss           0x00000000        0x0 build/LAN9255_SQI_DIRECT_MODE/production/_ext/108134065/ecatcoe.o
 .text          0x00000000        0x0 build/LAN9255_SQI_DIRECT_MODE/production/_ext/108134065/ecatfoe.o
 .data          0x00000000        0x0 build/LAN9255_SQI_DIRECT_MODE/production/_ext/108134065/ecatfoe.o
 .bss           0x00000000        0x0 build/LAN9255_SQI_DIRECT_MODE/production/_ext/108134065/ecatfoe.o
 .text          0x00000000        0x0 build/LAN9255_SQI_DIRECT_MODE/production/_ext/108134065/ecatslv.o
 .data          0x00000000        0x0 build/LAN9255_SQI_DIRECT_MODE/production/_ext/108134065/ecatslv.o
 .bss           0x00000000        0x0 build/LAN9255_SQI_DIRECT_MODE/production/_ext/108134065/ecatslv.o
 .text.ECAT_StateChange
                0x00000000      0x188 build/LAN9255_SQI_DIRECT_MODE/production/_ext/108134065/ecatslv.o
 .text          0x00000000        0x0 build/LAN9255_SQI_DIRECT_MODE/production/_ext/108134065/emcy.o
 .data          0x00000000        0x0 build/LAN9255_SQI_DIRECT_MODE/production/_ext/108134065/emcy.o
 .bss           0x00000000        0x0 build/LAN9255_SQI_DIRECT_MODE/production/_ext/108134065/emcy.o
 .text          0x00000000        0x0 build/LAN9255_SQI_DIRECT_MODE/production/_ext/108134065/foeappl.o
 .data          0x00000000        0x0 build/LAN9255_SQI_DIRECT_MODE/production/_ext/108134065/foeappl.o
 .bss           0x00000000        0x0 build/LAN9255_SQI_DIRECT_MODE/production/_ext/108134065/foeappl.o
 .text          0x00000000        0x0 build/LAN9255_SQI_DIRECT_MODE/production/_ext/108134065/mailbox.o
 .data          0x00000000        0x0 build/LAN9255_SQI_DIRECT_MODE/production/_ext/108134065/mailbox.o
 .bss           0x00000000        0x0 build/LAN9255_SQI_DIRECT_MODE/production/_ext/108134065/mailbox.o
 .text          0x00000000        0x0 build/LAN9255_SQI_DIRECT_MODE/production/_ext/108134065/objdef.o
 .data          0x00000000        0x0 build/LAN9255_SQI_DIRECT_MODE/production/_ext/108134065/objdef.o
 .bss           0x00000000        0x0 build/LAN9255_SQI_DIRECT_MODE/production/_ext/108134065/objdef.o
 .text          0x00000000        0x0 build/LAN9255_SQI_DIRECT_MODE/production/_ext/108134065/sample_app.o
 .data          0x00000000        0x0 build/LAN9255_SQI_DIRECT_MODE/production/_ext/108134065/sample_app.o
 .bss           0x00000000        0x0 build/LAN9255_SQI_DIRECT_MODE/production/_ext/108134065/sample_app.o
 .text          0x00000000        0x0 build/LAN9255_SQI_DIRECT_MODE/production/_ext/108134065/sdoserv.o
 .data          0x00000000        0x0 build/LAN9255_SQI_DIRECT_MODE/production/_ext/108134065/sdoserv.o
 .bss           0x00000000        0x0 build/LAN9255_SQI_DIRECT_MODE/production/_ext/108134065/sdoserv.o
 .text          0x00000000        0x0 build/LAN9255_SQI_DIRECT_MODE/production/_ext/1360937237/main.o
 .data          0x00000000        0x0 build/LAN9255_SQI_DIRECT_MODE/production/_ext/1360937237/main.o
 .bss           0x00000000        0x0 build/LAN9255_SQI_DIRECT_MODE/production/_ext/1360937237/main.o
 .text          0x00000000        0x0 build/LAN9255_SQI_DIRECT_MODE/production/_ext/1360937237/app.o
 .data          0x00000000        0x0 build/LAN9255_SQI_DIRECT_MODE/production/_ext/1360937237/app.o
 .bss           0x00000000        0x0 build/LAN9255_SQI_DIRECT_MODE/production/_ext/1360937237/app.o
 .rodata.gAppBankBOffsetAddr
                0x00000000        0x4 build/LAN9255_SQI_DIRECT_MODE/production/_ext/1360937237/app.o
 .rodata.gApplicationStartAddr
                0x00000000        0x4 build/LAN9255_SQI_DIRECT_MODE/production/_ext/1360937237/app.o
 .text          0x00000000        0x0 build/LAN9255_SQI_DIRECT_MODE/production/_ext/1360937237/Developer_Test.o
 .data          0x00000000        0x0 build/LAN9255_SQI_DIRECT_MODE/production/_ext/1360937237/Developer_Test.o
 .bss           0x00000000        0x0 build/LAN9255_SQI_DIRECT_MODE/production/_ext/1360937237/Developer_Test.o
 .debug_info    0x00000000     0x100a build/LAN9255_SQI_DIRECT_MODE/production/_ext/1360937237/Developer_Test.o
 .debug_abbrev  0x00000000      0x178 build/LAN9255_SQI_DIRECT_MODE/production/_ext/1360937237/Developer_Test.o
 .debug_aranges
                0x00000000       0x18 build/LAN9255_SQI_DIRECT_MODE/production/_ext/1360937237/Developer_Test.o
 .debug_line    0x00000000      0x209 build/LAN9255_SQI_DIRECT_MODE/production/_ext/1360937237/Developer_Test.o
 .debug_str     0x00000000        0xe build/LAN9255_SQI_DIRECT_MODE/production/_ext/1360937237/Developer_Test.o
 .comment       0x00000000       0x3d build/LAN9255_SQI_DIRECT_MODE/production/_ext/1360937237/Developer_Test.o
 .ARM.attributes
                0x00000000       0x39 build/LAN9255_SQI_DIRECT_MODE/production/_ext/1360937237/Developer_Test.o
 .text          0x00000000        0x0 c:/program files/microchip/xc32/v2.40/bin/bin/../../lib/gcc/pic32c/6.2.1/../../../../pic32c/lib/v7e-m/fpv4-sp/hard\libpic32c.a(data_init.o)
 .data          0x00000000        0x0 c:/program files/microchip/xc32/v2.40/bin/bin/../../lib/gcc/pic32c/6.2.1/../../../../pic32c/lib/v7e-m/fpv4-sp/hard\libpic32c.a(data_init.o)
 .bss           0x00000000        0x0 c:/program files/microchip/xc32/v2.40/bin/bin/../../lib/gcc/pic32c/6.2.1/../../../../pic32c/lib/v7e-m/fpv4-sp/hard\libpic32c.a(data_init.o)
 .text          0x00000000        0x0 c:/program files/microchip/xc32/v2.40/bin/bin/../../lib/gcc/pic32c/6.2.1/../../../../pic32c/lib/v7e-m/fpv4-sp/hard\libc_nano.a(lib_a-init.o)
 .data          0x00000000        0x0 c:/program files/microchip/xc32/v2.40/bin/bin/../../lib/gcc/pic32c/6.2.1/../../../../pic32c/lib/v7e-m/fpv4-sp/hard\libc_nano.a(lib_a-init.o)
 .bss           0x00000000        0x0 c:/program files/microchip/xc32/v2.40/bin/bin/../../lib/gcc/pic32c/6.2.1/../../../../pic32c/lib/v7e-m/fpv4-sp/hard\libc_nano.a(lib_a-init.o)
 .text          0x00000000        0x0 c:/program files/microchip/xc32/v2.40/bin/bin/../../lib/gcc/pic32c/6.2.1/../../../../pic32c/lib/v7e-m/fpv4-sp/hard\libc_nano.a(lib_a-malloc.o)
 .data          0x00000000        0x0 c:/program files/microchip/xc32/v2.40/bin/bin/../../lib/gcc/pic32c/6.2.1/../../../../pic32c/lib/v7e-m/fpv4-sp/hard\libc_nano.a(lib_a-malloc.o)
 .bss           0x00000000        0x0 c:/program files/microchip/xc32/v2.40/bin/bin/../../lib/gcc/pic32c/6.2.1/../../../../pic32c/lib/v7e-m/fpv4-sp/hard\libc_nano.a(lib_a-malloc.o)
 .text          0x00000000        0x0 c:/program files/microchip/xc32/v2.40/bin/bin/../../lib/gcc/pic32c/6.2.1/../../../../pic32c/lib/v7e-m/fpv4-sp/hard\libc_nano.a(lib_a-memcpy-stub.o)
 .data          0x00000000        0x0 c:/program files/microchip/xc32/v2.40/bin/bin/../../lib/gcc/pic32c/6.2.1/../../../../pic32c/lib/v7e-m/fpv4-sp/hard\libc_nano.a(lib_a-memcpy-stub.o)
 .bss           0x00000000        0x0 c:/program files/microchip/xc32/v2.40/bin/bin/../../lib/gcc/pic32c/6.2.1/../../../../pic32c/lib/v7e-m/fpv4-sp/hard\libc_nano.a(lib_a-memcpy-stub.o)
 .text          0x00000000        0x0 c:/program files/microchip/xc32/v2.40/bin/bin/../../lib/gcc/pic32c/6.2.1/../../../../pic32c/lib/v7e-m/fpv4-sp/hard\libc_nano.a(lib_a-memset.o)
 .data          0x00000000        0x0 c:/program files/microchip/xc32/v2.40/bin/bin/../../lib/gcc/pic32c/6.2.1/../../../../pic32c/lib/v7e-m/fpv4-sp/hard\libc_nano.a(lib_a-memset.o)
 .bss           0x00000000        0x0 c:/program files/microchip/xc32/v2.40/bin/bin/../../lib/gcc/pic32c/6.2.1/../../../../pic32c/lib/v7e-m/fpv4-sp/hard\libc_nano.a(lib_a-memset.o)
 .text          0x00000000        0x0 c:/program files/microchip/xc32/v2.40/bin/bin/../../lib/gcc/pic32c/6.2.1/../../../../pic32c/lib/v7e-m/fpv4-sp/hard\libc_nano.a(lib_a-nano-freer.o)
 .data          0x00000000        0x0 c:/program files/microchip/xc32/v2.40/bin/bin/../../lib/gcc/pic32c/6.2.1/../../../../pic32c/lib/v7e-m/fpv4-sp/hard\libc_nano.a(lib_a-nano-freer.o)
 .bss           0x00000000        0x0 c:/program files/microchip/xc32/v2.40/bin/bin/../../lib/gcc/pic32c/6.2.1/../../../../pic32c/lib/v7e-m/fpv4-sp/hard\libc_nano.a(lib_a-nano-freer.o)
 .text          0x00000000        0x0 c:/program files/microchip/xc32/v2.40/bin/bin/../../lib/gcc/pic32c/6.2.1/../../../../pic32c/lib/v7e-m/fpv4-sp/hard\libc_nano.a(lib_a-nano-mallocr.o)
 .data          0x00000000        0x0 c:/program files/microchip/xc32/v2.40/bin/bin/../../lib/gcc/pic32c/6.2.1/../../../../pic32c/lib/v7e-m/fpv4-sp/hard\libc_nano.a(lib_a-nano-mallocr.o)
 .bss           0x00000000        0x0 c:/program files/microchip/xc32/v2.40/bin/bin/../../lib/gcc/pic32c/6.2.1/../../../../pic32c/lib/v7e-m/fpv4-sp/hard\libc_nano.a(lib_a-nano-mallocr.o)
 .text          0x00000000        0x0 c:/program files/microchip/xc32/v2.40/bin/bin/../../lib/gcc/pic32c/6.2.1/../../../../pic32c/lib/v7e-m/fpv4-sp/hard\libc_nano.a(lib_a-sbrkr.o)
 .data          0x00000000        0x0 c:/program files/microchip/xc32/v2.40/bin/bin/../../lib/gcc/pic32c/6.2.1/../../../../pic32c/lib/v7e-m/fpv4-sp/hard\libc_nano.a(lib_a-sbrkr.o)
 .bss           0x00000000        0x0 c:/program files/microchip/xc32/v2.40/bin/bin/../../lib/gcc/pic32c/6.2.1/../../../../pic32c/lib/v7e-m/fpv4-sp/hard\libc_nano.a(lib_a-sbrkr.o)
 .data          0x00000000        0x0 c:/program files/microchip/xc32/v2.40/bin/bin/../../lib/gcc/pic32c/6.2.1/../../../../pic32c/lib/v7e-m/fpv4-sp/hard\libc_nano.a(lib_a-strlen.o)
 .bss           0x00000000        0x0 c:/program files/microchip/xc32/v2.40/bin/bin/../../lib/gcc/pic32c/6.2.1/../../../../pic32c/lib/v7e-m/fpv4-sp/hard\libc_nano.a(lib_a-strlen.o)
 .text          0x00000000        0x0 c:/program files/microchip/xc32/v2.40/bin/bin/../../lib/gcc/pic32c/6.2.1/../../../../pic32c/lib/v7e-m/fpv4-sp/hard\libc_nano.a(lib_a-impure.o)
 .data          0x00000000        0x0 c:/program files/microchip/xc32/v2.40/bin/bin/../../lib/gcc/pic32c/6.2.1/../../../../pic32c/lib/v7e-m/fpv4-sp/hard\libc_nano.a(lib_a-impure.o)
 .bss           0x00000000        0x0 c:/program files/microchip/xc32/v2.40/bin/bin/../../lib/gcc/pic32c/6.2.1/../../../../pic32c/lib/v7e-m/fpv4-sp/hard\libc_nano.a(lib_a-impure.o)
 .rodata._global_impure_ptr
                0x00000000        0x4 c:/program files/microchip/xc32/v2.40/bin/bin/../../lib/gcc/pic32c/6.2.1/../../../../pic32c/lib/v7e-m/fpv4-sp/hard\libc_nano.a(lib_a-impure.o)
 .text          0x00000000        0x0 c:/program files/microchip/xc32/v2.40/bin/bin/../../lib/gcc/pic32c/6.2.1/../../../../pic32c/lib/v7e-m/fpv4-sp/hard\libc_nano.a(lib_a-mlock.o)
 .data          0x00000000        0x0 c:/program files/microchip/xc32/v2.40/bin/bin/../../lib/gcc/pic32c/6.2.1/../../../../pic32c/lib/v7e-m/fpv4-sp/hard\libc_nano.a(lib_a-mlock.o)
 .bss           0x00000000        0x0 c:/program files/microchip/xc32/v2.40/bin/bin/../../lib/gcc/pic32c/6.2.1/../../../../pic32c/lib/v7e-m/fpv4-sp/hard\libc_nano.a(lib_a-mlock.o)
 .text          0x00000000        0x0 c:/program files/microchip/xc32/v2.40/bin/bin/../../lib/gcc/pic32c/6.2.1/../../../../pic32c/lib/v7e-m/fpv4-sp/hard\libc_nano.a(lib_a-reent.o)
 .data          0x00000000        0x0 c:/program files/microchip/xc32/v2.40/bin/bin/../../lib/gcc/pic32c/6.2.1/../../../../pic32c/lib/v7e-m/fpv4-sp/hard\libc_nano.a(lib_a-reent.o)
 .bss           0x00000000        0x0 c:/program files/microchip/xc32/v2.40/bin/bin/../../lib/gcc/pic32c/6.2.1/../../../../pic32c/lib/v7e-m/fpv4-sp/hard\libc_nano.a(lib_a-reent.o)
 .text.cleanup_glue
                0x00000000       0x1a c:/program files/microchip/xc32/v2.40/bin/bin/../../lib/gcc/pic32c/6.2.1/../../../../pic32c/lib/v7e-m/fpv4-sp/hard\libc_nano.a(lib_a-reent.o)
 .text._reclaim_reent
                0x00000000       0xb8 c:/program files/microchip/xc32/v2.40/bin/bin/../../lib/gcc/pic32c/6.2.1/../../../../pic32c/lib/v7e-m/fpv4-sp/hard\libc_nano.a(lib_a-reent.o)
 .text          0x00000000        0x0 c:/program files/microchip/xc32/v2.40/bin/bin/../../lib/gcc/pic32c/6.2.1/../../../../pic32c/lib/v7e-m/fpv4-sp/hard\libpic32c.a(sbrk.o)
 .data          0x00000000        0x0 c:/program files/microchip/xc32/v2.40/bin/bin/../../lib/gcc/pic32c/6.2.1/../../../../pic32c/lib/v7e-m/fpv4-sp/hard\libpic32c.a(sbrk.o)
 .text          0x00000000        0x0 c:/program files/microchip/xc32/v2.40/bin/bin/../../lib/gcc/pic32c/6.2.1/v7e-m/fpv4-sp/hard/crtend.o
 .data          0x00000000        0x0 c:/program files/microchip/xc32/v2.40/bin/bin/../../lib/gcc/pic32c/6.2.1/v7e-m/fpv4-sp/hard/crtend.o
 .bss           0x00000000        0x0 c:/program files/microchip/xc32/v2.40/bin/bin/../../lib/gcc/pic32c/6.2.1/v7e-m/fpv4-sp/hard/crtend.o
 .eh_frame      0x00000000        0x4 c:/program files/microchip/xc32/v2.40/bin/bin/../../lib/gcc/pic32c/6.2.1/v7e-m/fpv4-sp/hard/crtend.o
 .comment       0x00000000       0x3d c:/program files/microchip/xc32/v2.40/bin/bin/../../lib/gcc/pic32c/6.2.1/v7e-m/fpv4-sp/hard/crtend.o
 .ARM.attributes
                0x00000000       0x34 c:/program files/microchip/xc32/v2.40/bin/bin/../../lib/gcc/pic32c/6.2.1/v7e-m/fpv4-sp/hard/crtend.o
 .text          0x00000000        0x0 c:/program files/microchip/xc32/v2.40/bin/bin/../../lib/gcc/pic32c/6.2.1/v7e-m/fpv4-sp/hard/crtn.o
 .data          0x00000000        0x0 c:/program files/microchip/xc32/v2.40/bin/bin/../../lib/gcc/pic32c/6.2.1/v7e-m/fpv4-sp/hard/crtn.o
 .bss           0x00000000        0x0 c:/program files/microchip/xc32/v2.40/bin/bin/../../lib/gcc/pic32c/6.2.1/v7e-m/fpv4-sp/hard/crtn.o

Memory Configuration

Name             Origin             Length             Attributes
rom              0x00000000         0x000fe000         xrl
ram              0x20000000         0x00040000         xw !r
config_eeprom_mem 0x0003e000         0x00002000         xrl
config_00804000  0x00804000         0x00000004
config_00804004  0x00804004         0x00000004
config_00804008  0x00804008         0x00000004
*default*        0x00000000         0xffffffff

Linker script and memory map

LOAD c:/program files/microchip/xc32/v2.40/bin/bin/../../lib/gcc/pic32c/6.2.1/v7e-m/fpv4-sp/hard/crti.o
LOAD c:/program files/microchip/xc32/v2.40/bin/bin/../../lib/gcc/pic32c/6.2.1/v7e-m/fpv4-sp/hard/crtbegin.o
LOAD build/LAN9255_SQI_DIRECT_MODE/production/_ext/1984496892/plib_clock.o
LOAD build/LAN9255_SQI_DIRECT_MODE/production/_ext/1865131932/plib_cmcc.o
LOAD build/LAN9255_SQI_DIRECT_MODE/production/_ext/60167341/plib_eic.o
LOAD build/LAN9255_SQI_DIRECT_MODE/production/_ext/1986646378/plib_evsys.o
LOAD build/LAN9255_SQI_DIRECT_MODE/production/_ext/1865468468/plib_nvic.o
LOAD build/LAN9255_SQI_DIRECT_MODE/production/_ext/1593096446/plib_nvmctrl.o
LOAD build/LAN9255_SQI_DIRECT_MODE/production/_ext/1865521619/plib_port.o
LOAD build/LAN9255_SQI_DIRECT_MODE/production/_ext/1865555181/plib_qspi.o
LOAD build/LAN9255_SQI_DIRECT_MODE/production/_ext/1865555181/plib_qspi_spi.o
LOAD build/LAN9255_SQI_DIRECT_MODE/production/_ext/1827571544/plib_systick.o
LOAD build/LAN9255_SQI_DIRECT_MODE/production/_ext/163028504/xc32_monitor.o
LOAD build/LAN9255_SQI_DIRECT_MODE/production/_ext/1881668453/sys_int.o
LOAD build/LAN9255_SQI_DIRECT_MODE/production/_ext/1171490990/exceptions.o
LOAD build/LAN9255_SQI_DIRECT_MODE/production/_ext/1171490990/initialization.o
LOAD build/LAN9255_SQI_DIRECT_MODE/production/_ext/1171490990/interrupts.o
LOAD build/LAN9255_SQI_DIRECT_MODE/production/_ext/1171490990/libc_syscalls.o
LOAD build/LAN9255_SQI_DIRECT_MODE/production/_ext/1171490990/startup_xc32.o
LOAD build/LAN9255_SQI_DIRECT_MODE/production/_ext/1171490990/tasks.o
LOAD build/LAN9255_SQI_DIRECT_MODE/production/_ext/1671622016/Drivers.o
LOAD build/LAN9255_SQI_DIRECT_MODE/production/_ext/108147519/ESC_Utils.o
LOAD build/LAN9255_SQI_DIRECT_MODE/production/_ext/108147519/LAN925x.o
LOAD build/LAN9255_SQI_DIRECT_MODE/production/_ext/108134065/bootmode.o
LOAD build/LAN9255_SQI_DIRECT_MODE/production/_ext/108134065/coeappl.o
LOAD build/LAN9255_SQI_DIRECT_MODE/production/_ext/108134065/ecatappl.o
LOAD build/LAN9255_SQI_DIRECT_MODE/production/_ext/108134065/ecatcoe.o
LOAD build/LAN9255_SQI_DIRECT_MODE/production/_ext/108134065/ecatfoe.o
LOAD build/LAN9255_SQI_DIRECT_MODE/production/_ext/108134065/ecatslv.o
LOAD build/LAN9255_SQI_DIRECT_MODE/production/_ext/108134065/emcy.o
LOAD build/LAN9255_SQI_DIRECT_MODE/production/_ext/108134065/foeappl.o
LOAD build/LAN9255_SQI_DIRECT_MODE/production/_ext/108134065/mailbox.o
LOAD build/LAN9255_SQI_DIRECT_MODE/production/_ext/108134065/objdef.o
LOAD build/LAN9255_SQI_DIRECT_MODE/production/_ext/108134065/sample_app.o
LOAD build/LAN9255_SQI_DIRECT_MODE/production/_ext/108134065/sdoserv.o
LOAD build/LAN9255_SQI_DIRECT_MODE/production/_ext/1360937237/main.o
LOAD build/LAN9255_SQI_DIRECT_MODE/production/_ext/1360937237/app.o
LOAD build/LAN9255_SQI_DIRECT_MODE/production/_ext/1360937237/Developer_Test.o
                0x00000001                __MPLAB_BUILD = 0x1
                0x000fe000                __rom_end = (ORIGIN (rom) + LENGTH (rom))
                0x20040000                __ram_end = (ORIGIN (ram) + LENGTH (ram))

.config_00804000
 *(.config_00804000)

.config_eeprom  0x0003e000      0x800
 *(.config_eeprom)
 .config_eeprom
                0x0003e000      0x800 build/LAN9255_SQI_DIRECT_MODE/production/_ext/1360937237/app.o
                0x0003e000                aEepromData

.config_00804004
 *(.config_00804004)

.config_00804008
 *(.config_00804008)

.vectors        0x00000000      0x260
                0x00000000                . = ALIGN (0x4)
                0x00000000                _sfixed = .
 *(.vectors .vectors.* .vectors_default .vectors_default.*)
 .vectors       0x00000000      0x260 build/LAN9255_SQI_DIRECT_MODE/production/_ext/1171490990/interrupts.o
                0x00000000                exception_table
 *(.isr_vector)
 *(.reset*)
 *(.after_vectors)

.text           0x00000260       0x20
                0x00000260                . = ALIGN (0x4)
 *(.glue_7t)
 .glue_7t       0x00000260        0x0 linker stubs
 *(.glue_7)
 .glue_7        0x00000260        0x0 linker stubs
 *(.gnu.linkonce.r.*)
 *(.ARM.extab* .gnu.linkonce.armextab.*)
                0x00000260                . = ALIGN (0x4)
 *(.init)
 .init          0x00000260        0x4 c:/program files/microchip/xc32/v2.40/bin/bin/../../lib/gcc/pic32c/6.2.1/v7e-m/fpv4-sp/hard/crti.o
                0x00000260                _init
 .init          0x00000264        0x8 c:/program files/microchip/xc32/v2.40/bin/bin/../../lib/gcc/pic32c/6.2.1/v7e-m/fpv4-sp/hard/crtn.o
                0x0000026c                . = ALIGN (0x4)
                0x0000026c                __preinit_array_start = .
 *(.preinit_array)
                0x0000026c                __preinit_array_end = .
                0x0000026c                . = ALIGN (0x4)
                0x0000026c                __init_array_start = .
 *(SORT(.init_array.*))
 *(.init_array)
 .init_array    0x0000026c        0x4 c:/program files/microchip/xc32/v2.40/bin/bin/../../lib/gcc/pic32c/6.2.1/v7e-m/fpv4-sp/hard/crtbegin.o
                0x00000270                __init_array_end = .
                0x00000270                . = ALIGN (0x4)
 *crtbegin.o(.ctors)
 *(EXCLUDE_FILE(*crtend.o) .ctors)
 *(SORT(.ctors.*))
 *crtend.o(.ctors)
                0x00000270                . = ALIGN (0x4)
 *(.fini)
 .fini          0x00000270        0x4 c:/program files/microchip/xc32/v2.40/bin/bin/../../lib/gcc/pic32c/6.2.1/v7e-m/fpv4-sp/hard/crti.o
                0x00000270                _fini
 .fini          0x00000274        0x8 c:/program files/microchip/xc32/v2.40/bin/bin/../../lib/gcc/pic32c/6.2.1/v7e-m/fpv4-sp/hard/crtn.o
                0x0000027c                . = ALIGN (0x4)
                0x0000027c                __fini_array_start = .
 *(.fini_array)
 .fini_array    0x0000027c        0x4 c:/program files/microchip/xc32/v2.40/bin/bin/../../lib/gcc/pic32c/6.2.1/v7e-m/fpv4-sp/hard/crtbegin.o
 *(SORT(.fini_array.*))
                0x00000280                __fini_array_end = .
 *crtbegin.o(.dtors)
 *(EXCLUDE_FILE(*crtend.o) .dtors)
 *(SORT(.dtors.*))
 *crtend.o(.dtors)
                0x00000280                . = ALIGN (0x4)
                0x00000280                _efixed = .
                [!provide]                PROVIDE (__exidx_start, .)

.ARM.exidx
 *(.ARM.exidx* .gnu.linkonce.armexidx.*)
                [!provide]                PROVIDE (__exidx_end, .)
                0x00000280                . = ALIGN (0x4)
                0x00000280                _etext = .

.bss            0x20000000     0x23e0
                0x20000000                . = ALIGN (0x4)
                0x20000000                __bss_start__ = .
                0x20000000                _sbss = .
                0x20000000                _szero = .
 *(COMMON)
 COMMON         0x20000000       0xc0 build/LAN9255_SQI_DIRECT_MODE/production/_ext/60167341/plib_eic.o
                0x20000000                eicCallbackObject
 COMMON         0x200000c0        0xc build/LAN9255_SQI_DIRECT_MODE/production/_ext/1827571544/plib_systick.o
                0x200000c0                systick
 COMMON         0x200000cc        0x8 build/LAN9255_SQI_DIRECT_MODE/production/_ext/108134065/coeappl.o
                0x200000cc                u32LastDc32Value
                0x200000d0                u32CheckForDcOverrunCnt
 COMMON         0x200000d4       0xe0 build/LAN9255_SQI_DIRECT_MODE/production/_ext/108134065/ecatappl.o
                0x200000d4                pAPPL_EEPROM_Store
                0x200000d8                bMinCycleTimeMeasurementStarted
                0x200000dc                u32CycleTimeStartValue
                0x200000e0                pAPPL_EEPROM_Read
                0x200000e4                pAPPL_EEPROM_Write
                0x200000e8                bRunApplication
                0x200000ec                u32SystemTimeReadFailure
                0x200000f0                bEcatWaitForInputUpdate
                0x200000f4                u32MinCycleTimeValue
                0x200000f8                aPdOutputData
                0x2000013c                pAPPL_FoeError
                0x20000140                u16EepromStoreTimeoutCounter
                0x20000142                EepromReadSize
                0x20000144                pAPPL_FoeReadData
                0x20000148                pAPPL_MainLoop
                0x2000014c                bEtherCATErrorLed
                0x20000150                u32MinCycleTimeStartValue
                0x20000154                aPdInputData
                0x20000198                pEEPROM
                0x2000019c                bEtherCATRunLed
                0x200001a0                pAPPL_FoeWriteData
                0x200001a4                pAPPL_EEPROM_Reload
                0x200001a8                pAPPL_FoeRead
                0x200001ac                u16EepromStoreTimeoutValue
                0x200001b0                pAPPL_FoeWrite
 COMMON         0x200001b4        0x4 build/LAN9255_SQI_DIRECT_MODE/production/_ext/108134065/ecatcoe.o
                0x200001b4                pCoeSendStored
 COMMON         0x200001b8       0x16 build/LAN9255_SQI_DIRECT_MODE/production/_ext/108134065/ecatfoe.o
                0x200001b8                u32FileOffset
                0x200001bc                u16FileAccessState
                0x200001c0                u32PacketNo
                0x200001c4                pFoeSendStored
                0x200001c8                u32LastFileOffset
                0x200001cc                u16FoeMaxSendBlockSize
 *fill*         0x200001ce        0x2 
 COMMON         0x200001d0       0x52 build/LAN9255_SQI_DIRECT_MODE/production/_ext/108134065/ecatslv.o
                0x200001d0                b3BufferMode
                0x200001d2                nEcatStateTrans
                0x200001d4                EcatWdCounter
                0x200001d6                bApplEsmPending
                0x200001d7                nAlStatus
                0x200001d8                nPdOutputSize
                0x200001da                u16LocalErrorCode
                0x200001dc                Sync0WdCounter
                0x200001de                bLocalErrorFlag
                0x200001e0                LatchInputSync0Counter
                0x200001e2                i16WaitForPllRunningCnt
                0x200001e4                nEscAddrOutputData
                0x200001e6                Sync0WdValue
                0x200001e8                u8EcatRunLed
                0x200001ea                i16WaitForPllRunningTimeout
                0x200001ec                Sync1WdValue
                0x200001ee                u16ALEventMask
                0x200001f0                bDcRunning
                0x200001f4                u32dummy
                0x200001f8                SyncManInfo
                0x20000200                b32BitDc
                0x20000202                LatchInputSync0Value
                0x20000204                bEcatWaitForAlControlRes
                0x20000206                nPdInputSize
                0x20000208                u16SmSync0Value
                0x2000020a                nMaxEscAddress
                0x2000020c                bEcatFirstOutputsReceived
                0x2000020d                bSmSyncSequenceValid
                0x2000020e                EsmTimeoutCounter
                0x20000210                bBootMode
                0x20000211                bDcSyncActive
                0x20000212                bEcatOutputUpdateRunning
                0x20000214                Sync1WdCounter
                0x20000216                EcatWdValue
                0x20000218                bEcatInputUpdateRunning
                0x20000219                bEscIntEnabled
                0x2000021a                bWdTrigger
                0x2000021c                u16SmSync0Counter
                0x2000021e                nMaxSyncMan
                0x2000021f                u8EcatErrorLed
                0x20000220                nEscAddrInputData
 *fill*         0x20000222        0x2 
 COMMON         0x20000224       0x28 build/LAN9255_SQI_DIRECT_MODE/production/_ext/108134065/emcy.o
                0x20000224                sSendEmcyQueue
                0x20000234                asEmcy
                0x2000023c                sEmptyEmcyQueue
 COMMON         0x2000024c       0x94 build/LAN9255_SQI_DIRECT_MODE/production/_ext/108134065/mailbox.o
                0x2000024c                u8MbxReadCounter
                0x20000250                sMbxSendQueue
                0x20000284                sMbxReceiveQueue
                0x200002b8                bNoMbxMemoryAvailable
                0x200002b9                bSendMbxIsFull
                0x200002ba                bMbxRunning
                0x200002bc                u16EscAddrReceiveMbx
                0x200002c0                psStoreMbx
                0x200002c4                u16SendMbxSize
                0x200002c8                psReadMbx
                0x200002cc                bReceiveMbxIsLocked
                0x200002ce                u16EscAddrSendMbx
                0x200002d0                psWriteMbx
                0x200002d4                u8MbxWriteCounter
                0x200002d5                u8MailboxSendReqStored
                0x200002d6                u16ReceiveMbxSize
                0x200002d8                bMbxRepeatToggle
                0x200002dc                psRepeatMbx
 COMMON         0x200002e0       0x8e build/LAN9255_SQI_DIRECT_MODE/production/_ext/108134065/objdef.o
                0x200002e0                sSyncManInPar
                0x20000324                sSyncManOutPar
                0x20000368                bSyncSetByUser
                0x2000036c                sCycleDiag
 *fill*         0x2000036e        0x2 
 COMMON         0x20000370     0x2016 build/LAN9255_SQI_DIRECT_MODE/production/_ext/108134065/sample_app.o
                0x20000370                aFileData
                0x20002370                aFileName
 *fill*         0x20002386        0x2 
 COMMON         0x20002388       0x4d build/LAN9255_SQI_DIRECT_MODE/production/_ext/108134065/sdoserv.o
                0x20002388                nSdoInfoIndex
                0x2000238c                pStoreData
                0x20002390                nSdoSegBytesToHandle
                0x20002394                bSdoSegAccess
                0x20002395                bSdoSegFollows
                0x20002398                nSdoSegCompleteSize
                0x2000239c                pSdoPendFunc
                0x200023a0                u8PendingSdo
                0x200023a1                bStoreCompleteAccess
                0x200023a2                bSdoSegLastToggle
                0x200023a3                nSdoSegService
                0x200023a4                pSdoInfoObjEntry
                0x200023a8                nSdoInfoFragmentsLeft
                0x200023ac                pSdoResStored
                0x200023b0                u32StoreDataSize
                0x200023b4                pSdoSegData
                0x200023b8                nSdoSegIndex
                0x200023bc                aSdoInfoHeader
                0x200023cc                pSdoSegObjEntry
                0x200023d0                nSdoSegSubindex
                0x200023d2                u16StoreIndex
                0x200023d4                u8StoreSubindex
 *fill*         0x200023d5        0x3 
 COMMON         0x200023d8        0x1 build/LAN9255_SQI_DIRECT_MODE/production/_ext/1360937237/app.o
                0x200023d8                appData
 *fill*         0x200023d9        0x3 
 COMMON         0x200023dc        0x4 c:/program files/microchip/xc32/v2.40/bin/bin/../../lib/gcc/pic32c/6.2.1/../../../../pic32c/lib/v7e-m/fpv4-sp/hard\libc_nano.a(lib_a-reent.o)
                0x200023dc                errno
                0x200023e0                . = ALIGN (0x4)
                0x200023e0                __bss_end__ = .
                0x200023e0                _ebss = .
                0x200023e0                _ezero = .
                0x200023e0                . = ALIGN (0x4)
                0x200023e0                _end = .
                0x2003ffff                _ram_end_ = ((ORIGIN (ram) + LENGTH (ram)) - 0x1)
                0x00000200                _min_heap_size = 0x200
START GROUP
LOAD c:/program files/microchip/xc32/v2.40/bin/bin/../../lib/gcc/pic32c/6.2.1/../../../../pic32c/lib/v7e-m/fpv4-sp/hard\libpic32c.a
LOAD c:/program files/microchip/xc32/v2.40/bin/bin/../../lib/gcc/pic32c/6.2.1/v7e-m/fpv4-sp/hard\libgcc.a
LOAD c:/program files/microchip/xc32/v2.40/bin/bin/../../lib/gcc/pic32c/6.2.1/../../../../pic32c/lib/v7e-m/fpv4-sp/hard\libm_nano.a
LOAD c:/program files/microchip/xc32/v2.40/bin/bin/../../lib/gcc/pic32c/6.2.1/../../../../pic32c/lib/v7e-m/fpv4-sp/hard\libc_nano.a
END GROUP
LOAD c:/program files/microchip/xc32/v2.40/bin/bin/../../lib/gcc/pic32c/6.2.1/v7e-m/fpv4-sp/hard/crtend.o
LOAD c:/program files/microchip/xc32/v2.40/bin/bin/../../lib/gcc/pic32c/6.2.1/v7e-m/fpv4-sp/hard/crtn.o
OUTPUT(dist/LAN9255_SQI_DIRECT_MODE/production/EVB_LAN9255_IO_FoE.X.production.elf elf32-littlearm)
LOAD stack
LOAD data_init

.ARM.attributes
                0x00000000       0x30
 .ARM.attributes
                0x00000000       0x22 c:/program files/microchip/xc32/v2.40/bin/bin/../../lib/gcc/pic32c/6.2.1/v7e-m/fpv4-sp/hard/crti.o
 .ARM.attributes
                0x00000022       0x34 c:/program files/microchip/xc32/v2.40/bin/bin/../../lib/gcc/pic32c/6.2.1/v7e-m/fpv4-sp/hard/crtbegin.o
 .ARM.attributes
                0x00000056       0x39 build/LAN9255_SQI_DIRECT_MODE/production/_ext/1984496892/plib_clock.o
 .ARM.attributes
                0x0000008f       0x39 build/LAN9255_SQI_DIRECT_MODE/production/_ext/60167341/plib_eic.o
 .ARM.attributes
                0x000000c8       0x39 build/LAN9255_SQI_DIRECT_MODE/production/_ext/1986646378/plib_evsys.o
 .ARM.attributes
                0x00000101       0x39 build/LAN9255_SQI_DIRECT_MODE/production/_ext/1865468468/plib_nvic.o
 .ARM.attributes
                0x0000013a       0x39 build/LAN9255_SQI_DIRECT_MODE/production/_ext/1593096446/plib_nvmctrl.o
 .ARM.attributes
                0x00000173       0x39 build/LAN9255_SQI_DIRECT_MODE/production/_ext/1865521619/plib_port.o
 .ARM.attributes
                0x000001ac       0x39 build/LAN9255_SQI_DIRECT_MODE/production/_ext/1865555181/plib_qspi.o
 .ARM.attributes
                0x000001e5       0x39 build/LAN9255_SQI_DIRECT_MODE/production/_ext/1827571544/plib_systick.o
 .ARM.attributes
                0x0000021e       0x39 build/LAN9255_SQI_DIRECT_MODE/production/_ext/1171490990/exceptions.o
 .ARM.attributes
                0x00000257       0x39 build/LAN9255_SQI_DIRECT_MODE/production/_ext/1171490990/initialization.o
 .ARM.attributes
                0x00000290       0x39 build/LAN9255_SQI_DIRECT_MODE/production/_ext/1171490990/interrupts.o
 .ARM.attributes
                0x000002c9       0x39 build/LAN9255_SQI_DIRECT_MODE/production/_ext/1171490990/startup_xc32.o
 .ARM.attributes
                0x00000302       0x39 build/LAN9255_SQI_DIRECT_MODE/production/_ext/1171490990/tasks.o
 .ARM.attributes
                0x0000033b       0x39 build/LAN9255_SQI_DIRECT_MODE/production/_ext/1671622016/Drivers.o
 .ARM.attributes
                0x00000374       0x39 build/LAN9255_SQI_DIRECT_MODE/production/_ext/108147519/ESC_Utils.o
 .ARM.attributes
                0x000003ad       0x39 build/LAN9255_SQI_DIRECT_MODE/production/_ext/108147519/LAN925x.o
 .ARM.attributes
                0x000003e6       0x39 build/LAN9255_SQI_DIRECT_MODE/production/_ext/108134065/bootmode.o
 .ARM.attributes
                0x0000041f       0x39 build/LAN9255_SQI_DIRECT_MODE/production/_ext/108134065/coeappl.o
 .ARM.attributes
                0x00000458       0x39 build/LAN9255_SQI_DIRECT_MODE/production/_ext/108134065/ecatappl.o
 .ARM.attributes
                0x00000491       0x39 build/LAN9255_SQI_DIRECT_MODE/production/_ext/108134065/ecatcoe.o
 .ARM.attributes
                0x000004ca       0x39 build/LAN9255_SQI_DIRECT_MODE/production/_ext/108134065/ecatfoe.o
 .ARM.attributes
                0x00000503       0x39 build/LAN9255_SQI_DIRECT_MODE/production/_ext/108134065/ecatslv.o
 .ARM.attributes
                0x0000053c       0x39 build/LAN9255_SQI_DIRECT_MODE/production/_ext/108134065/emcy.o
 .ARM.attributes
                0x00000575       0x39 build/LAN9255_SQI_DIRECT_MODE/production/_ext/108134065/foeappl.o
 .ARM.attributes
                0x000005ae       0x39 build/LAN9255_SQI_DIRECT_MODE/production/_ext/108134065/mailbox.o
 .ARM.attributes
                0x000005e7       0x39 build/LAN9255_SQI_DIRECT_MODE/production/_ext/108134065/objdef.o
 .ARM.attributes
                0x00000620       0x39 build/LAN9255_SQI_DIRECT_MODE/production/_ext/108134065/sample_app.o
 .ARM.attributes
                0x00000659       0x39 build/LAN9255_SQI_DIRECT_MODE/production/_ext/108134065/sdoserv.o
 .ARM.attributes
                0x00000692       0x39 build/LAN9255_SQI_DIRECT_MODE/production/_ext/1360937237/main.o
 .ARM.attributes
                0x000006cb       0x39 build/LAN9255_SQI_DIRECT_MODE/production/_ext/1360937237/app.o
 .ARM.attributes
                0x00000704       0x34 c:/program files/microchip/xc32/v2.40/bin/bin/../../lib/gcc/pic32c/6.2.1/../../../../pic32c/lib/v7e-m/fpv4-sp/hard\libpic32c.a(data_init.o)
 .ARM.attributes
                0x00000738       0x34 c:/program files/microchip/xc32/v2.40/bin/bin/../../lib/gcc/pic32c/6.2.1/../../../../pic32c/lib/v7e-m/fpv4-sp/hard\libc_nano.a(lib_a-init.o)
 .ARM.attributes
                0x0000076c       0x34 c:/program files/microchip/xc32/v2.40/bin/bin/../../lib/gcc/pic32c/6.2.1/../../../../pic32c/lib/v7e-m/fpv4-sp/hard\libc_nano.a(lib_a-malloc.o)
 .ARM.attributes
                0x000007a0       0x34 c:/program files/microchip/xc32/v2.40/bin/bin/../../lib/gcc/pic32c/6.2.1/../../../../pic32c/lib/v7e-m/fpv4-sp/hard\libc_nano.a(lib_a-memcpy-stub.o)
 .ARM.attributes
                0x000007d4       0x34 c:/program files/microchip/xc32/v2.40/bin/bin/../../lib/gcc/pic32c/6.2.1/../../../../pic32c/lib/v7e-m/fpv4-sp/hard\libc_nano.a(lib_a-memset.o)
 .ARM.attributes
                0x00000808       0x34 c:/program files/microchip/xc32/v2.40/bin/bin/../../lib/gcc/pic32c/6.2.1/../../../../pic32c/lib/v7e-m/fpv4-sp/hard\libc_nano.a(lib_a-nano-freer.o)
 .ARM.attributes
                0x0000083c       0x34 c:/program files/microchip/xc32/v2.40/bin/bin/../../lib/gcc/pic32c/6.2.1/../../../../pic32c/lib/v7e-m/fpv4-sp/hard\libc_nano.a(lib_a-nano-mallocr.o)
 .ARM.attributes
                0x00000870       0x34 c:/program files/microchip/xc32/v2.40/bin/bin/../../lib/gcc/pic32c/6.2.1/../../../../pic32c/lib/v7e-m/fpv4-sp/hard\libc_nano.a(lib_a-sbrkr.o)
 .ARM.attributes
                0x000008a4       0x1b c:/program files/microchip/xc32/v2.40/bin/bin/../../lib/gcc/pic32c/6.2.1/../../../../pic32c/lib/v7e-m/fpv4-sp/hard\libc_nano.a(lib_a-strlen.o)
 .ARM.attributes
                0x000008bf       0x34 c:/program files/microchip/xc32/v2.40/bin/bin/../../lib/gcc/pic32c/6.2.1/../../../../pic32c/lib/v7e-m/fpv4-sp/hard\libc_nano.a(lib_a-impure.o)
 .ARM.attributes
                0x000008f3       0x34 c:/program files/microchip/xc32/v2.40/bin/bin/../../lib/gcc/pic32c/6.2.1/../../../../pic32c/lib/v7e-m/fpv4-sp/hard\libc_nano.a(lib_a-mlock.o)
 .ARM.attributes
                0x00000927       0x34 c:/program files/microchip/xc32/v2.40/bin/bin/../../lib/gcc/pic32c/6.2.1/../../../../pic32c/lib/v7e-m/fpv4-sp/hard\libc_nano.a(lib_a-reent.o)
 .ARM.attributes
                0x0000095b       0x34 c:/program files/microchip/xc32/v2.40/bin/bin/../../lib/gcc/pic32c/6.2.1/../../../../pic32c/lib/v7e-m/fpv4-sp/hard\libpic32c.a(sbrk.o)
 .ARM.attributes
                0x0000098f       0x22 c:/program files/microchip/xc32/v2.40/bin/bin/../../lib/gcc/pic32c/6.2.1/v7e-m/fpv4-sp/hard/crtn.o

.comment        0x00000000       0x3c
 .comment       0x00000000       0x3c c:/program files/microchip/xc32/v2.40/bin/bin/../../lib/gcc/pic32c/6.2.1/v7e-m/fpv4-sp/hard/crtbegin.o
                                 0x3d (size before relaxing)
 .comment       0x0000003c       0x3d build/LAN9255_SQI_DIRECT_MODE/production/_ext/1984496892/plib_clock.o
 .comment       0x0000003c       0x3d build/LAN9255_SQI_DIRECT_MODE/production/_ext/60167341/plib_eic.o
 .comment       0x0000003c       0x3d build/LAN9255_SQI_DIRECT_MODE/production/_ext/1986646378/plib_evsys.o
 .comment       0x0000003c       0x3d build/LAN9255_SQI_DIRECT_MODE/production/_ext/1865468468/plib_nvic.o
 .comment       0x0000003c       0x3d build/LAN9255_SQI_DIRECT_MODE/production/_ext/1593096446/plib_nvmctrl.o
 .comment       0x0000003c       0x3d build/LAN9255_SQI_DIRECT_MODE/production/_ext/1865521619/plib_port.o
 .comment       0x0000003c       0x3d build/LAN9255_SQI_DIRECT_MODE/production/_ext/1865555181/plib_qspi.o
 .comment       0x0000003c       0x3d build/LAN9255_SQI_DIRECT_MODE/production/_ext/1827571544/plib_systick.o
 .comment       0x0000003c       0x3d build/LAN9255_SQI_DIRECT_MODE/production/_ext/1171490990/exceptions.o
 .comment       0x0000003c       0x3d build/LAN9255_SQI_DIRECT_MODE/production/_ext/1171490990/initialization.o
 .comment       0x0000003c       0x3d build/LAN9255_SQI_DIRECT_MODE/production/_ext/1171490990/interrupts.o
 .comment       0x0000003c       0x3d build/LAN9255_SQI_DIRECT_MODE/production/_ext/1171490990/startup_xc32.o
 .comment       0x0000003c       0x3d build/LAN9255_SQI_DIRECT_MODE/production/_ext/1171490990/tasks.o
 .comment       0x0000003c       0x3d build/LAN9255_SQI_DIRECT_MODE/production/_ext/1671622016/Drivers.o
 .comment       0x0000003c       0x3d build/LAN9255_SQI_DIRECT_MODE/production/_ext/108147519/ESC_Utils.o
 .comment       0x0000003c       0x3d build/LAN9255_SQI_DIRECT_MODE/production/_ext/108147519/LAN925x.o
 .comment       0x0000003c       0x3d build/LAN9255_SQI_DIRECT_MODE/production/_ext/108134065/bootmode.o
 .comment       0x0000003c       0x3d build/LAN9255_SQI_DIRECT_MODE/production/_ext/108134065/coeappl.o
 .comment       0x0000003c       0x3d build/LAN9255_SQI_DIRECT_MODE/production/_ext/108134065/ecatappl.o
 .comment       0x0000003c       0x3d build/LAN9255_SQI_DIRECT_MODE/production/_ext/108134065/ecatcoe.o
 .comment       0x0000003c       0x3d build/LAN9255_SQI_DIRECT_MODE/production/_ext/108134065/ecatfoe.o
 .comment       0x0000003c       0x3d build/LAN9255_SQI_DIRECT_MODE/production/_ext/108134065/ecatslv.o
 .comment       0x0000003c       0x3d build/LAN9255_SQI_DIRECT_MODE/production/_ext/108134065/emcy.o
 .comment       0x0000003c       0x3d build/LAN9255_SQI_DIRECT_MODE/production/_ext/108134065/foeappl.o
 .comment       0x0000003c       0x3d build/LAN9255_SQI_DIRECT_MODE/production/_ext/108134065/mailbox.o
 .comment       0x0000003c       0x3d build/LAN9255_SQI_DIRECT_MODE/production/_ext/108134065/objdef.o
 .comment       0x0000003c       0x3d build/LAN9255_SQI_DIRECT_MODE/production/_ext/108134065/sample_app.o
 .comment       0x0000003c       0x3d build/LAN9255_SQI_DIRECT_MODE/production/_ext/108134065/sdoserv.o
 .comment       0x0000003c       0x3d build/LAN9255_SQI_DIRECT_MODE/production/_ext/1360937237/main.o
 .comment       0x0000003c       0x3d build/LAN9255_SQI_DIRECT_MODE/production/_ext/1360937237/app.o
 .comment       0x0000003c       0x3d c:/program files/microchip/xc32/v2.40/bin/bin/../../lib/gcc/pic32c/6.2.1/../../../../pic32c/lib/v7e-m/fpv4-sp/hard\libpic32c.a(data_init.o)
 .comment       0x0000003c       0x3d c:/program files/microchip/xc32/v2.40/bin/bin/../../lib/gcc/pic32c/6.2.1/../../../../pic32c/lib/v7e-m/fpv4-sp/hard\libc_nano.a(lib_a-init.o)
 .comment       0x0000003c       0x3d c:/program files/microchip/xc32/v2.40/bin/bin/../../lib/gcc/pic32c/6.2.1/../../../../pic32c/lib/v7e-m/fpv4-sp/hard\libc_nano.a(lib_a-malloc.o)
 .comment       0x0000003c       0x3d c:/program files/microchip/xc32/v2.40/bin/bin/../../lib/gcc/pic32c/6.2.1/../../../../pic32c/lib/v7e-m/fpv4-sp/hard\libc_nano.a(lib_a-memcpy-stub.o)
 .comment       0x0000003c       0x3d c:/program files/microchip/xc32/v2.40/bin/bin/../../lib/gcc/pic32c/6.2.1/../../../../pic32c/lib/v7e-m/fpv4-sp/hard\libc_nano.a(lib_a-memset.o)
 .comment       0x0000003c       0x3d c:/program files/microchip/xc32/v2.40/bin/bin/../../lib/gcc/pic32c/6.2.1/../../../../pic32c/lib/v7e-m/fpv4-sp/hard\libc_nano.a(lib_a-nano-freer.o)
 .comment       0x0000003c       0x3d c:/program files/microchip/xc32/v2.40/bin/bin/../../lib/gcc/pic32c/6.2.1/../../../../pic32c/lib/v7e-m/fpv4-sp/hard\libc_nano.a(lib_a-nano-mallocr.o)
 .comment       0x0000003c       0x3d c:/program files/microchip/xc32/v2.40/bin/bin/../../lib/gcc/pic32c/6.2.1/../../../../pic32c/lib/v7e-m/fpv4-sp/hard\libc_nano.a(lib_a-sbrkr.o)
 .comment       0x0000003c       0x3d c:/program files/microchip/xc32/v2.40/bin/bin/../../lib/gcc/pic32c/6.2.1/../../../../pic32c/lib/v7e-m/fpv4-sp/hard\libc_nano.a(lib_a-impure.o)
 .comment       0x0000003c       0x3d c:/program files/microchip/xc32/v2.40/bin/bin/../../lib/gcc/pic32c/6.2.1/../../../../pic32c/lib/v7e-m/fpv4-sp/hard\libc_nano.a(lib_a-mlock.o)
 .comment       0x0000003c       0x3d c:/program files/microchip/xc32/v2.40/bin/bin/../../lib/gcc/pic32c/6.2.1/../../../../pic32c/lib/v7e-m/fpv4-sp/hard\libc_nano.a(lib_a-reent.o)
 .comment       0x0000003c       0x3d c:/program files/microchip/xc32/v2.40/bin/bin/../../lib/gcc/pic32c/6.2.1/../../../../pic32c/lib/v7e-m/fpv4-sp/hard\libpic32c.a(sbrk.o)

.debug_info     0x00000000    0x38b3f
 .debug_info    0x00000000      0xbad build/LAN9255_SQI_DIRECT_MODE/production/_ext/1984496892/plib_clock.o
 .debug_info    0x00000bad      0x83d build/LAN9255_SQI_DIRECT_MODE/production/_ext/60167341/plib_eic.o
 .debug_info    0x000013ea      0x3b8 build/LAN9255_SQI_DIRECT_MODE/production/_ext/1986646378/plib_evsys.o
 .debug_info    0x000017a2     0x1157 build/LAN9255_SQI_DIRECT_MODE/production/_ext/1865468468/plib_nvic.o
 .debug_info    0x000028f9     0x1718 build/LAN9255_SQI_DIRECT_MODE/production/_ext/1593096446/plib_nvmctrl.o
 .debug_info    0x00004011      0x874 build/LAN9255_SQI_DIRECT_MODE/production/_ext/1865521619/plib_port.o
 .debug_info    0x00004885      0xcda build/LAN9255_SQI_DIRECT_MODE/production/_ext/1865555181/plib_qspi.o
 .debug_info    0x0000555f      0x713 build/LAN9255_SQI_DIRECT_MODE/production/_ext/1827571544/plib_systick.o
 .debug_info    0x00005c72      0xfe4 build/LAN9255_SQI_DIRECT_MODE/production/_ext/1171490990/exceptions.o
 .debug_info    0x00006c56      0xf3f build/LAN9255_SQI_DIRECT_MODE/production/_ext/1171490990/initialization.o
 .debug_info    0x00007b95     0x222b build/LAN9255_SQI_DIRECT_MODE/production/_ext/1171490990/interrupts.o
 .debug_info    0x00009dc0     0x140f build/LAN9255_SQI_DIRECT_MODE/production/_ext/1171490990/startup_xc32.o
 .debug_info    0x0000b1cf      0xf14 build/LAN9255_SQI_DIRECT_MODE/production/_ext/1171490990/tasks.o
 .debug_info    0x0000c0e3     0x30b1 build/LAN9255_SQI_DIRECT_MODE/production/_ext/1671622016/Drivers.o
 .debug_info    0x0000f194     0x126f build/LAN9255_SQI_DIRECT_MODE/production/_ext/108147519/ESC_Utils.o
 .debug_info    0x00010403     0x1ef1 build/LAN9255_SQI_DIRECT_MODE/production/_ext/108147519/LAN925x.o
 .debug_info    0x000122f4     0x12aa build/LAN9255_SQI_DIRECT_MODE/production/_ext/108134065/bootmode.o
 .debug_info    0x0001359e     0x2a8e build/LAN9255_SQI_DIRECT_MODE/production/_ext/108134065/coeappl.o
 .debug_info    0x0001602c     0x2583 build/LAN9255_SQI_DIRECT_MODE/production/_ext/108134065/ecatappl.o
 .debug_info    0x000185af     0x16c2 build/LAN9255_SQI_DIRECT_MODE/production/_ext/108134065/ecatcoe.o
 .debug_info    0x00019c71     0x1a4e build/LAN9255_SQI_DIRECT_MODE/production/_ext/108134065/ecatfoe.o
 .debug_info    0x0001b6bf     0x2955 build/LAN9255_SQI_DIRECT_MODE/production/_ext/108134065/ecatslv.o
 .debug_info    0x0001e014     0x1ad6 build/LAN9255_SQI_DIRECT_MODE/production/_ext/108134065/emcy.o
 .debug_info    0x0001faea     0x1ff9 build/LAN9255_SQI_DIRECT_MODE/production/_ext/108134065/foeappl.o
 .debug_info    0x00021ae3     0x2193 build/LAN9255_SQI_DIRECT_MODE/production/_ext/108134065/mailbox.o
 .debug_info    0x00023c76     0x27a1 build/LAN9255_SQI_DIRECT_MODE/production/_ext/108134065/objdef.o
 .debug_info    0x00026417     0x2dd3 build/LAN9255_SQI_DIRECT_MODE/production/_ext/108134065/sample_app.o
 .debug_info    0x000291ea     0x2aa6 build/LAN9255_SQI_DIRECT_MODE/production/_ext/108134065/sdoserv.o
 .debug_info    0x0002bc90      0xf03 build/LAN9255_SQI_DIRECT_MODE/production/_ext/1360937237/main.o
 .debug_info    0x0002cb93     0x2398 build/LAN9255_SQI_DIRECT_MODE/production/_ext/1360937237/app.o
 .debug_info    0x0002ef2b      0x2a2 c:/program files/microchip/xc32/v2.40/bin/bin/../../lib/gcc/pic32c/6.2.1/../../../../pic32c/lib/v7e-m/fpv4-sp/hard\libpic32c.a(data_init.o)
 .debug_info    0x0002f1cd      0x41f c:/program files/microchip/xc32/v2.40/bin/bin/../../lib/gcc/pic32c/6.2.1/../../../../pic32c/lib/v7e-m/fpv4-sp/hard\libc_nano.a(lib_a-init.o)
 .debug_info    0x0002f5ec      0xe92 c:/program files/microchip/xc32/v2.40/bin/bin/../../lib/gcc/pic32c/6.2.1/../../../../pic32c/lib/v7e-m/fpv4-sp/hard\libc_nano.a(lib_a-malloc.o)
 .debug_info    0x0003047e      0xe68 c:/program files/microchip/xc32/v2.40/bin/bin/../../lib/gcc/pic32c/6.2.1/../../../../pic32c/lib/v7e-m/fpv4-sp/hard\libc_nano.a(lib_a-memcpy-stub.o)
 .debug_info    0x000312e6     0x15ae c:/program files/microchip/xc32/v2.40/bin/bin/../../lib/gcc/pic32c/6.2.1/../../../../pic32c/lib/v7e-m/fpv4-sp/hard\libc_nano.a(lib_a-memset.o)
 .debug_info    0x00032894     0x11c1 c:/program files/microchip/xc32/v2.40/bin/bin/../../lib/gcc/pic32c/6.2.1/../../../../pic32c/lib/v7e-m/fpv4-sp/hard\libc_nano.a(lib_a-nano-freer.o)
 .debug_info    0x00033a55     0x1259 c:/program files/microchip/xc32/v2.40/bin/bin/../../lib/gcc/pic32c/6.2.1/../../../../pic32c/lib/v7e-m/fpv4-sp/hard\libc_nano.a(lib_a-nano-mallocr.o)
 .debug_info    0x00034cae      0xedf c:/program files/microchip/xc32/v2.40/bin/bin/../../lib/gcc/pic32c/6.2.1/../../../../pic32c/lib/v7e-m/fpv4-sp/hard\libc_nano.a(lib_a-sbrkr.o)
 .debug_info    0x00035b8d      0x12a c:/program files/microchip/xc32/v2.40/bin/bin/../../lib/gcc/pic32c/6.2.1/../../../../pic32c/lib/v7e-m/fpv4-sp/hard\libc_nano.a(lib_a-strlen.o)
 .debug_info    0x00035cb7      0xdef c:/program files/microchip/xc32/v2.40/bin/bin/../../lib/gcc/pic32c/6.2.1/../../../../pic32c/lib/v7e-m/fpv4-sp/hard\libc_nano.a(lib_a-impure.o)
 .debug_info    0x00036aa6      0xe2c c:/program files/microchip/xc32/v2.40/bin/bin/../../lib/gcc/pic32c/6.2.1/../../../../pic32c/lib/v7e-m/fpv4-sp/hard\libc_nano.a(lib_a-mlock.o)
 .debug_info    0x000378d2      0xfe7 c:/program files/microchip/xc32/v2.40/bin/bin/../../lib/gcc/pic32c/6.2.1/../../../../pic32c/lib/v7e-m/fpv4-sp/hard\libc_nano.a(lib_a-reent.o)
 .debug_info    0x000388b9      0x286 c:/program files/microchip/xc32/v2.40/bin/bin/../../lib/gcc/pic32c/6.2.1/../../../../pic32c/lib/v7e-m/fpv4-sp/hard\libpic32c.a(sbrk.o)

.debug_abbrev   0x00000000     0x50f7
 .debug_abbrev  0x00000000       0xfd build/LAN9255_SQI_DIRECT_MODE/production/_ext/1984496892/plib_clock.o
 .debug_abbrev  0x000000fd      0x15d build/LAN9255_SQI_DIRECT_MODE/production/_ext/60167341/plib_eic.o
 .debug_abbrev  0x0000025a       0x5e build/LAN9255_SQI_DIRECT_MODE/production/_ext/1986646378/plib_evsys.o
 .debug_abbrev  0x000002b8      0x14d build/LAN9255_SQI_DIRECT_MODE/production/_ext/1865468468/plib_nvic.o
 .debug_abbrev  0x00000405      0x25d build/LAN9255_SQI_DIRECT_MODE/production/_ext/1593096446/plib_nvmctrl.o
 .debug_abbrev  0x00000662      0x151 build/LAN9255_SQI_DIRECT_MODE/production/_ext/1865521619/plib_port.o
 .debug_abbrev  0x000007b3      0x227 build/LAN9255_SQI_DIRECT_MODE/production/_ext/1865555181/plib_qspi.o
 .debug_abbrev  0x000009da      0x15c build/LAN9255_SQI_DIRECT_MODE/production/_ext/1827571544/plib_systick.o
 .debug_abbrev  0x00000b36      0x196 build/LAN9255_SQI_DIRECT_MODE/production/_ext/1171490990/exceptions.o
 .debug_abbrev  0x00000ccc      0x1b2 build/LAN9255_SQI_DIRECT_MODE/production/_ext/1171490990/initialization.o
 .debug_abbrev  0x00000e7e      0x1a7 build/LAN9255_SQI_DIRECT_MODE/production/_ext/1171490990/interrupts.o
 .debug_abbrev  0x00001025      0x26e build/LAN9255_SQI_DIRECT_MODE/production/_ext/1171490990/startup_xc32.o
 .debug_abbrev  0x00001293      0x196 build/LAN9255_SQI_DIRECT_MODE/production/_ext/1171490990/tasks.o
 .debug_abbrev  0x00001429      0x39d build/LAN9255_SQI_DIRECT_MODE/production/_ext/1671622016/Drivers.o
 .debug_abbrev  0x000017c6      0x20f build/LAN9255_SQI_DIRECT_MODE/production/_ext/108147519/ESC_Utils.o
 .debug_abbrev  0x000019d5      0x2bb build/LAN9255_SQI_DIRECT_MODE/production/_ext/108147519/LAN925x.o
 .debug_abbrev  0x00001c90      0x1f9 build/LAN9255_SQI_DIRECT_MODE/production/_ext/108134065/bootmode.o
 .debug_abbrev  0x00001e89      0x2c0 build/LAN9255_SQI_DIRECT_MODE/production/_ext/108134065/coeappl.o
 .debug_abbrev  0x00002149      0x286 build/LAN9255_SQI_DIRECT_MODE/production/_ext/108134065/ecatappl.o
 .debug_abbrev  0x000023cf      0x1ee build/LAN9255_SQI_DIRECT_MODE/production/_ext/108134065/ecatcoe.o
 .debug_abbrev  0x000025bd      0x259 build/LAN9255_SQI_DIRECT_MODE/production/_ext/108134065/ecatfoe.o
 .debug_abbrev  0x00002816      0x2c4 build/LAN9255_SQI_DIRECT_MODE/production/_ext/108134065/ecatslv.o
 .debug_abbrev  0x00002ada      0x29d build/LAN9255_SQI_DIRECT_MODE/production/_ext/108134065/emcy.o
 .debug_abbrev  0x00002d77      0x260 build/LAN9255_SQI_DIRECT_MODE/production/_ext/108134065/foeappl.o
 .debug_abbrev  0x00002fd7      0x290 build/LAN9255_SQI_DIRECT_MODE/production/_ext/108134065/mailbox.o
 .debug_abbrev  0x00003267      0x2c2 build/LAN9255_SQI_DIRECT_MODE/production/_ext/108134065/objdef.o
 .debug_abbrev  0x00003529      0x3d1 build/LAN9255_SQI_DIRECT_MODE/production/_ext/108134065/sample_app.o
 .debug_abbrev  0x000038fa      0x2df build/LAN9255_SQI_DIRECT_MODE/production/_ext/108134065/sdoserv.o
 .debug_abbrev  0x00003bd9      0x198 build/LAN9255_SQI_DIRECT_MODE/production/_ext/1360937237/main.o
 .debug_abbrev  0x00003d71      0x2e3 build/LAN9255_SQI_DIRECT_MODE/production/_ext/1360937237/app.o
 .debug_abbrev  0x00004054       0x2a c:/program files/microchip/xc32/v2.40/bin/bin/../../lib/gcc/pic32c/6.2.1/../../../../pic32c/lib/v7e-m/fpv4-sp/hard\libpic32c.a(data_init.o)
 .debug_abbrev  0x0000407e       0xa3 c:/program files/microchip/xc32/v2.40/bin/bin/../../lib/gcc/pic32c/6.2.1/../../../../pic32c/lib/v7e-m/fpv4-sp/hard\libc_nano.a(lib_a-init.o)
 .debug_abbrev  0x00004121      0x1b3 c:/program files/microchip/xc32/v2.40/bin/bin/../../lib/gcc/pic32c/6.2.1/../../../../pic32c/lib/v7e-m/fpv4-sp/hard\libc_nano.a(lib_a-malloc.o)
 .debug_abbrev  0x000042d4      0x17c c:/program files/microchip/xc32/v2.40/bin/bin/../../lib/gcc/pic32c/6.2.1/../../../../pic32c/lib/v7e-m/fpv4-sp/hard\libc_nano.a(lib_a-memcpy-stub.o)
 .debug_abbrev  0x00004450      0x170 c:/program files/microchip/xc32/v2.40/bin/bin/../../lib/gcc/pic32c/6.2.1/../../../../pic32c/lib/v7e-m/fpv4-sp/hard\libc_nano.a(lib_a-memset.o)
 .debug_abbrev  0x000045c0      0x242 c:/program files/microchip/xc32/v2.40/bin/bin/../../lib/gcc/pic32c/6.2.1/../../../../pic32c/lib/v7e-m/fpv4-sp/hard\libc_nano.a(lib_a-nano-freer.o)
 .debug_abbrev  0x00004802      0x281 c:/program files/microchip/xc32/v2.40/bin/bin/../../lib/gcc/pic32c/6.2.1/../../../../pic32c/lib/v7e-m/fpv4-sp/hard\libc_nano.a(lib_a-nano-mallocr.o)
 .debug_abbrev  0x00004a83      0x1a8 c:/program files/microchip/xc32/v2.40/bin/bin/../../lib/gcc/pic32c/6.2.1/../../../../pic32c/lib/v7e-m/fpv4-sp/hard\libc_nano.a(lib_a-sbrkr.o)
 .debug_abbrev  0x00004c2b       0x14 c:/program files/microchip/xc32/v2.40/bin/bin/../../lib/gcc/pic32c/6.2.1/../../../../pic32c/lib/v7e-m/fpv4-sp/hard\libc_nano.a(lib_a-strlen.o)
 .debug_abbrev  0x00004c3f      0x131 c:/program files/microchip/xc32/v2.40/bin/bin/../../lib/gcc/pic32c/6.2.1/../../../../pic32c/lib/v7e-m/fpv4-sp/hard\libc_nano.a(lib_a-impure.o)
 .debug_abbrev  0x00004d70      0x165 c:/program files/microchip/xc32/v2.40/bin/bin/../../lib/gcc/pic32c/6.2.1/../../../../pic32c/lib/v7e-m/fpv4-sp/hard\libc_nano.a(lib_a-mlock.o)
 .debug_abbrev  0x00004ed5      0x1f8 c:/program files/microchip/xc32/v2.40/bin/bin/../../lib/gcc/pic32c/6.2.1/../../../../pic32c/lib/v7e-m/fpv4-sp/hard\libc_nano.a(lib_a-reent.o)
 .debug_abbrev  0x000050cd       0x2a c:/program files/microchip/xc32/v2.40/bin/bin/../../lib/gcc/pic32c/6.2.1/../../../../pic32c/lib/v7e-m/fpv4-sp/hard\libpic32c.a(sbrk.o)

.debug_loc      0x00000000     0x5530
 .debug_loc     0x00000000      0x1c4 build/LAN9255_SQI_DIRECT_MODE/production/_ext/1984496892/plib_clock.o
 .debug_loc     0x000001c4      0x1dc build/LAN9255_SQI_DIRECT_MODE/production/_ext/60167341/plib_eic.o
 .debug_loc     0x000003a0       0x44 build/LAN9255_SQI_DIRECT_MODE/production/_ext/1986646378/plib_evsys.o
 .debug_loc     0x000003e4      0x140 build/LAN9255_SQI_DIRECT_MODE/production/_ext/1865468468/plib_nvic.o
 .debug_loc     0x00000524      0x5c0 build/LAN9255_SQI_DIRECT_MODE/production/_ext/1593096446/plib_nvmctrl.o
 .debug_loc     0x00000ae4      0x324 build/LAN9255_SQI_DIRECT_MODE/production/_ext/1865521619/plib_port.o
 .debug_loc     0x00000e08      0x338 build/LAN9255_SQI_DIRECT_MODE/production/_ext/1865555181/plib_qspi.o
 .debug_loc     0x00001140      0x31c build/LAN9255_SQI_DIRECT_MODE/production/_ext/1827571544/plib_systick.o
 .debug_loc     0x0000145c      0x108 build/LAN9255_SQI_DIRECT_MODE/production/_ext/1171490990/exceptions.o
 .debug_loc     0x00001564       0x50 build/LAN9255_SQI_DIRECT_MODE/production/_ext/1171490990/initialization.o
 .debug_loc     0x000015b4      0x11c build/LAN9255_SQI_DIRECT_MODE/production/_ext/1171490990/startup_xc32.o
 .debug_loc     0x000016d0       0x2c build/LAN9255_SQI_DIRECT_MODE/production/_ext/1171490990/tasks.o
 .debug_loc     0x000016fc      0x758 build/LAN9255_SQI_DIRECT_MODE/production/_ext/1671622016/Drivers.o
 .debug_loc     0x00001e54      0x130 build/LAN9255_SQI_DIRECT_MODE/production/_ext/108147519/ESC_Utils.o
 .debug_loc     0x00001f84      0x4b0 build/LAN9255_SQI_DIRECT_MODE/production/_ext/108147519/LAN925x.o
 .debug_loc     0x00002434      0x158 build/LAN9255_SQI_DIRECT_MODE/production/_ext/108134065/bootmode.o
 .debug_loc     0x0000258c      0x370 build/LAN9255_SQI_DIRECT_MODE/production/_ext/108134065/coeappl.o
 .debug_loc     0x000028fc      0x330 build/LAN9255_SQI_DIRECT_MODE/production/_ext/108134065/ecatappl.o
 .debug_loc     0x00002c2c       0xe4 build/LAN9255_SQI_DIRECT_MODE/production/_ext/108134065/ecatcoe.o
 .debug_loc     0x00002d10       0xe4 build/LAN9255_SQI_DIRECT_MODE/production/_ext/108134065/ecatfoe.o
 .debug_loc     0x00002df4      0x682 build/LAN9255_SQI_DIRECT_MODE/production/_ext/108134065/ecatslv.o
 .debug_loc     0x00003476      0x2f4 build/LAN9255_SQI_DIRECT_MODE/production/_ext/108134065/emcy.o
 .debug_loc     0x0000376a      0x1e0 build/LAN9255_SQI_DIRECT_MODE/production/_ext/108134065/foeappl.o
 .debug_loc     0x0000394a      0x428 build/LAN9255_SQI_DIRECT_MODE/production/_ext/108134065/mailbox.o
 .debug_loc     0x00003d72      0x40e build/LAN9255_SQI_DIRECT_MODE/production/_ext/108134065/objdef.o
 .debug_loc     0x00004180      0x74e build/LAN9255_SQI_DIRECT_MODE/production/_ext/108134065/sample_app.o
 .debug_loc     0x000048ce      0x210 build/LAN9255_SQI_DIRECT_MODE/production/_ext/108134065/sdoserv.o
 .debug_loc     0x00004ade       0x2c build/LAN9255_SQI_DIRECT_MODE/production/_ext/1360937237/main.o
 .debug_loc     0x00004b0a      0x22a build/LAN9255_SQI_DIRECT_MODE/production/_ext/1360937237/app.o
 .debug_loc     0x00004d34       0x74 c:/program files/microchip/xc32/v2.40/bin/bin/../../lib/gcc/pic32c/6.2.1/../../../../pic32c/lib/v7e-m/fpv4-sp/hard\libc_nano.a(lib_a-init.o)
 .debug_loc     0x00004da8       0x58 c:/program files/microchip/xc32/v2.40/bin/bin/../../lib/gcc/pic32c/6.2.1/../../../../pic32c/lib/v7e-m/fpv4-sp/hard\libc_nano.a(lib_a-malloc.o)
 .debug_loc     0x00004e00       0xb2 c:/program files/microchip/xc32/v2.40/bin/bin/../../lib/gcc/pic32c/6.2.1/../../../../pic32c/lib/v7e-m/fpv4-sp/hard\libc_nano.a(lib_a-memcpy-stub.o)
 .debug_loc     0x00004eb2       0x4c c:/program files/microchip/xc32/v2.40/bin/bin/../../lib/gcc/pic32c/6.2.1/../../../../pic32c/lib/v7e-m/fpv4-sp/hard\libc_nano.a(lib_a-memset.o)
 .debug_loc     0x00004efe      0x141 c:/program files/microchip/xc32/v2.40/bin/bin/../../lib/gcc/pic32c/6.2.1/../../../../pic32c/lib/v7e-m/fpv4-sp/hard\libc_nano.a(lib_a-nano-freer.o)
 .debug_loc     0x0000503f      0x326 c:/program files/microchip/xc32/v2.40/bin/bin/../../lib/gcc/pic32c/6.2.1/../../../../pic32c/lib/v7e-m/fpv4-sp/hard\libc_nano.a(lib_a-nano-mallocr.o)
 .debug_loc     0x00005365       0x6d c:/program files/microchip/xc32/v2.40/bin/bin/../../lib/gcc/pic32c/6.2.1/../../../../pic32c/lib/v7e-m/fpv4-sp/hard\libc_nano.a(lib_a-sbrkr.o)
 .debug_loc     0x000053d2      0x15e c:/program files/microchip/xc32/v2.40/bin/bin/../../lib/gcc/pic32c/6.2.1/../../../../pic32c/lib/v7e-m/fpv4-sp/hard\libc_nano.a(lib_a-reent.o)

.debug_aranges  0x00000000      0xca0
 .debug_aranges
                0x00000000       0x50 build/LAN9255_SQI_DIRECT_MODE/production/_ext/1984496892/plib_clock.o
 .debug_aranges
                0x00000050       0x50 build/LAN9255_SQI_DIRECT_MODE/production/_ext/60167341/plib_eic.o
 .debug_aranges
                0x000000a0       0x20 build/LAN9255_SQI_DIRECT_MODE/production/_ext/1986646378/plib_evsys.o
 .debug_aranges
                0x000000c0       0x38 build/LAN9255_SQI_DIRECT_MODE/production/_ext/1865468468/plib_nvic.o
 .debug_aranges
                0x000000f8       0xb0 build/LAN9255_SQI_DIRECT_MODE/production/_ext/1593096446/plib_nvmctrl.o
 .debug_aranges
                0x000001a8       0x60 build/LAN9255_SQI_DIRECT_MODE/production/_ext/1865521619/plib_port.o
 .debug_aranges
                0x00000208       0x68 build/LAN9255_SQI_DIRECT_MODE/production/_ext/1865555181/plib_qspi.o
 .debug_aranges
                0x00000270       0x70 build/LAN9255_SQI_DIRECT_MODE/production/_ext/1827571544/plib_systick.o
 .debug_aranges
                0x000002e0       0x48 build/LAN9255_SQI_DIRECT_MODE/production/_ext/1171490990/exceptions.o
 .debug_aranges
                0x00000328       0x20 build/LAN9255_SQI_DIRECT_MODE/production/_ext/1171490990/initialization.o
 .debug_aranges
                0x00000348       0x20 build/LAN9255_SQI_DIRECT_MODE/production/_ext/1171490990/interrupts.o
 .debug_aranges
                0x00000368       0x38 build/LAN9255_SQI_DIRECT_MODE/production/_ext/1171490990/startup_xc32.o
 .debug_aranges
                0x000003a0       0x20 build/LAN9255_SQI_DIRECT_MODE/production/_ext/1171490990/tasks.o
 .debug_aranges
                0x000003c0       0xe0 build/LAN9255_SQI_DIRECT_MODE/production/_ext/1671622016/Drivers.o
 .debug_aranges
                0x000004a0       0x40 build/LAN9255_SQI_DIRECT_MODE/production/_ext/108147519/ESC_Utils.o
 .debug_aranges
                0x000004e0       0x90 build/LAN9255_SQI_DIRECT_MODE/production/_ext/108147519/LAN925x.o
 .debug_aranges
                0x00000570       0x38 build/LAN9255_SQI_DIRECT_MODE/production/_ext/108134065/bootmode.o
 .debug_aranges
                0x000005a8       0x70 build/LAN9255_SQI_DIRECT_MODE/production/_ext/108134065/coeappl.o
 .debug_aranges
                0x00000618       0x78 build/LAN9255_SQI_DIRECT_MODE/production/_ext/108134065/ecatappl.o
 .debug_aranges
                0x00000690       0x30 build/LAN9255_SQI_DIRECT_MODE/production/_ext/108134065/ecatcoe.o
 .debug_aranges
                0x000006c0       0x30 build/LAN9255_SQI_DIRECT_MODE/production/_ext/108134065/ecatfoe.o
 .debug_aranges
                0x000006f0       0xc8 build/LAN9255_SQI_DIRECT_MODE/production/_ext/108134065/ecatslv.o
 .debug_aranges
                0x000007b8       0x60 build/LAN9255_SQI_DIRECT_MODE/production/_ext/108134065/emcy.o
 .debug_aranges
                0x00000818       0x48 build/LAN9255_SQI_DIRECT_MODE/production/_ext/108134065/foeappl.o
 .debug_aranges
                0x00000860       0x80 build/LAN9255_SQI_DIRECT_MODE/production/_ext/108134065/mailbox.o
 .debug_aranges
                0x000008e0       0x78 build/LAN9255_SQI_DIRECT_MODE/production/_ext/108134065/objdef.o
 .debug_aranges
                0x00000958       0xe0 build/LAN9255_SQI_DIRECT_MODE/production/_ext/108134065/sample_app.o
 .debug_aranges
                0x00000a38       0x50 build/LAN9255_SQI_DIRECT_MODE/production/_ext/108134065/sdoserv.o
 .debug_aranges
                0x00000a88       0x20 build/LAN9255_SQI_DIRECT_MODE/production/_ext/1360937237/main.o
 .debug_aranges
                0x00000aa8       0x50 build/LAN9255_SQI_DIRECT_MODE/production/_ext/1360937237/app.o
 .debug_aranges
                0x00000af8       0x20 c:/program files/microchip/xc32/v2.40/bin/bin/../../lib/gcc/pic32c/6.2.1/../../../../pic32c/lib/v7e-m/fpv4-sp/hard\libpic32c.a(data_init.o)
 .debug_aranges
                0x00000b18       0x20 c:/program files/microchip/xc32/v2.40/bin/bin/../../lib/gcc/pic32c/6.2.1/../../../../pic32c/lib/v7e-m/fpv4-sp/hard\libc_nano.a(lib_a-init.o)
 .debug_aranges
                0x00000b38       0x28 c:/program files/microchip/xc32/v2.40/bin/bin/../../lib/gcc/pic32c/6.2.1/../../../../pic32c/lib/v7e-m/fpv4-sp/hard\libc_nano.a(lib_a-malloc.o)
 .debug_aranges
                0x00000b60       0x20 c:/program files/microchip/xc32/v2.40/bin/bin/../../lib/gcc/pic32c/6.2.1/../../../../pic32c/lib/v7e-m/fpv4-sp/hard\libc_nano.a(lib_a-memcpy-stub.o)
 .debug_aranges
                0x00000b80       0x20 c:/program files/microchip/xc32/v2.40/bin/bin/../../lib/gcc/pic32c/6.2.1/../../../../pic32c/lib/v7e-m/fpv4-sp/hard\libc_nano.a(lib_a-memset.o)
 .debug_aranges
                0x00000ba0       0x20 c:/program files/microchip/xc32/v2.40/bin/bin/../../lib/gcc/pic32c/6.2.1/../../../../pic32c/lib/v7e-m/fpv4-sp/hard\libc_nano.a(lib_a-nano-freer.o)
 .debug_aranges
                0x00000bc0       0x20 c:/program files/microchip/xc32/v2.40/bin/bin/../../lib/gcc/pic32c/6.2.1/../../../../pic32c/lib/v7e-m/fpv4-sp/hard\libc_nano.a(lib_a-nano-mallocr.o)
 .debug_aranges
                0x00000be0       0x20 c:/program files/microchip/xc32/v2.40/bin/bin/../../lib/gcc/pic32c/6.2.1/../../../../pic32c/lib/v7e-m/fpv4-sp/hard\libc_nano.a(lib_a-sbrkr.o)
 .debug_aranges
                0x00000c00       0x20 c:/program files/microchip/xc32/v2.40/bin/bin/../../lib/gcc/pic32c/6.2.1/../../../../pic32c/lib/v7e-m/fpv4-sp/hard\libc_nano.a(lib_a-strlen.o)
 .debug_aranges
                0x00000c20       0x18 c:/program files/microchip/xc32/v2.40/bin/bin/../../lib/gcc/pic32c/6.2.1/../../../../pic32c/lib/v7e-m/fpv4-sp/hard\libc_nano.a(lib_a-impure.o)
 .debug_aranges
                0x00000c38       0x20 c:/program files/microchip/xc32/v2.40/bin/bin/../../lib/gcc/pic32c/6.2.1/../../../../pic32c/lib/v7e-m/fpv4-sp/hard\libc_nano.a(lib_a-mlock.o)
 .debug_aranges
                0x00000c58       0x28 c:/program files/microchip/xc32/v2.40/bin/bin/../../lib/gcc/pic32c/6.2.1/../../../../pic32c/lib/v7e-m/fpv4-sp/hard\libc_nano.a(lib_a-reent.o)
 .debug_aranges
                0x00000c80       0x20 c:/program files/microchip/xc32/v2.40/bin/bin/../../lib/gcc/pic32c/6.2.1/../../../../pic32c/lib/v7e-m/fpv4-sp/hard\libpic32c.a(sbrk.o)

.debug_ranges   0x00000000      0xb38
 .debug_ranges  0x00000000       0x40 build/LAN9255_SQI_DIRECT_MODE/production/_ext/1984496892/plib_clock.o
 .debug_ranges  0x00000040       0x40 build/LAN9255_SQI_DIRECT_MODE/production/_ext/60167341/plib_eic.o
 .debug_ranges  0x00000080       0x10 build/LAN9255_SQI_DIRECT_MODE/production/_ext/1986646378/plib_evsys.o
 .debug_ranges  0x00000090       0x28 build/LAN9255_SQI_DIRECT_MODE/production/_ext/1865468468/plib_nvic.o
 .debug_ranges  0x000000b8       0xa0 build/LAN9255_SQI_DIRECT_MODE/production/_ext/1593096446/plib_nvmctrl.o
 .debug_ranges  0x00000158       0x50 build/LAN9255_SQI_DIRECT_MODE/production/_ext/1865521619/plib_port.o
 .debug_ranges  0x000001a8       0x58 build/LAN9255_SQI_DIRECT_MODE/production/_ext/1865555181/plib_qspi.o
 .debug_ranges  0x00000200       0x60 build/LAN9255_SQI_DIRECT_MODE/production/_ext/1827571544/plib_systick.o
 .debug_ranges  0x00000260       0x38 build/LAN9255_SQI_DIRECT_MODE/production/_ext/1171490990/exceptions.o
 .debug_ranges  0x00000298       0x10 build/LAN9255_SQI_DIRECT_MODE/production/_ext/1171490990/initialization.o
 .debug_ranges  0x000002a8       0x10 build/LAN9255_SQI_DIRECT_MODE/production/_ext/1171490990/interrupts.o
 .debug_ranges  0x000002b8       0x28 build/LAN9255_SQI_DIRECT_MODE/production/_ext/1171490990/startup_xc32.o
 .debug_ranges  0x000002e0       0x10 build/LAN9255_SQI_DIRECT_MODE/production/_ext/1171490990/tasks.o
 .debug_ranges  0x000002f0       0xd0 build/LAN9255_SQI_DIRECT_MODE/production/_ext/1671622016/Drivers.o
 .debug_ranges  0x000003c0       0x30 build/LAN9255_SQI_DIRECT_MODE/production/_ext/108147519/ESC_Utils.o
 .debug_ranges  0x000003f0       0x80 build/LAN9255_SQI_DIRECT_MODE/production/_ext/108147519/LAN925x.o
 .debug_ranges  0x00000470       0x28 build/LAN9255_SQI_DIRECT_MODE/production/_ext/108134065/bootmode.o
 .debug_ranges  0x00000498       0x78 build/LAN9255_SQI_DIRECT_MODE/production/_ext/108134065/coeappl.o
 .debug_ranges  0x00000510       0x80 build/LAN9255_SQI_DIRECT_MODE/production/_ext/108134065/ecatappl.o
 .debug_ranges  0x00000590       0x20 build/LAN9255_SQI_DIRECT_MODE/production/_ext/108134065/ecatcoe.o
 .debug_ranges  0x000005b0       0x80 build/LAN9255_SQI_DIRECT_MODE/production/_ext/108134065/ecatfoe.o
 .debug_ranges  0x00000630       0xb8 build/LAN9255_SQI_DIRECT_MODE/production/_ext/108134065/ecatslv.o
 .debug_ranges  0x000006e8       0x50 build/LAN9255_SQI_DIRECT_MODE/production/_ext/108134065/emcy.o
 .debug_ranges  0x00000738       0x38 build/LAN9255_SQI_DIRECT_MODE/production/_ext/108134065/foeappl.o
 .debug_ranges  0x00000770       0x70 build/LAN9255_SQI_DIRECT_MODE/production/_ext/108134065/mailbox.o
 .debug_ranges  0x000007e0       0x80 build/LAN9255_SQI_DIRECT_MODE/production/_ext/108134065/objdef.o
 .debug_ranges  0x00000860       0xd0 build/LAN9255_SQI_DIRECT_MODE/production/_ext/108134065/sample_app.o
 .debug_ranges  0x00000930       0x68 build/LAN9255_SQI_DIRECT_MODE/production/_ext/108134065/sdoserv.o
 .debug_ranges  0x00000998       0x10 build/LAN9255_SQI_DIRECT_MODE/production/_ext/1360937237/main.o
 .debug_ranges  0x000009a8       0x58 build/LAN9255_SQI_DIRECT_MODE/production/_ext/1360937237/app.o
 .debug_ranges  0x00000a00       0x10 c:/program files/microchip/xc32/v2.40/bin/bin/../../lib/gcc/pic32c/6.2.1/../../../../pic32c/lib/v7e-m/fpv4-sp/hard\libpic32c.a(data_init.o)
 .debug_ranges  0x00000a10       0x10 c:/program files/microchip/xc32/v2.40/bin/bin/../../lib/gcc/pic32c/6.2.1/../../../../pic32c/lib/v7e-m/fpv4-sp/hard\libc_nano.a(lib_a-init.o)
 .debug_ranges  0x00000a20       0x18 c:/program files/microchip/xc32/v2.40/bin/bin/../../lib/gcc/pic32c/6.2.1/../../../../pic32c/lib/v7e-m/fpv4-sp/hard\libc_nano.a(lib_a-malloc.o)
 .debug_ranges  0x00000a38       0x10 c:/program files/microchip/xc32/v2.40/bin/bin/../../lib/gcc/pic32c/6.2.1/../../../../pic32c/lib/v7e-m/fpv4-sp/hard\libc_nano.a(lib_a-memcpy-stub.o)
 .debug_ranges  0x00000a48       0x10 c:/program files/microchip/xc32/v2.40/bin/bin/../../lib/gcc/pic32c/6.2.1/../../../../pic32c/lib/v7e-m/fpv4-sp/hard\libc_nano.a(lib_a-memset.o)
 .debug_ranges  0x00000a58       0x10 c:/program files/microchip/xc32/v2.40/bin/bin/../../lib/gcc/pic32c/6.2.1/../../../../pic32c/lib/v7e-m/fpv4-sp/hard\libc_nano.a(lib_a-nano-freer.o)
 .debug_ranges  0x00000a68       0x58 c:/program files/microchip/xc32/v2.40/bin/bin/../../lib/gcc/pic32c/6.2.1/../../../../pic32c/lib/v7e-m/fpv4-sp/hard\libc_nano.a(lib_a-nano-mallocr.o)
 .debug_ranges  0x00000ac0       0x10 c:/program files/microchip/xc32/v2.40/bin/bin/../../lib/gcc/pic32c/6.2.1/../../../../pic32c/lib/v7e-m/fpv4-sp/hard\libc_nano.a(lib_a-sbrkr.o)
 .debug_ranges  0x00000ad0       0x10 c:/program files/microchip/xc32/v2.40/bin/bin/../../lib/gcc/pic32c/6.2.1/../../../../pic32c/lib/v7e-m/fpv4-sp/hard\libc_nano.a(lib_a-mlock.o)
 .debug_ranges  0x00000ae0       0x48 c:/program files/microchip/xc32/v2.40/bin/bin/../../lib/gcc/pic32c/6.2.1/../../../../pic32c/lib/v7e-m/fpv4-sp/hard\libc_nano.a(lib_a-reent.o)
 .debug_ranges  0x00000b28       0x10 c:/program files/microchip/xc32/v2.40/bin/bin/../../lib/gcc/pic32c/6.2.1/../../../../pic32c/lib/v7e-m/fpv4-sp/hard\libpic32c.a(sbrk.o)

.debug_line     0x00000000     0x7650
 .debug_line    0x00000000      0x228 build/LAN9255_SQI_DIRECT_MODE/production/_ext/1984496892/plib_clock.o
 .debug_line    0x00000228      0x202 build/LAN9255_SQI_DIRECT_MODE/production/_ext/60167341/plib_eic.o
 .debug_line    0x0000042a      0x12f build/LAN9255_SQI_DIRECT_MODE/production/_ext/1986646378/plib_evsys.o
 .debug_line    0x00000559      0x1ca build/LAN9255_SQI_DIRECT_MODE/production/_ext/1865468468/plib_nvic.o
 .debug_line    0x00000723      0x367 build/LAN9255_SQI_DIRECT_MODE/production/_ext/1593096446/plib_nvmctrl.o
 .debug_line    0x00000a8a      0x213 build/LAN9255_SQI_DIRECT_MODE/production/_ext/1865521619/plib_port.o
 .debug_line    0x00000c9d      0x2cb build/LAN9255_SQI_DIRECT_MODE/production/_ext/1865555181/plib_qspi.o
 .debug_line    0x00000f68      0x20a build/LAN9255_SQI_DIRECT_MODE/production/_ext/1827571544/plib_systick.o
 .debug_line    0x00001172      0x235 build/LAN9255_SQI_DIRECT_MODE/production/_ext/1171490990/exceptions.o
 .debug_line    0x000013a7      0x1ee build/LAN9255_SQI_DIRECT_MODE/production/_ext/1171490990/initialization.o
 .debug_line    0x00001595      0x210 build/LAN9255_SQI_DIRECT_MODE/production/_ext/1171490990/interrupts.o
 .debug_line    0x000017a5      0x29e build/LAN9255_SQI_DIRECT_MODE/production/_ext/1171490990/startup_xc32.o
 .debug_line    0x00001a43      0x1df build/LAN9255_SQI_DIRECT_MODE/production/_ext/1171490990/tasks.o
 .debug_line    0x00001c22      0x580 build/LAN9255_SQI_DIRECT_MODE/production/_ext/1671622016/Drivers.o
 .debug_line    0x000021a2      0x2e2 build/LAN9255_SQI_DIRECT_MODE/production/_ext/108147519/ESC_Utils.o
 .debug_line    0x00002484      0x4dc build/LAN9255_SQI_DIRECT_MODE/production/_ext/108147519/LAN925x.o
 .debug_line    0x00002960      0x189 build/LAN9255_SQI_DIRECT_MODE/production/_ext/108134065/bootmode.o
 .debug_line    0x00002ae9      0x3d5 build/LAN9255_SQI_DIRECT_MODE/production/_ext/108134065/coeappl.o
 .debug_line    0x00002ebe      0x4d3 build/LAN9255_SQI_DIRECT_MODE/production/_ext/108134065/ecatappl.o
 .debug_line    0x00003391      0x19e build/LAN9255_SQI_DIRECT_MODE/production/_ext/108134065/ecatcoe.o
 .debug_line    0x0000352f      0x2f5 build/LAN9255_SQI_DIRECT_MODE/production/_ext/108134065/ecatfoe.o
 .debug_line    0x00003824      0x87f build/LAN9255_SQI_DIRECT_MODE/production/_ext/108134065/ecatslv.o
 .debug_line    0x000040a3      0x311 build/LAN9255_SQI_DIRECT_MODE/production/_ext/108134065/emcy.o
 .debug_line    0x000043b4      0x2dd build/LAN9255_SQI_DIRECT_MODE/production/_ext/108134065/foeappl.o
 .debug_line    0x00004691      0x45f build/LAN9255_SQI_DIRECT_MODE/production/_ext/108134065/mailbox.o
 .debug_line    0x00004af0      0x5e5 build/LAN9255_SQI_DIRECT_MODE/production/_ext/108134065/objdef.o
 .debug_line    0x000050d5      0x569 build/LAN9255_SQI_DIRECT_MODE/production/_ext/108134065/sample_app.o
 .debug_line    0x0000563e      0x4c3 build/LAN9255_SQI_DIRECT_MODE/production/_ext/108134065/sdoserv.o
 .debug_line    0x00005b01      0x1e2 build/LAN9255_SQI_DIRECT_MODE/production/_ext/1360937237/main.o
 .debug_line    0x00005ce3      0x3b0 build/LAN9255_SQI_DIRECT_MODE/production/_ext/1360937237/app.o
 .debug_line    0x00006093       0xd8 c:/program files/microchip/xc32/v2.40/bin/bin/../../lib/gcc/pic32c/6.2.1/../../../../pic32c/lib/v7e-m/fpv4-sp/hard\libpic32c.a(data_init.o)
 .debug_line    0x0000616b      0x11d c:/program files/microchip/xc32/v2.40/bin/bin/../../lib/gcc/pic32c/6.2.1/../../../../pic32c/lib/v7e-m/fpv4-sp/hard\libc_nano.a(lib_a-init.o)
 .debug_line    0x00006288      0x21e c:/program files/microchip/xc32/v2.40/bin/bin/../../lib/gcc/pic32c/6.2.1/../../../../pic32c/lib/v7e-m/fpv4-sp/hard\libc_nano.a(lib_a-malloc.o)
 .debug_line    0x000064a6      0x218 c:/program files/microchip/xc32/v2.40/bin/bin/../../lib/gcc/pic32c/6.2.1/../../../../pic32c/lib/v7e-m/fpv4-sp/hard\libc_nano.a(lib_a-memcpy-stub.o)
 .debug_line    0x000066be      0x2ae c:/program files/microchip/xc32/v2.40/bin/bin/../../lib/gcc/pic32c/6.2.1/../../../../pic32c/lib/v7e-m/fpv4-sp/hard\libc_nano.a(lib_a-memset.o)
 .debug_line    0x0000696c      0x1dc c:/program files/microchip/xc32/v2.40/bin/bin/../../lib/gcc/pic32c/6.2.1/../../../../pic32c/lib/v7e-m/fpv4-sp/hard\libc_nano.a(lib_a-nano-freer.o)
 .debug_line    0x00006b48      0x257 c:/program files/microchip/xc32/v2.40/bin/bin/../../lib/gcc/pic32c/6.2.1/../../../../pic32c/lib/v7e-m/fpv4-sp/hard\libc_nano.a(lib_a-nano-mallocr.o)
 .debug_line    0x00006d9f      0x212 c:/program files/microchip/xc32/v2.40/bin/bin/../../lib/gcc/pic32c/6.2.1/../../../../pic32c/lib/v7e-m/fpv4-sp/hard\libc_nano.a(lib_a-sbrkr.o)
 .debug_line    0x00006fb1       0xb1 c:/program files/microchip/xc32/v2.40/bin/bin/../../lib/gcc/pic32c/6.2.1/../../../../pic32c/lib/v7e-m/fpv4-sp/hard\libc_nano.a(lib_a-strlen.o)
 .debug_line    0x00007062      0x17e c:/program files/microchip/xc32/v2.40/bin/bin/../../lib/gcc/pic32c/6.2.1/../../../../pic32c/lib/v7e-m/fpv4-sp/hard\libc_nano.a(lib_a-impure.o)
 .debug_line    0x000071e0      0x18d c:/program files/microchip/xc32/v2.40/bin/bin/../../lib/gcc/pic32c/6.2.1/../../../../pic32c/lib/v7e-m/fpv4-sp/hard\libc_nano.a(lib_a-mlock.o)
 .debug_line    0x0000736d      0x241 c:/program files/microchip/xc32/v2.40/bin/bin/../../lib/gcc/pic32c/6.2.1/../../../../pic32c/lib/v7e-m/fpv4-sp/hard\libc_nano.a(lib_a-reent.o)
 .debug_line    0x000075ae       0xa2 c:/program files/microchip/xc32/v2.40/bin/bin/../../lib/gcc/pic32c/6.2.1/../../../../pic32c/lib/v7e-m/fpv4-sp/hard\libpic32c.a(sbrk.o)

.debug_str      0x00000000      0x7d4
 .debug_str     0x00000000       0x1e build/LAN9255_SQI_DIRECT_MODE/production/_ext/1984496892/plib_clock.o
 .debug_str     0x0000001e        0x9 build/LAN9255_SQI_DIRECT_MODE/production/_ext/60167341/plib_eic.o
 .debug_str     0x00000027        0x0 build/LAN9255_SQI_DIRECT_MODE/production/_ext/1986646378/plib_evsys.o
 .debug_str     0x00000027        0xa build/LAN9255_SQI_DIRECT_MODE/production/_ext/1865468468/plib_nvic.o
 .debug_str     0x00000031       0x29 build/LAN9255_SQI_DIRECT_MODE/production/_ext/1593096446/plib_nvmctrl.o
 .debug_str     0x0000005a        0xb build/LAN9255_SQI_DIRECT_MODE/production/_ext/1865521619/plib_port.o
 .debug_str     0x00000065       0x9a build/LAN9255_SQI_DIRECT_MODE/production/_ext/1865555181/plib_qspi.o
 .debug_str     0x000000ff        0x9 build/LAN9255_SQI_DIRECT_MODE/production/_ext/1827571544/plib_systick.o
 .debug_str     0x00000108        0xe build/LAN9255_SQI_DIRECT_MODE/production/_ext/1171490990/exceptions.o
 .debug_str     0x00000116        0xe build/LAN9255_SQI_DIRECT_MODE/production/_ext/1171490990/initialization.o
 .debug_str     0x00000124        0xe build/LAN9255_SQI_DIRECT_MODE/production/_ext/1171490990/interrupts.o
 .debug_str     0x00000132        0xe build/LAN9255_SQI_DIRECT_MODE/production/_ext/1171490990/startup_xc32.o
 .debug_str     0x00000140        0xe build/LAN9255_SQI_DIRECT_MODE/production/_ext/1171490990/tasks.o
 .debug_str     0x0000014e       0x6d build/LAN9255_SQI_DIRECT_MODE/production/_ext/1671622016/Drivers.o
 .debug_str     0x000001bb        0xe build/LAN9255_SQI_DIRECT_MODE/production/_ext/108147519/ESC_Utils.o
 .debug_str     0x000001c9       0x4b build/LAN9255_SQI_DIRECT_MODE/production/_ext/108147519/LAN925x.o
 .debug_str     0x00000214        0xe build/LAN9255_SQI_DIRECT_MODE/production/_ext/108134065/bootmode.o
 .debug_str     0x00000222       0x48 build/LAN9255_SQI_DIRECT_MODE/production/_ext/108134065/coeappl.o
 .debug_str     0x0000026a       0x4a build/LAN9255_SQI_DIRECT_MODE/production/_ext/108134065/ecatappl.o
 .debug_str     0x000002b4       0x35 build/LAN9255_SQI_DIRECT_MODE/production/_ext/108134065/ecatcoe.o
 .debug_str     0x000002e9       0x24 build/LAN9255_SQI_DIRECT_MODE/production/_ext/108134065/ecatfoe.o
 .debug_str     0x0000030d       0x6b build/LAN9255_SQI_DIRECT_MODE/production/_ext/108134065/ecatslv.o
 .debug_str     0x00000378       0x2d build/LAN9255_SQI_DIRECT_MODE/production/_ext/108134065/emcy.o
 .debug_str     0x000003a5       0x31 build/LAN9255_SQI_DIRECT_MODE/production/_ext/108134065/foeappl.o
 .debug_str     0x000003d6       0x50 build/LAN9255_SQI_DIRECT_MODE/production/_ext/108134065/mailbox.o
 .debug_str     0x00000426       0xa5 build/LAN9255_SQI_DIRECT_MODE/production/_ext/108134065/objdef.o
 .debug_str     0x000004cb       0x66 build/LAN9255_SQI_DIRECT_MODE/production/_ext/108134065/sample_app.o
 .debug_str     0x00000531       0xa8 build/LAN9255_SQI_DIRECT_MODE/production/_ext/108134065/sdoserv.o
 .debug_str     0x000005d9        0xe build/LAN9255_SQI_DIRECT_MODE/production/_ext/1360937237/main.o
 .debug_str     0x000005e7       0x41 build/LAN9255_SQI_DIRECT_MODE/production/_ext/1360937237/app.o
 .debug_str     0x00000628        0x0 c:/program files/microchip/xc32/v2.40/bin/bin/../../lib/gcc/pic32c/6.2.1/../../../../pic32c/lib/v7e-m/fpv4-sp/hard\libpic32c.a(data_init.o)
 .debug_str     0x00000628        0x0 c:/program files/microchip/xc32/v2.40/bin/bin/../../lib/gcc/pic32c/6.2.1/../../../../pic32c/lib/v7e-m/fpv4-sp/hard\libc_nano.a(lib_a-init.o)
 .debug_str     0x00000628       0x13 c:/program files/microchip/xc32/v2.40/bin/bin/../../lib/gcc/pic32c/6.2.1/../../../../pic32c/lib/v7e-m/fpv4-sp/hard\libc_nano.a(lib_a-malloc.o)
 .debug_str     0x0000063b        0x9 c:/program files/microchip/xc32/v2.40/bin/bin/../../lib/gcc/pic32c/6.2.1/../../../../pic32c/lib/v7e-m/fpv4-sp/hard\libc_nano.a(lib_a-memcpy-stub.o)
 .debug_str     0x00000644      0x114 c:/program files/microchip/xc32/v2.40/bin/bin/../../lib/gcc/pic32c/6.2.1/../../../../pic32c/lib/v7e-m/fpv4-sp/hard\libc_nano.a(lib_a-memset.o)
 .debug_str     0x00000758       0x27 c:/program files/microchip/xc32/v2.40/bin/bin/../../lib/gcc/pic32c/6.2.1/../../../../pic32c/lib/v7e-m/fpv4-sp/hard\libc_nano.a(lib_a-nano-freer.o)
 .debug_str     0x0000077f       0x31 c:/program files/microchip/xc32/v2.40/bin/bin/../../lib/gcc/pic32c/6.2.1/../../../../pic32c/lib/v7e-m/fpv4-sp/hard\libc_nano.a(lib_a-nano-mallocr.o)
 .debug_str     0x000007b0        0x9 c:/program files/microchip/xc32/v2.40/bin/bin/../../lib/gcc/pic32c/6.2.1/../../../../pic32c/lib/v7e-m/fpv4-sp/hard\libc_nano.a(lib_a-sbrkr.o)
 .debug_str     0x000007b9        0x9 c:/program files/microchip/xc32/v2.40/bin/bin/../../lib/gcc/pic32c/6.2.1/../../../../pic32c/lib/v7e-m/fpv4-sp/hard\libc_nano.a(lib_a-impure.o)
 .debug_str     0x000007c2        0x9 c:/program files/microchip/xc32/v2.40/bin/bin/../../lib/gcc/pic32c/6.2.1/../../../../pic32c/lib/v7e-m/fpv4-sp/hard\libc_nano.a(lib_a-mlock.o)
 .debug_str     0x000007cb        0x9 c:/program files/microchip/xc32/v2.40/bin/bin/../../lib/gcc/pic32c/6.2.1/../../../../pic32c/lib/v7e-m/fpv4-sp/hard\libc_nano.a(lib_a-reent.o)
 .debug_str     0x000007d4        0x0 c:/program files/microchip/xc32/v2.40/bin/bin/../../lib/gcc/pic32c/6.2.1/../../../../pic32c/lib/v7e-m/fpv4-sp/hard\libpic32c.a(sbrk.o)

.debug_frame    0x00000000     0x27f8
 .debug_frame   0x00000000       0xec build/LAN9255_SQI_DIRECT_MODE/production/_ext/1984496892/plib_clock.o
 .debug_frame   0x000000ec       0xfc build/LAN9255_SQI_DIRECT_MODE/production/_ext/60167341/plib_eic.o
 .debug_frame   0x000001e8       0x30 build/LAN9255_SQI_DIRECT_MODE/production/_ext/1986646378/plib_evsys.o
 .debug_frame   0x00000218       0xa4 build/LAN9255_SQI_DIRECT_MODE/production/_ext/1865468468/plib_nvic.o
 .debug_frame   0x000002bc      0x2ac build/LAN9255_SQI_DIRECT_MODE/production/_ext/1593096446/plib_nvmctrl.o
 .debug_frame   0x00000568      0x170 build/LAN9255_SQI_DIRECT_MODE/production/_ext/1865521619/plib_port.o
 .debug_frame   0x000006d8      0x180 build/LAN9255_SQI_DIRECT_MODE/production/_ext/1865555181/plib_qspi.o
 .debug_frame   0x00000858      0x184 build/LAN9255_SQI_DIRECT_MODE/production/_ext/1827571544/plib_systick.o
 .debug_frame   0x000009dc       0xa0 build/LAN9255_SQI_DIRECT_MODE/production/_ext/1171490990/exceptions.o
 .debug_frame   0x00000a7c       0x34 build/LAN9255_SQI_DIRECT_MODE/production/_ext/1171490990/initialization.o
 .debug_frame   0x00000ab0       0x20 build/LAN9255_SQI_DIRECT_MODE/production/_ext/1171490990/interrupts.o
 .debug_frame   0x00000ad0       0x98 build/LAN9255_SQI_DIRECT_MODE/production/_ext/1171490990/startup_xc32.o
 .debug_frame   0x00000b68       0x2c build/LAN9255_SQI_DIRECT_MODE/production/_ext/1171490990/tasks.o
 .debug_frame   0x00000b94      0x37c build/LAN9255_SQI_DIRECT_MODE/production/_ext/1671622016/Drivers.o
 .debug_frame   0x00000f10       0xb4 build/LAN9255_SQI_DIRECT_MODE/production/_ext/108147519/ESC_Utils.o
 .debug_frame   0x00000fc4      0x22c build/LAN9255_SQI_DIRECT_MODE/production/_ext/108147519/LAN925x.o
 .debug_frame   0x000011f0       0xa8 build/LAN9255_SQI_DIRECT_MODE/production/_ext/108134065/bootmode.o
 .debug_frame   0x00001298      0x1a8 build/LAN9255_SQI_DIRECT_MODE/production/_ext/108134065/coeappl.o
 .debug_frame   0x00001440      0x1a8 build/LAN9255_SQI_DIRECT_MODE/production/_ext/108134065/ecatappl.o
 .debug_frame   0x000015e8       0x78 build/LAN9255_SQI_DIRECT_MODE/production/_ext/108134065/ecatcoe.o
 .debug_frame   0x00001660       0x7c build/LAN9255_SQI_DIRECT_MODE/production/_ext/108134065/ecatfoe.o
 .debug_frame   0x000016dc      0x320 build/LAN9255_SQI_DIRECT_MODE/production/_ext/108134065/ecatslv.o
 .debug_frame   0x000019fc      0x160 build/LAN9255_SQI_DIRECT_MODE/production/_ext/108134065/emcy.o
 .debug_frame   0x00001b5c       0xec build/LAN9255_SQI_DIRECT_MODE/production/_ext/108134065/foeappl.o
 .debug_frame   0x00001c48      0x1ec build/LAN9255_SQI_DIRECT_MODE/production/_ext/108134065/mailbox.o
 .debug_frame   0x00001e34      0x1e8 build/LAN9255_SQI_DIRECT_MODE/production/_ext/108134065/objdef.o
 .debug_frame   0x0000201c      0x374 build/LAN9255_SQI_DIRECT_MODE/production/_ext/108134065/sample_app.o
 .debug_frame   0x00002390      0x120 build/LAN9255_SQI_DIRECT_MODE/production/_ext/108134065/sdoserv.o
 .debug_frame   0x000024b0       0x2c build/LAN9255_SQI_DIRECT_MODE/production/_ext/1360937237/main.o
 .debug_frame   0x000024dc      0x110 build/LAN9255_SQI_DIRECT_MODE/production/_ext/1360937237/app.o
 .debug_frame   0x000025ec       0x2c c:/program files/microchip/xc32/v2.40/bin/bin/../../lib/gcc/pic32c/6.2.1/../../../../pic32c/lib/v7e-m/fpv4-sp/hard\libpic32c.a(data_init.o)
 .debug_frame   0x00002618       0x2c c:/program files/microchip/xc32/v2.40/bin/bin/../../lib/gcc/pic32c/6.2.1/../../../../pic32c/lib/v7e-m/fpv4-sp/hard\libc_nano.a(lib_a-init.o)
 .debug_frame   0x00002644       0x30 c:/program files/microchip/xc32/v2.40/bin/bin/../../lib/gcc/pic32c/6.2.1/../../../../pic32c/lib/v7e-m/fpv4-sp/hard\libc_nano.a(lib_a-malloc.o)
 .debug_frame   0x00002674       0x28 c:/program files/microchip/xc32/v2.40/bin/bin/../../lib/gcc/pic32c/6.2.1/../../../../pic32c/lib/v7e-m/fpv4-sp/hard\libc_nano.a(lib_a-memcpy-stub.o)
 .debug_frame   0x0000269c       0x20 c:/program files/microchip/xc32/v2.40/bin/bin/../../lib/gcc/pic32c/6.2.1/../../../../pic32c/lib/v7e-m/fpv4-sp/hard\libc_nano.a(lib_a-memset.o)
 .debug_frame   0x000026bc       0x38 c:/program files/microchip/xc32/v2.40/bin/bin/../../lib/gcc/pic32c/6.2.1/../../../../pic32c/lib/v7e-m/fpv4-sp/hard\libc_nano.a(lib_a-nano-freer.o)
 .debug_frame   0x000026f4       0x2c c:/program files/microchip/xc32/v2.40/bin/bin/../../lib/gcc/pic32c/6.2.1/../../../../pic32c/lib/v7e-m/fpv4-sp/hard\libc_nano.a(lib_a-nano-mallocr.o)
 .debug_frame   0x00002720       0x2c c:/program files/microchip/xc32/v2.40/bin/bin/../../lib/gcc/pic32c/6.2.1/../../../../pic32c/lib/v7e-m/fpv4-sp/hard\libc_nano.a(lib_a-sbrkr.o)
 .debug_frame   0x0000274c       0x30 c:/program files/microchip/xc32/v2.40/bin/bin/../../lib/gcc/pic32c/6.2.1/../../../../pic32c/lib/v7e-m/fpv4-sp/hard\libc_nano.a(lib_a-mlock.o)
 .debug_frame   0x0000277c       0x5c c:/program files/microchip/xc32/v2.40/bin/bin/../../lib/gcc/pic32c/6.2.1/../../../../pic32c/lib/v7e-m/fpv4-sp/hard\libc_nano.a(lib_a-reent.o)
 .debug_frame   0x000027d8       0x20 c:/program files/microchip/xc32/v2.40/bin/bin/../../lib/gcc/pic32c/6.2.1/../../../../pic32c/lib/v7e-m/fpv4-sp/hard\libpic32c.a(sbrk.o)

.stack          0x20002ad0      0x100
 .stack         0x20002ad0      0x100 stack

.data.GenObjDic%1
                0x200023e0      0x1e0
 .data.GenObjDic
                0x200023e0      0x1e0 build/LAN9255_SQI_DIRECT_MODE/production/_ext/108134065/coeappl.o
                0x200023e0                GenObjDic

.data.ApplicationObjDic%2
                0x200025c0      0x118
 .data.ApplicationObjDic
                0x200025c0      0x118 build/LAN9255_SQI_DIRECT_MODE/production/_ext/108134065/coeappl.o
                0x200025c0                ApplicationObjDic

.bss.gau8rx_data%3
                0x200026d8       0x80
 .bss.gau8rx_data
                0x200026d8       0x80 build/LAN9255_SQI_DIRECT_MODE/production/_ext/1671622016/Drivers.o

.data.impure_data%4
                0x20002758       0x60
 .data.impure_data
                0x20002758       0x60 c:/program files/microchip/xc32/v2.40/bin/bin/../../lib/gcc/pic32c/6.2.1/../../../../pic32c/lib/v7e-m/fpv4-sp/hard\libc_nano.a(lib_a-impure.o)

.data.gau8DummyCntArr%5
                0x200027b8       0x27
 .data.gau8DummyCntArr
                0x200027b8       0x27 build/LAN9255_SQI_DIRECT_MODE/production/_ext/108147519/LAN925x.o
                0x200027b8                gau8DummyCntArr

.bss%6          0x200027e0       0x1c
 .bss           0x200027e0       0x1c c:/program files/microchip/xc32/v2.40/bin/bin/../../lib/gcc/pic32c/6.2.1/v7e-m/fpv4-sp/hard/crtbegin.o

.data.acDevicename%7
                0x200027fc       0x16
 .data.acDevicename
                0x200027fc       0x16 build/LAN9255_SQI_DIRECT_MODE/production/_ext/108134065/coeappl.o
                0x200027fc                acDevicename

.data.sIdentity%8
                0x20002814       0x14
 .data.sIdentity
                0x20002814       0x14 build/LAN9255_SQI_DIRECT_MODE/production/_ext/108134065/coeappl.o
                0x20002814                sIdentity

.data.aSubindexDesc%9
                0x20002828        0xd
 .data.aSubindexDesc
                0x20002828        0xd build/LAN9255_SQI_DIRECT_MODE/production/_ext/108134065/objdef.o
                0x20002828                aSubindexDesc

.data.sErrorSettings%10
                0x20002838        0xc
 .data.sErrorSettings
                0x20002838        0xc build/LAN9255_SQI_DIRECT_MODE/production/_ext/108134065/objdef.o
                0x20002838                sErrorSettings

.bss.u64Timestamp%11
                0x20002848        0x8
 .bss.u64Timestamp
                0x20002848        0x8 build/LAN9255_SQI_DIRECT_MODE/production/_ext/108134065/coeappl.o
                0x20002848                u64Timestamp

.data.OutputsProcessDataMapping0x1601%12
                0x20002850        0x8
 .data.OutputsProcessDataMapping0x1601
                0x20002850        0x8 build/LAN9255_SQI_DIRECT_MODE/production/_ext/108134065/sample_app.o
                0x20002850                OutputsProcessDataMapping0x1601

.data.InputsProcessDataMapping0x1A00%13
                0x20002858        0x8
 .data.InputsProcessDataMapping0x1A00
                0x20002858        0x8 build/LAN9255_SQI_DIRECT_MODE/production/_ext/108134065/sample_app.o
                0x20002858                InputsProcessDataMapping0x1A00

.data.Inputs0x6000%14
                0x20002860        0x8
 .data.Inputs0x6000
                0x20002860        0x8 build/LAN9255_SQI_DIRECT_MODE/production/_ext/108134065/sample_app.o
                0x20002860                Inputs0x6000

.data.Outputs0x7010%15
                0x20002868        0x8
 .data.Outputs0x7010
                0x20002868        0x8 build/LAN9255_SQI_DIRECT_MODE/production/_ext/108134065/sample_app.o
                0x20002868                Outputs0x7010

.data.sSyncmanagertype%16
                0x20002870        0x6
 .data.sSyncmanagertype
                0x20002870        0x6 build/LAN9255_SQI_DIRECT_MODE/production/_ext/108134065/coeappl.o
                0x20002870                sSyncmanagertype

.data.u32Devicetype%17
                0x20002844        0x4
 .data.u32Devicetype
                0x20002844        0x4 build/LAN9255_SQI_DIRECT_MODE/production/_ext/108134065/coeappl.o
                0x20002844                u32Devicetype

.data.acHardwareversion%18
                0x20002878        0x4
 .data.acHardwareversion
                0x20002878        0x4 build/LAN9255_SQI_DIRECT_MODE/production/_ext/108134065/coeappl.o
                0x20002878                acHardwareversion

.data.acSoftwareversion%19
                0x2000287c        0x4
 .data.acSoftwareversion
                0x2000287c        0x4 build/LAN9255_SQI_DIRECT_MODE/production/_ext/108134065/coeappl.o
                0x2000287c                acSoftwareversion

.bss.ObjDicList%20
                0x20002880        0x4
 .bss.ObjDicList
                0x20002880        0x4 build/LAN9255_SQI_DIRECT_MODE/production/_ext/108134065/coeappl.o
                0x20002880                ObjDicList

.bss.SMActivate%21
                0x20002884        0x4
 .bss.SMActivate
                0x20002884        0x4 build/LAN9255_SQI_DIRECT_MODE/production/_ext/108134065/ecatslv.o
                0x20002884                SMActivate

.data.sRxPDOassign%22
                0x20002888        0x4
 .data.sRxPDOassign
                0x20002888        0x4 build/LAN9255_SQI_DIRECT_MODE/production/_ext/108134065/sample_app.o
                0x20002888                sRxPDOassign

.data.sTxPDOassign%23
                0x2000288c        0x4
 .data.sTxPDOassign
                0x2000288c        0x4 build/LAN9255_SQI_DIRECT_MODE/production/_ext/108134065/sample_app.o
                0x2000288c                sTxPDOassign

.bss.nFileWriteOffset%24
                0x20002890        0x4
 .bss.nFileWriteOffset
                0x20002890        0x4 build/LAN9255_SQI_DIRECT_MODE/production/_ext/108134065/sample_app.o
                0x20002890                nFileWriteOffset

.bss.nFileTotalLengthOffset%25
                0x20002894        0x4
 .bss.nFileTotalLengthOffset
                0x20002894        0x4 build/LAN9255_SQI_DIRECT_MODE/production/_ext/108134065/sample_app.o
                0x20002894                nFileTotalLengthOffset

.bss.nFileStartWriteAddress%26
                0x20002898        0x4
 .bss.nFileStartWriteAddress
                0x20002898        0x4 build/LAN9255_SQI_DIRECT_MODE/production/_ext/108134065/sample_app.o
                0x20002898                nFileStartWriteAddress

.bss.u32FileSize%27
                0x2000289c        0x4
 .bss.u32FileSize
                0x2000289c        0x4 build/LAN9255_SQI_DIRECT_MODE/production/_ext/108134065/sample_app.o
                0x2000289c                u32FileSize

.bss.__malloc_free_list%28
                0x200028a0        0x4
 .bss.__malloc_free_list
                0x200028a0        0x4 c:/program files/microchip/xc32/v2.40/bin/bin/../../lib/gcc/pic32c/6.2.1/../../../../pic32c/lib/v7e-m/fpv4-sp/hard\libc_nano.a(lib_a-nano-mallocr.o)
                0x200028a0                __malloc_free_list

.bss.__malloc_sbrk_start%29
                0x200028a4        0x4
 .bss.__malloc_sbrk_start
                0x200028a4        0x4 c:/program files/microchip/xc32/v2.40/bin/bin/../../lib/gcc/pic32c/6.2.1/../../../../pic32c/lib/v7e-m/fpv4-sp/hard\libc_nano.a(lib_a-nano-mallocr.o)
                0x200028a4                __malloc_sbrk_start

.data._impure_ptr%30
                0x200028a8        0x4
 .data._impure_ptr
                0x200028a8        0x4 c:/program files/microchip/xc32/v2.40/bin/bin/../../lib/gcc/pic32c/6.2.1/../../../../pic32c/lib/v7e-m/fpv4-sp/hard\libc_nano.a(lib_a-impure.o)
                0x200028a8                _impure_ptr

.bss%31         0x200028ac        0x4
 .bss           0x200028ac        0x4 c:/program files/microchip/xc32/v2.40/bin/bin/../../lib/gcc/pic32c/6.2.1/../../../../pic32c/lib/v7e-m/fpv4-sp/hard\libpic32c.a(sbrk.o)

.bss.nvm_error%32
                0x20002812        0x2
 .bss.nvm_error
                0x20002812        0x2 build/LAN9255_SQI_DIRECT_MODE/production/_ext/1593096446/plib_nvmctrl.o

.bss.nvm_status%33
                0x20002876        0x2
 .bss.nvm_status
                0x20002876        0x2 build/LAN9255_SQI_DIRECT_MODE/production/_ext/1593096446/plib_nvmctrl.o

.bss.u16ErrorRegister%34
                0x20002836        0x2
 .bss.u16ErrorRegister
                0x20002836        0x2 build/LAN9255_SQI_DIRECT_MODE/production/_ext/108134065/coeappl.o
                0x20002836                u16ErrorRegister

.bss.bInitFinished%35
                0x200027df        0x1
 .bss.bInitFinished
                0x200027df        0x1 build/LAN9255_SQI_DIRECT_MODE/production/_ext/108134065/ecatappl.o
                0x200027df                bInitFinished

.bss.EepromLoaded%36
                0x20002835        0x1
 .bss.EepromLoaded
                0x20002835        0x1 build/LAN9255_SQI_DIRECT_MODE/production/_ext/108134065/ecatslv.o
                0x20002835                EepromLoaded

.bss.gFirmwareDownload_Started%37
                0x200028b0        0x1
 .bss.gFirmwareDownload_Started
                0x200028b0        0x1 build/LAN9255_SQI_DIRECT_MODE/production/_ext/108134065/sample_app.o
                0x200028b0                gFirmwareDownload_Started

.bss.gFirmwareDownload_Finished%38
                0x200028b1        0x1
 .bss.gFirmwareDownload_Finished
                0x200028b1        0x1 build/LAN9255_SQI_DIRECT_MODE/production/_ext/108134065/sample_app.o
                0x200028b1                gFirmwareDownload_Finished

.bss.bSdoInWork%39
                0x200028b2        0x1
 .bss.bSdoInWork
                0x200028b2        0x1 build/LAN9255_SQI_DIRECT_MODE/production/_ext/108134065/sdoserv.o
                0x200028b2                bSdoInWork

.eh_frame%z1    0x00000000        0x0
 .eh_frame      0x00000000        0x0 c:/program files/microchip/xc32/v2.40/bin/bin/../../lib/gcc/pic32c/6.2.1/v7e-m/fpv4-sp/hard/crtbegin.o

.text.StartInputHandler%40
                0x00000280      0x7e4
 .text.StartInputHandler
                0x00000280      0x7e4 build/LAN9255_SQI_DIRECT_MODE/production/_ext/108134065/ecatslv.o
                0x00000280                StartInputHandler

.text.AL_ControlInd%41
                0x00000a64      0x790
 .text.AL_ControlInd
                0x00000a64      0x790 build/LAN9255_SQI_DIRECT_MODE/production/_ext/108134065/ecatslv.o
                0x00000a64                AL_ControlInd

.text.OBJ_Write%42
                0x000011f4      0x710
 .text.OBJ_Write
                0x000011f4      0x710 build/LAN9255_SQI_DIRECT_MODE/production/_ext/108134065/objdef.o
                0x000011f4                OBJ_Write

.dinit%43       0x00001904      0x690
 .dinit         0x00001904      0x690 data_init

.text.OBJ_Read%44
                0x00001f94      0x67c
 .text.OBJ_Read
                0x00001f94      0x67c build/LAN9255_SQI_DIRECT_MODE/production/_ext/108134065/objdef.o
                0x00001f94                OBJ_Read

.text.SDOS_SdoInd%45
                0x00002610      0x5e4
 .text.SDOS_SdoInd
                0x00002610      0x5e4 build/LAN9255_SQI_DIRECT_MODE/production/_ext/108134065/sdoserv.o
                0x00002610                SDOS_SdoInd

.text.FOE_ServiceInd%46
                0x00002bf4      0x488
 .text.FOE_ServiceInd
                0x00002bf4      0x488 build/LAN9255_SQI_DIRECT_MODE/production/_ext/108134065/ecatfoe.o
                0x00002bf4                FOE_ServiceInd

.text.SDOS_SdoInfoInd%47
                0x0000307c      0x434
 .text.SDOS_SdoInfoInd
                0x0000307c      0x434 build/LAN9255_SQI_DIRECT_MODE/production/_ext/108134065/sdoserv.o
                0x0000307c                SDOS_SdoInfoInd

.text.SdoDownloadSegmentInd%48
                0x000034b0      0x3b4
 .text.SdoDownloadSegmentInd
                0x000034b0      0x3b4 build/LAN9255_SQI_DIRECT_MODE/production/_ext/108134065/sdoserv.o

.text.CheckSmSettings%49
                0x00003864      0x3a0
 .text.CheckSmSettings
                0x00003864      0x3a0 build/LAN9255_SQI_DIRECT_MODE/production/_ext/108134065/ecatslv.o
                0x00003864                CheckSmSettings

.text.EEPROM_CommandHandler%50
                0x00003c04      0x2bc
 .text.EEPROM_CommandHandler
                0x00003c04      0x2bc build/LAN9255_SQI_DIRECT_MODE/production/_ext/108134065/ecatappl.o
                0x00003c04                EEPROM_CommandHandler

.text.AL_ControlRes%51
                0x00003ec0      0x2bc
 .text.AL_ControlRes
                0x00003ec0      0x2bc build/LAN9255_SQI_DIRECT_MODE/production/_ext/108134065/ecatslv.o
                0x00003ec0                AL_ControlRes

.text.SdoUploadSegmentInd%52
                0x0000417c      0x260
 .text.SdoUploadSegmentInd
                0x0000417c      0x260 build/LAN9255_SQI_DIRECT_MODE/production/_ext/108134065/sdoserv.o

.text.SendSmFailedEmergency%53
                0x000043dc      0x1e0
 .text.SendSmFailedEmergency
                0x000043dc      0x1e0 build/LAN9255_SQI_DIRECT_MODE/production/_ext/108134065/ecatslv.o
                0x000043dc                SendSmFailedEmergency

.text.SdoRes%54
                0x000045bc      0x1bc
 .text.SdoRes   0x000045bc      0x1bc build/LAN9255_SQI_DIRECT_MODE/production/_ext/108134065/sdoserv.o
                0x000045bc                SdoRes

.text.ECAT_Main%55
                0x00004778      0x1b4
 .text.ECAT_Main
                0x00004778      0x1b4 build/LAN9255_SQI_DIRECT_MODE/production/_ext/108134065/ecatslv.o
                0x00004778                ECAT_Main

.text.CheckSyncTypeValue%56
                0x0000492c      0x1b4
 .text.CheckSyncTypeValue
                0x0000492c      0x1b4 build/LAN9255_SQI_DIRECT_MODE/production/_ext/108134065/objdef.o
                0x0000492c                CheckSyncTypeValue

.text.FoE_WriteData%57
                0x00004ae0      0x18c
 .text.FoE_WriteData
                0x00004ae0      0x18c build/LAN9255_SQI_DIRECT_MODE/production/_ext/108134065/sample_app.o
                0x00004ae0                FoE_WriteData

.text.OBJ_GetEntryOffset%58
                0x00004c6c      0x178
 .text.OBJ_GetEntryOffset
                0x00004c6c      0x178 build/LAN9255_SQI_DIRECT_MODE/production/_ext/108134065/objdef.o
                0x00004c6c                OBJ_GetEntryOffset

.text.APPL_GenerateMapping%59
                0x00004de4      0x174
 .text.APPL_GenerateMapping
                0x00004de4      0x174 build/LAN9255_SQI_DIRECT_MODE/production/_ext/108134065/sample_app.o
                0x00004de4                APPL_GenerateMapping

.text.ECAT_Init%60
                0x00004f58      0x170
 .text.ECAT_Init
                0x00004f58      0x170 build/LAN9255_SQI_DIRECT_MODE/production/_ext/108134065/ecatslv.o
                0x00004f58                ECAT_Init

.text.SetALStatus%61
                0x000050c8      0x164
 .text.SetALStatus
                0x000050c8      0x164 build/LAN9255_SQI_DIRECT_MODE/production/_ext/108134065/ecatslv.o
                0x000050c8                SetALStatus

.text.MBX_CheckAndCopyMailbox%62
                0x0000522c      0x164
 .text.MBX_CheckAndCopyMailbox
                0x0000522c      0x164 build/LAN9255_SQI_DIRECT_MODE/production/_ext/108134065/mailbox.o
                0x0000522c                MBX_CheckAndCopyMailbox

.text.COE_ObjInit%63
                0x00005390      0x160
 .text.COE_ObjInit
                0x00005390      0x160 build/LAN9255_SQI_DIRECT_MODE/production/_ext/108134065/coeappl.o
                0x00005390                COE_ObjInit

.text.Sync0_Isr%64
                0x000054f0      0x15c
 .text.Sync0_Isr
                0x000054f0      0x15c build/LAN9255_SQI_DIRECT_MODE/production/_ext/108134065/ecatappl.o
                0x000054f0                Sync0_Isr

.text.MainInit%65
                0x0000564c      0x15c
 .text.MainInit
                0x0000564c      0x15c build/LAN9255_SQI_DIRECT_MODE/production/_ext/108134065/ecatappl.o
                0x0000564c                MainInit

.text.MBX_StopMailboxHandler%66
                0x000057a8      0x154
 .text.MBX_StopMailboxHandler
                0x000057a8      0x154 build/LAN9255_SQI_DIRECT_MODE/production/_ext/108134065/mailbox.o
                0x000057a8                MBX_StopMailboxHandler

.text.APP_FlashEEPROMUpdate%67
                0x000058fc      0x154
 .text.APP_FlashEEPROMUpdate
                0x000058fc      0x154 build/LAN9255_SQI_DIRECT_MODE/production/_ext/1360937237/app.o
                0x000058fc                APP_FlashEEPROMUpdate

.text.PDI_Isr%68
                0x00005a50      0x14c
 .text.PDI_Isr  0x00005a50      0x14c build/LAN9255_SQI_DIRECT_MODE/production/_ext/108134065/ecatappl.o
                0x00005a50                PDI_Isr

.text.StopInputHandler%69
                0x00005b9c      0x12c
 .text.StopInputHandler
                0x00005b9c      0x12c build/LAN9255_SQI_DIRECT_MODE/production/_ext/108134065/ecatslv.o
                0x00005b9c                StopInputHandler

.text.MBX_MailboxReadInd%70
                0x00005cc8      0x124
 .text.MBX_MailboxReadInd
                0x00005cc8      0x124 build/LAN9255_SQI_DIRECT_MODE/production/_ext/108134065/mailbox.o
                0x00005cc8                MBX_MailboxReadInd

.text.OBJ_GetObjectLength%71
                0x00005dec      0x124
 .text.OBJ_GetObjectLength
                0x00005dec      0x124 build/LAN9255_SQI_DIRECT_MODE/production/_ext/108134065/objdef.o
                0x00005dec                OBJ_GetObjectLength

.text.SDOS_SdoRes%72
                0x00005f10      0x124
 .text.SDOS_SdoRes
                0x00005f10      0x124 build/LAN9255_SQI_DIRECT_MODE/production/_ext/108134065/sdoserv.o
                0x00005f10                SDOS_SdoRes

.text.DC_CheckWatchdog%73
                0x00006034      0x120
 .text.DC_CheckWatchdog
                0x00006034      0x120 build/LAN9255_SQI_DIRECT_MODE/production/_ext/108134065/ecatslv.o
                0x00006034                DC_CheckWatchdog

.text.OBJ_GetDesc%74
                0x00006154      0x120
 .text.OBJ_GetDesc
                0x00006154      0x120 build/LAN9255_SQI_DIRECT_MODE/production/_ext/108134065/objdef.o
                0x00006154                OBJ_GetDesc

.text.MBX_StartMailboxHandler%75
                0x00006274      0x114
 .text.MBX_StartMailboxHandler
                0x00006274      0x114 build/LAN9255_SQI_DIRECT_MODE/production/_ext/108134065/mailbox.o
                0x00006274                MBX_StartMailboxHandler

.text.MBX_CopyToSendMailbox%76
                0x00006388      0x10c
 .text.MBX_CopyToSendMailbox
                0x00006388      0x10c build/LAN9255_SQI_DIRECT_MODE/production/_ext/108134065/mailbox.o
                0x00006388                MBX_CopyToSendMailbox

.rodata.aName0x1C32%77
                0x00006494      0x100
 .rodata.aName0x1C32
                0x00006494      0x100 build/LAN9255_SQI_DIRECT_MODE/production/_ext/108134065/coeappl.o
                0x00006494                aName0x1C32

.rodata.aName0x1C33%78
                0x00006594      0x100
 .rodata.aName0x1C33
                0x00006594      0x100 build/LAN9255_SQI_DIRECT_MODE/production/_ext/108134065/coeappl.o
                0x00006594                aName0x1C33

.text.MBX_Init%79
                0x00006694      0x100
 .text.MBX_Init
                0x00006694      0x100 build/LAN9255_SQI_DIRECT_MODE/production/_ext/108134065/mailbox.o
                0x00006694                MBX_Init

.text.ECAT_CheckTimer%80
                0x00006794       0xf8
 .text.ECAT_CheckTimer
                0x00006794       0xf8 build/LAN9255_SQI_DIRECT_MODE/production/_ext/108134065/ecatappl.o
                0x00006794                ECAT_CheckTimer

.text.OBJ_GetObjectList%81
                0x0000688c       0xf8
 .text.OBJ_GetObjectList
                0x0000688c       0xf8 build/LAN9255_SQI_DIRECT_MODE/production/_ext/108134065/objdef.o
                0x0000688c                OBJ_GetObjectList

.text.MBX_MailboxWriteInd%82
                0x00006984       0xf4
 .text.MBX_MailboxWriteInd
                0x00006984       0xf4 build/LAN9255_SQI_DIRECT_MODE/production/_ext/108134065/mailbox.o
                0x00006984                MBX_MailboxWriteInd

.text.LAN9253SQI_Read%83
                0x00006a78       0xec
 .text.LAN9253SQI_Read
                0x00006a78       0xec build/LAN9255_SQI_DIRECT_MODE/production/_ext/1671622016/Drivers.o
                0x00006a78                LAN9253SQI_Read

.text.MainLoop%84
                0x00006b64       0xec
 .text.MainLoop
                0x00006b64       0xec build/LAN9255_SQI_DIRECT_MODE/production/_ext/108134065/ecatappl.o
                0x00006b64                MainLoop

.text.HW_EscWriteIsr%85
                0x00006c50       0xe8
 .text.HW_EscWriteIsr
                0x00006c50       0xe8 build/LAN9255_SQI_DIRECT_MODE/production/_ext/108147519/LAN925x.o
                0x00006c50                HW_EscWriteIsr

.text.COE_AddObjectToDic%86
                0x00006d38       0xe8
 .text.COE_AddObjectToDic
                0x00006d38       0xe8 build/LAN9255_SQI_DIRECT_MODE/production/_ext/108134065/coeappl.o
                0x00006d38                COE_AddObjectToDic

.text.COE_Main%87
                0x00006e20       0xe8
 .text.COE_Main
                0x00006e20       0xe8 build/LAN9255_SQI_DIRECT_MODE/production/_ext/108134065/coeappl.o
                0x00006e20                COE_Main

.text.HW_EscReadIsr%88
                0x00006f08       0xe6
 .text.HW_EscReadIsr
                0x00006f08       0xe6 build/LAN9255_SQI_DIRECT_MODE/production/_ext/108147519/LAN925x.o
                0x00006f08                HW_EscReadIsr

.text.EIC_Initialize%89
                0x00006ff0       0xe4
 .text.EIC_Initialize
                0x00006ff0       0xe4 build/LAN9255_SQI_DIRECT_MODE/production/_ext/60167341/plib_eic.o
                0x00006ff0                EIC_Initialize

.text.MBX_MailboxSendReq%90
                0x000070d4       0xdc
 .text.MBX_MailboxSendReq
                0x000070d4       0xdc build/LAN9255_SQI_DIRECT_MODE/production/_ext/108134065/mailbox.o
                0x000070d4                MBX_MailboxSendReq

.text.HW_EscWrite%91
                0x000071b0       0xce
 .text.HW_EscWrite
                0x000071b0       0xce build/LAN9255_SQI_DIRECT_MODE/production/_ext/108147519/LAN925x.o
                0x000071b0                HW_EscWrite

.text.HW_EscRead%92
                0x0000727e       0xcc
 .text.HW_EscRead
                0x0000727e       0xcc build/LAN9255_SQI_DIRECT_MODE/production/_ext/108147519/LAN925x.o
                0x0000727e                HW_EscRead

.text.SODS_ClearPendingResponse%93
                0x0000734c       0xcc
 .text.SODS_ClearPendingResponse
                0x0000734c       0xcc build/LAN9255_SQI_DIRECT_MODE/production/_ext/108134065/sdoserv.o
                0x0000734c                SODS_ClearPendingResponse

.rodata.asEntryDesc0x1C3x%94
                0x00007418       0xc8
 .rodata.asEntryDesc0x1C3x
                0x00007418       0xc8 build/LAN9255_SQI_DIRECT_MODE/production/_ext/108134065/coeappl.o
                0x00007418                asEntryDesc0x1C3x

.text.GetDummyBytesRequired%95
                0x000074e0       0xc6
 .text.GetDummyBytesRequired
                0x000074e0       0xc6 build/LAN9255_SQI_DIRECT_MODE/production/_ext/108147519/ESC_Utils.o
                0x000074e0                GetDummyBytesRequired

.text.EscWrite%96
                0x000075a6       0xc6
 .text.EscWrite
                0x000075a6       0xc6 build/LAN9255_SQI_DIRECT_MODE/production/_ext/108147519/LAN925x.o
                0x000075a6                EscWrite

.text.EscRead%97
                0x0000766c       0xc4
 .text.EscRead  0x0000766c       0xc4 build/LAN9255_SQI_DIRECT_MODE/production/_ext/108147519/LAN925x.o
                0x0000766c                EscRead

.text.HW_EepromWrite%98
                0x00007730       0xc4
 .text.HW_EepromWrite
                0x00007730       0xc4 build/LAN9255_SQI_DIRECT_MODE/production/_ext/108134065/sample_app.o
                0x00007730                HW_EepromWrite

.text.LAN925x_Init%99
                0x000077f4       0xbc
 .text.LAN925x_Init
                0x000077f4       0xbc build/LAN9255_SQI_DIRECT_MODE/production/_ext/108147519/LAN925x.o
                0x000077f4                LAN925x_Init

.text.FoE_Read%100
                0x000078b0       0xbc
 .text.FoE_Read
                0x000078b0       0xbc build/LAN9255_SQI_DIRECT_MODE/production/_ext/108134065/sample_app.o
                0x000078b0                FoE_Read

.text._malloc_r%101
                0x0000796c       0xbc
 .text._malloc_r
                0x0000796c       0xbc c:/program files/microchip/xc32/v2.40/bin/bin/../../lib/gcc/pic32c/6.2.1/../../../../pic32c/lib/v7e-m/fpv4-sp/hard\libc_nano.a(lib_a-nano-mallocr.o)
                0x0000796c                _malloc_r

.text.MBX_Main%102
                0x00007a28       0xb8
 .text.MBX_Main
                0x00007a28       0xb8 build/LAN9255_SQI_DIRECT_MODE/production/_ext/108134065/mailbox.o
                0x00007a28                MBX_Main

.text.qspi_setup_transfer%103
                0x00007ae0       0xb4
 .text.qspi_setup_transfer
                0x00007ae0       0xb4 build/LAN9255_SQI_DIRECT_MODE/production/_ext/1865555181/plib_qspi.o

.text.LAN9253SQI_Write%104
                0x00007b94       0xb0
 .text.LAN9253SQI_Write
                0x00007b94       0xb0 build/LAN9255_SQI_DIRECT_MODE/production/_ext/1671622016/Drivers.o
                0x00007b94                LAN9253SQI_Write

.text.PDO_OutputMapping%105
                0x00007c44       0xb0
 .text.PDO_OutputMapping
                0x00007c44       0xb0 build/LAN9255_SQI_DIRECT_MODE/production/_ext/108134065/ecatappl.o
                0x00007c44                PDO_OutputMapping

.text.QSPI_MemoryRead%106
                0x00007cf4       0xac
 .text.QSPI_MemoryRead
                0x00007cf4       0xac build/LAN9255_SQI_DIRECT_MODE/production/_ext/1865555181/plib_qspi.o
                0x00007cf4                QSPI_MemoryRead

.text.QSPI_MemoryWrite%107
                0x00007da0       0xa8
 .text.QSPI_MemoryWrite
                0x00007da0       0xa8 build/LAN9255_SQI_DIRECT_MODE/production/_ext/1865555181/plib_qspi.o
                0x00007da0                QSPI_MemoryWrite

.text.EMCY_Init%108
                0x00007e48       0xa8
 .text.EMCY_Init
                0x00007e48       0xa8 build/LAN9255_SQI_DIRECT_MODE/production/_ext/108134065/emcy.o
                0x00007e48                EMCY_Init

.text.PORT_Initialize%109
                0x00007ef0       0xa4
 .text.PORT_Initialize
                0x00007ef0       0xa4 build/LAN9255_SQI_DIRECT_MODE/production/_ext/1865521619/plib_port.o
                0x00007ef0                PORT_Initialize

.text.EMCY_SendEmergency%110
                0x00007f94       0xa4
 .text.EMCY_SendEmergency
                0x00007f94       0xa4 build/LAN9255_SQI_DIRECT_MODE/production/_ext/108134065/emcy.o
                0x00007f94                EMCY_SendEmergency

.text.HW_EepromReload%111
                0x00008038       0xa0
 .text.HW_EepromReload
                0x00008038       0xa0 build/LAN9255_SQI_DIRECT_MODE/production/_ext/108134065/sample_app.o
                0x00008038                HW_EepromReload

.text.COE_SyncTimeStamp%112
                0x000080d8       0x9c
 .text.COE_SyncTimeStamp
                0x000080d8       0x9c build/LAN9255_SQI_DIRECT_MODE/production/_ext/108134065/coeappl.o
                0x000080d8                COE_SyncTimeStamp

.text.FoE_Write%113
                0x00008174       0x9c
 .text.FoE_Write
                0x00008174       0x9c build/LAN9255_SQI_DIRECT_MODE/production/_ext/108134065/sample_app.o
                0x00008174                FoE_Write

.text.APP_Tasks%114
                0x00008210       0x9c
 .text.APP_Tasks
                0x00008210       0x9c build/LAN9255_SQI_DIRECT_MODE/production/_ext/1360937237/app.o
                0x00008210                APP_Tasks

.text._free_r%115
                0x000082ac       0x9c
 .text._free_r  0x000082ac       0x9c c:/program files/microchip/xc32/v2.40/bin/bin/../../lib/gcc/pic32c/6.2.1/../../../../pic32c/lib/v7e-m/fpv4-sp/hard\libc_nano.a(lib_a-nano-freer.o)
                0x000082ac                _free_r

.text.OBJ_GetNoOfObjects%116
                0x00008348       0x98
 .text.OBJ_GetNoOfObjects
                0x00008348       0x98 build/LAN9255_SQI_DIRECT_MODE/production/_ext/108134065/objdef.o
                0x00008348                OBJ_GetNoOfObjects

.text.RoundUpMultipleOf%117
                0x000083e0       0x96
 .text.RoundUpMultipleOf
                0x000083e0       0x96 build/LAN9255_SQI_DIRECT_MODE/production/_ext/108147519/ESC_Utils.o

.text.PDO_InputMapping%118
                0x00008478       0x94
 .text.PDO_InputMapping
                0x00008478       0x94 build/LAN9255_SQI_DIRECT_MODE/production/_ext/108134065/ecatappl.o
                0x00008478                PDO_InputMapping

.text.OBJ_CopyNumberToString%119
                0x0000850c       0x94
 .text.OBJ_CopyNumberToString
                0x0000850c       0x94 build/LAN9255_SQI_DIRECT_MODE/production/_ext/108134065/objdef.o
                0x0000850c                OBJ_CopyNumberToString

.text.QSPI_CommandWrite%120
                0x000085a0       0x88
 .text.QSPI_CommandWrite
                0x000085a0       0x88 build/LAN9255_SQI_DIRECT_MODE/production/_ext/1865555181/plib_qspi.o
                0x000085a0                QSPI_CommandWrite

.text.QSPI_RegisterWrite%121
                0x00008628       0x88
 .text.QSPI_RegisterWrite
                0x00008628       0x88 build/LAN9255_SQI_DIRECT_MODE/production/_ext/1865555181/plib_qspi.o
                0x00008628                QSPI_RegisterWrite

.text.ReBuild_SQI_SetCfg_data%122
                0x000086b0       0x88
 .text.ReBuild_SQI_SetCfg_data
                0x000086b0       0x88 build/LAN9255_SQI_DIRECT_MODE/production/_ext/1671622016/Drivers.o
                0x000086b0                ReBuild_SQI_SetCfg_data

.text.COE_RemoveDicEntry%123
                0x00008738       0x80
 .text.COE_RemoveDicEntry
                0x00008738       0x80 build/LAN9255_SQI_DIRECT_MODE/production/_ext/108134065/coeappl.o
                0x00008738                COE_RemoveDicEntry

.text.__pic32c_data_initialization%124
                0x000087b8       0x80
 .text.__pic32c_data_initialization
                0x000087b8       0x80 c:/program files/microchip/xc32/v2.40/bin/bin/../../lib/gcc/pic32c/6.2.1/../../../../pic32c/lib/v7e-m/fpv4-sp/hard\libpic32c.a(data_init.o)
                0x000087b8                __pic32c_data_initialization

.text.HandleCycleTimeMeasurement%125
                0x00008838       0x7c
 .text.HandleCycleTimeMeasurement
                0x00008838       0x7c build/LAN9255_SQI_DIRECT_MODE/production/_ext/108134065/ecatappl.o
                0x00008838                HandleCycleTimeMeasurement

.text.MBX_MailboxRepeatReq%126
                0x000088b4       0x7c
 .text.MBX_MailboxRepeatReq
                0x000088b4       0x7c build/LAN9255_SQI_DIRECT_MODE/production/_ext/108134065/mailbox.o
                0x000088b4                MBX_MailboxRepeatReq

.rodata.cAbortCode%127
                0x00008930       0x78
 .rodata.cAbortCode
                0x00008930       0x78 build/LAN9255_SQI_DIRECT_MODE/production/_ext/108134065/sdoserv.o
                0x00008930                cAbortCode

.text.APP_FlashWrite%128
                0x000089a8       0x78
 .text.APP_FlashWrite
                0x000089a8       0x78 build/LAN9255_SQI_DIRECT_MODE/production/_ext/1360937237/app.o
                0x000089a8                APP_FlashWrite

.text.COE_ServiceInd%129
                0x00008a20       0x74
 .text.COE_ServiceInd
                0x00008a20       0x74 build/LAN9255_SQI_DIRECT_MODE/production/_ext/108134065/ecatcoe.o
                0x00008a20                COE_ServiceInd

.text.StartOutputHandler%130
                0x00008a94       0x74
 .text.StartOutputHandler
                0x00008a94       0x74 build/LAN9255_SQI_DIRECT_MODE/production/_ext/108134065/ecatslv.o
                0x00008a94                StartOutputHandler

.text.GetSystemTimeDelay%131
                0x00008b08       0x70
 .text.GetSystemTimeDelay
                0x00008b08       0x70 build/LAN9255_SQI_DIRECT_MODE/production/_ext/108134065/ecatappl.o
                0x00008b08                GetSystemTimeDelay

.text.CalculateCRC8%132
                0x00008b78       0x6e
 .text.CalculateCRC8
                0x00008b78       0x6e build/LAN9255_SQI_DIRECT_MODE/production/_ext/1360937237/app.o
                0x00008b78                CalculateCRC8

.text.FDPLL0_Initialize%133
                0x00008be8       0x6c
 .text.FDPLL0_Initialize
                0x00008be8       0x6c build/LAN9255_SQI_DIRECT_MODE/production/_ext/1984496892/plib_clock.o

.text.FOE_Data%134
                0x00008c54       0x6c
 .text.FOE_Data
                0x00008c54       0x6c build/LAN9255_SQI_DIRECT_MODE/production/_ext/108134065/foeappl.o
                0x00008c54                FOE_Data

.text.CLOCK_Initialize%135
                0x00008cc0       0x68
 .text.CLOCK_Initialize
                0x00008cc0       0x68 build/LAN9255_SQI_DIRECT_MODE/production/_ext/1984496892/plib_clock.o
                0x00008cc0                CLOCK_Initialize

.text.NVMCTRL_PageWrite%136
                0x00008d28       0x68
 .text.NVMCTRL_PageWrite
                0x00008d28       0x68 build/LAN9255_SQI_DIRECT_MODE/production/_ext/1593096446/plib_nvmctrl.o
                0x00008d28                NVMCTRL_PageWrite

.text.COE_UpdateSyncErrorStatus%137
                0x00008d90       0x68
 .text.COE_UpdateSyncErrorStatus
                0x00008d90       0x68 build/LAN9255_SQI_DIRECT_MODE/production/_ext/108134065/coeappl.o
                0x00008d90                COE_UpdateSyncErrorStatus

.text.MailboxServiceInd%138
                0x00008df8       0x68
 .text.MailboxServiceInd
                0x00008df8       0x68 build/LAN9255_SQI_DIRECT_MODE/production/_ext/108134065/mailbox.o
                0x00008df8                MailboxServiceInd

.text.ECAT_CheckWatchdog%139
                0x00008e60       0x64
 .text.ECAT_CheckWatchdog
                0x00008e60       0x64 build/LAN9255_SQI_DIRECT_MODE/production/_ext/108134065/ecatslv.o
                0x00008e60                ECAT_CheckWatchdog

.text.BL_FOE_Application%140
                0x00008ec4       0x64
 .text.BL_FOE_Application
                0x00008ec4       0x64 build/LAN9255_SQI_DIRECT_MODE/production/_ext/108134065/sample_app.o
                0x00008ec4                BL_FOE_Application

.text.EIC_CallbackRegister%141
                0x00008f28       0x5c
 .text.EIC_CallbackRegister
                0x00008f28       0x5c build/LAN9255_SQI_DIRECT_MODE/production/_ext/60167341/plib_eic.o
                0x00008f28                EIC_CallbackRegister

.text.Reset_Handler%142
                0x00008f84       0x5c
 .text.Reset_Handler
                0x00008f84       0x5c build/LAN9255_SQI_DIRECT_MODE/production/_ext/1171490990/startup_xc32.o
                0x00008f84                Reset_Handler

.text.ESC_BYTE_TEST_Register_Read%143
                0x00008fe0       0x5c
 .text.ESC_BYTE_TEST_Register_Read
                0x00008fe0       0x5c build/LAN9255_SQI_DIRECT_MODE/production/_ext/1671622016/Drivers.o
                0x00008fe0                ESC_BYTE_TEST_Register_Read

.text.Read0x10F8%144
                0x0000903c       0x5c
 .text.Read0x10F8
                0x0000903c       0x5c build/LAN9255_SQI_DIRECT_MODE/production/_ext/108134065/coeappl.o
                0x0000903c                Read0x10F8

.text.COE_ContinueInd%145
                0x00009098       0x5c
 .text.COE_ContinueInd
                0x00009098       0x5c build/LAN9255_SQI_DIRECT_MODE/production/_ext/108134065/ecatcoe.o
                0x00009098                COE_ContinueInd

.text.GetOutOfEmptyEmcyQueue%146
                0x000090f4       0x5c
 .text.GetOutOfEmptyEmcyQueue
                0x000090f4       0x5c build/LAN9255_SQI_DIRECT_MODE/production/_ext/108134065/emcy.o
                0x000090f4                GetOutOfEmptyEmcyQueue

.text.GetOutOfSendEmcyQueue%147
                0x00009150       0x5c
 .text.GetOutOfSendEmcyQueue
                0x00009150       0x5c build/LAN9255_SQI_DIRECT_MODE/production/_ext/108134065/emcy.o
                0x00009150                GetOutOfSendEmcyQueue

.text.FoE_ReadData%148
                0x000091ac       0x5c
 .text.FoE_ReadData
                0x000091ac       0x5c build/LAN9255_SQI_DIRECT_MODE/production/_ext/108134065/sample_app.o
                0x000091ac                FoE_ReadData

.text.GetOutOfMbxQueue%149
                0x00009208       0x58
 .text.GetOutOfMbxQueue
                0x00009208       0x58 build/LAN9255_SQI_DIRECT_MODE/production/_ext/108134065/mailbox.o
                0x00009208                GetOutOfMbxQueue

.text.OBJ_GetEntryDesc%150
                0x00009260       0x58
 .text.OBJ_GetEntryDesc
                0x00009260       0x58 build/LAN9255_SQI_DIRECT_MODE/production/_ext/108134065/objdef.o
                0x00009260                OBJ_GetEntryDesc

.text.NVIC_Initialize%151
                0x000092b8       0x56
 .text.NVIC_Initialize
                0x000092b8       0x56 build/LAN9255_SQI_DIRECT_MODE/production/_ext/1865468468/plib_nvic.o
                0x000092b8                NVIC_Initialize

.text.__NVIC_SetPriority%152
                0x00009310       0x54
 .text.__NVIC_SetPriority
                0x00009310       0x54 build/LAN9255_SQI_DIRECT_MODE/production/_ext/1865468468/plib_nvic.o

.text.PutInMbxQueue%153
                0x00009364       0x52
 .text.PutInMbxQueue
                0x00009364       0x52 build/LAN9255_SQI_DIRECT_MODE/production/_ext/108134065/mailbox.o
                0x00009364                PutInMbxQueue

.text.ESF_PDI_Init%154
                0x000093b8       0x4c
 .text.ESF_PDI_Init
                0x000093b8       0x4c build/LAN9255_SQI_DIRECT_MODE/production/_ext/1671622016/Drivers.o
                0x000093b8                ESF_PDI_Init

.text.UpdateEEPROMLoadedState%155
                0x00009404       0x4c
 .text.UpdateEEPROMLoadedState
                0x00009404       0x4c build/LAN9255_SQI_DIRECT_MODE/production/_ext/108134065/ecatslv.o
                0x00009404                UpdateEEPROMLoadedState

.text.DisableSyncManChannel%156
                0x00009450       0x4c
 .text.DisableSyncManChannel
                0x00009450       0x4c build/LAN9255_SQI_DIRECT_MODE/production/_ext/108134065/ecatslv.o
                0x00009450                DisableSyncManChannel

.text.CheckIfEcatError%157
                0x0000949c       0x4c
 .text.CheckIfEcatError
                0x0000949c       0x4c build/LAN9255_SQI_DIRECT_MODE/production/_ext/108134065/ecatslv.o
                0x0000949c                CheckIfEcatError

.text.EnableSyncManChannel%158
                0x000094e8       0x4a
 .text.EnableSyncManChannel
                0x000094e8       0x4a build/LAN9255_SQI_DIRECT_MODE/production/_ext/108134065/ecatslv.o
                0x000094e8                EnableSyncManChannel

.text.__NVIC_SetPriorityGrouping%159
                0x00009534       0x48
 .text.__NVIC_SetPriorityGrouping
                0x00009534       0x48 build/LAN9255_SQI_DIRECT_MODE/production/_ext/1865468468/plib_nvic.o

.text.FOE_Read%160
                0x0000957c       0x48
 .text.FOE_Read
                0x0000957c       0x48 build/LAN9255_SQI_DIRECT_MODE/production/_ext/108134065/foeappl.o
                0x0000957c                FOE_Read

.text.__libc_init_array%161
                0x000095c4       0x48
 .text.__libc_init_array
                0x000095c4       0x48 c:/program files/microchip/xc32/v2.40/bin/bin/../../lib/gcc/pic32c/6.2.1/../../../../pic32c/lib/v7e-m/fpv4-sp/hard\libc_nano.a(lib_a-init.o)
                0x000095c4                __libc_init_array

.text.ResetALEventMask%162
                0x0000960c       0x46
 .text.ResetALEventMask
                0x0000960c       0x46 build/LAN9255_SQI_DIRECT_MODE/production/_ext/108134065/ecatslv.o
                0x0000960c                ResetALEventMask

.text.SetALEventMask%163
                0x00009652       0x46
 .text.SetALEventMask
                0x00009652       0x46 build/LAN9255_SQI_DIRECT_MODE/production/_ext/108134065/ecatslv.o
                0x00009652                SetALEventMask

.text.GCLK0_Initialize%164
                0x00009698       0x44
 .text.GCLK0_Initialize
                0x00009698       0x44 build/LAN9255_SQI_DIRECT_MODE/production/_ext/1984496892/plib_clock.o

.text.FPU_Enable%165
                0x000096dc       0x44
 .text.FPU_Enable
                0x000096dc       0x44 build/LAN9255_SQI_DIRECT_MODE/production/_ext/1171490990/startup_xc32.o

.text.COE_ObjDictionaryInit%166
                0x00009720       0x44
 .text.COE_ObjDictionaryInit
                0x00009720       0x44 build/LAN9255_SQI_DIRECT_MODE/production/_ext/108134065/coeappl.o
                0x00009720                COE_ObjDictionaryInit

.text.Sync1_Isr%167
                0x00009764       0x44
 .text.Sync1_Isr
                0x00009764       0x44 build/LAN9255_SQI_DIRECT_MODE/production/_ext/108134065/ecatappl.o
                0x00009764                Sync1_Isr

.text.PutInEmptyEmcyQueue%168
                0x000097a8       0x44
 .text.PutInEmptyEmcyQueue
                0x000097a8       0x44 build/LAN9255_SQI_DIRECT_MODE/production/_ext/108134065/emcy.o
                0x000097a8                PutInEmptyEmcyQueue

.text.PutInSendEmcyQueue%169
                0x000097ec       0x44
 .text.PutInSendEmcyQueue
                0x000097ec       0x44 build/LAN9255_SQI_DIRECT_MODE/production/_ext/108134065/emcy.o
                0x000097ec                PutInSendEmcyQueue

.text.PORT_PinRead%170
                0x00009830       0x44
 .text.PORT_PinRead
                0x00009830       0x44 build/LAN9255_SQI_DIRECT_MODE/production/_ext/108134065/sample_app.o

.text.APP_FW_startDownload%171
                0x00009874       0x44
 .text.APP_FW_startDownload
                0x00009874       0x44 build/LAN9255_SQI_DIRECT_MODE/production/_ext/108134065/sample_app.o
                0x00009874                APP_FW_startDownload

.text.AddObjectsToObjDictionary%172
                0x000098b8       0x42
 .text.AddObjectsToObjDictionary
                0x000098b8       0x42 build/LAN9255_SQI_DIRECT_MODE/production/_ext/108134065/coeappl.o
                0x000098b8                AddObjectsToObjDictionary

.text%173       0x000098fc       0x40
 .text          0x000098fc       0x40 c:/program files/microchip/xc32/v2.40/bin/bin/../../lib/gcc/pic32c/6.2.1/v7e-m/fpv4-sp/hard/crtbegin.o

.text.SYSTICK_TimerInitialize%174
                0x0000993c       0x40
 .text.SYSTICK_TimerInitialize
                0x0000993c       0x40 build/LAN9255_SQI_DIRECT_MODE/production/_ext/1827571544/plib_systick.o
                0x0000993c                SYSTICK_TimerInitialize

.text.ICache_Enable%175
                0x0000997c       0x40
 .text.ICache_Enable
                0x0000997c       0x40 build/LAN9255_SQI_DIRECT_MODE/production/_ext/1171490990/startup_xc32.o

.rodata.aName0x10F1%176
                0x000099bc       0x40
 .rodata.aName0x10F1
                0x000099bc       0x40 build/LAN9255_SQI_DIRECT_MODE/production/_ext/108134065/coeappl.o
                0x000099bc                aName0x10F1

.text.COE_ClearObjDictionary%177
                0x000099fc       0x40
 .text.COE_ClearObjDictionary
                0x000099fc       0x40 build/LAN9255_SQI_DIRECT_MODE/production/_ext/108134065/coeappl.o
                0x000099fc                COE_ClearObjDictionary

.text.__NVIC_EnableIRQ%178
                0x00009a3c       0x3c
 .text.__NVIC_EnableIRQ
                0x00009a3c       0x3c build/LAN9255_SQI_DIRECT_MODE/production/_ext/1865468468/plib_nvic.o

.text.QSPI_Initialize%179
                0x00009a78       0x3c
 .text.QSPI_Initialize
                0x00009a78       0x3c build/LAN9255_SQI_DIRECT_MODE/production/_ext/1865555181/plib_qspi.o
                0x00009a78                QSPI_Initialize

.rodata.aName0x1018%180
                0x00009ab4       0x3c
 .rodata.aName0x1018
                0x00009ab4       0x3c build/LAN9255_SQI_DIRECT_MODE/production/_ext/108134065/coeappl.o
                0x00009ab4                aName0x1018

.text.ECAT_Application%181
                0x00009af0       0x3c
 .text.ECAT_Application
                0x00009af0       0x3c build/LAN9255_SQI_DIRECT_MODE/production/_ext/108134065/ecatappl.o
                0x00009af0                ECAT_Application

.text.SQI_SetConfiguration%182
                0x00009b2c       0x3a
 .text.SQI_SetConfiguration
                0x00009b2c       0x3a build/LAN9255_SQI_DIRECT_MODE/production/_ext/1671622016/Drivers.o
                0x00009b2c                SQI_SetConfiguration

.text.APP_RunApplication%183
                0x00009b66       0x3a
 .text.APP_RunApplication
                0x00009b66       0x3a build/LAN9255_SQI_DIRECT_MODE/production/_ext/1360937237/app.o

.text.PORT_PinSet%184
                0x00009ba0       0x38
 .text.PORT_PinSet
                0x00009ba0       0x38 build/LAN9255_SQI_DIRECT_MODE/production/_ext/1671622016/Drivers.o

.text.PORT_PinClear%185
                0x00009bd8       0x38
 .text.PORT_PinClear
                0x00009bd8       0x38 build/LAN9255_SQI_DIRECT_MODE/production/_ext/1671622016/Drivers.o

.text.PORT_PinOutputEnable%186
                0x00009c10       0x38
 .text.PORT_PinOutputEnable
                0x00009c10       0x38 build/LAN9255_SQI_DIRECT_MODE/production/_ext/1671622016/Drivers.o

.text.PORT_PinSet%187
                0x00009c48       0x38
 .text.PORT_PinSet
                0x00009c48       0x38 build/LAN9255_SQI_DIRECT_MODE/production/_ext/108147519/LAN925x.o

.text.PORT_PinClear%188
                0x00009c80       0x38
 .text.PORT_PinClear
                0x00009c80       0x38 build/LAN9255_SQI_DIRECT_MODE/production/_ext/108147519/LAN925x.o

.text.FOE_Write%189
                0x00009cb8       0x38
 .text.FOE_Write
                0x00009cb8       0x38 build/LAN9255_SQI_DIRECT_MODE/production/_ext/108134065/foeappl.o
                0x00009cb8                FOE_Write

.text.FOE_Ack%190
                0x00009cf0       0x38
 .text.FOE_Ack  0x00009cf0       0x38 build/LAN9255_SQI_DIRECT_MODE/production/_ext/108134065/foeappl.o
                0x00009cf0                FOE_Ack

.text.PORT_PinSet%191
                0x00009d28       0x38
 .text.PORT_PinSet
                0x00009d28       0x38 build/LAN9255_SQI_DIRECT_MODE/production/_ext/108134065/sample_app.o

.text.PORT_PinClear%192
                0x00009d60       0x38
 .text.PORT_PinClear
                0x00009d60       0x38 build/LAN9255_SQI_DIRECT_MODE/production/_ext/108134065/sample_app.o

.text.OBJ_GetObjectHandle%193
                0x00009d98       0x36
 .text.OBJ_GetObjectHandle
                0x00009d98       0x36 build/LAN9255_SQI_DIRECT_MODE/production/_ext/108134065/objdef.o
                0x00009d98                OBJ_GetObjectHandle

.text.NVMCTRL_BlockErase%194
                0x00009dd0       0x34
 .text.NVMCTRL_BlockErase
                0x00009dd0       0x34 build/LAN9255_SQI_DIRECT_MODE/production/_ext/1593096446/plib_nvmctrl.o
                0x00009dd0                NVMCTRL_BlockErase

.text.qspi_memcpy_32bit%195
                0x00009e04       0x34
 .text.qspi_memcpy_32bit
                0x00009e04       0x34 build/LAN9255_SQI_DIRECT_MODE/production/_ext/1865555181/plib_qspi.o

.text.qspi_memcpy_8bit%196
                0x00009e38       0x34
 .text.qspi_memcpy_8bit
                0x00009e38       0x34 build/LAN9255_SQI_DIRECT_MODE/production/_ext/1865555181/plib_qspi.o

.text.SYS_Initialize%197
                0x00009e6c       0x34
 .text.SYS_Initialize
                0x00009e6c       0x34 build/LAN9255_SQI_DIRECT_MODE/production/_ext/1171490990/initialization.o
                0x00009e6c                SYS_Initialize

.text.APPL_OutputMapping%198
                0x00009ea0       0x34
 .text.APPL_OutputMapping
                0x00009ea0       0x34 build/LAN9255_SQI_DIRECT_MODE/production/_ext/108134065/sample_app.o
                0x00009ea0                APPL_OutputMapping

.text.FOE_ContinueInd%199
                0x00009ed4       0x30
 .text.FOE_ContinueInd
                0x00009ed4       0x30 build/LAN9255_SQI_DIRECT_MODE/production/_ext/108134065/ecatfoe.o
                0x00009ed4                FOE_ContinueInd

.text.GetSyncMan%200
                0x00009f04       0x30
 .text.GetSyncMan
                0x00009f04       0x30 build/LAN9255_SQI_DIRECT_MODE/production/_ext/108134065/ecatslv.o
                0x00009f04                GetSyncMan

.text.GCLK1_Initialize%201
                0x00009f34       0x2c
 .text.GCLK1_Initialize
                0x00009f34       0x2c build/LAN9255_SQI_DIRECT_MODE/production/_ext/1984496892/plib_clock.o

.text.EIC_EXTINT_0_InterruptHandler%202
                0x00009f60       0x2c
 .text.EIC_EXTINT_0_InterruptHandler
                0x00009f60       0x2c build/LAN9255_SQI_DIRECT_MODE/production/_ext/60167341/plib_eic.o
                0x00009f60                EIC_EXTINT_0_InterruptHandler

.text.EIC_EXTINT_1_InterruptHandler%203
                0x00009f8c       0x2c
 .text.EIC_EXTINT_1_InterruptHandler
                0x00009f8c       0x2c build/LAN9255_SQI_DIRECT_MODE/production/_ext/60167341/plib_eic.o
                0x00009f8c                EIC_EXTINT_1_InterruptHandler

.text.EIC_EXTINT_7_InterruptHandler%204
                0x00009fb8       0x2c
 .text.EIC_EXTINT_7_InterruptHandler
                0x00009fb8       0x2c build/LAN9255_SQI_DIRECT_MODE/production/_ext/60167341/plib_eic.o
                0x00009fb8                EIC_EXTINT_7_InterruptHandler

.text.SysTick_Handler%205
                0x00009fe4       0x2c
 .text.SysTick_Handler
                0x00009fe4       0x2c build/LAN9255_SQI_DIRECT_MODE/production/_ext/1827571544/plib_systick.o
                0x00009fe4                SysTick_Handler

.text.SQI_EnableQuadMode%206
                0x0000a010       0x2c
 .text.SQI_EnableQuadMode
                0x0000a010       0x2c build/LAN9255_SQI_DIRECT_MODE/production/_ext/1671622016/Drivers.o
                0x0000a010                SQI_EnableQuadMode

.text.SQI_DisableQuadMode%207
                0x0000a03c       0x2c
 .text.SQI_DisableQuadMode
                0x0000a03c       0x2c build/LAN9255_SQI_DIRECT_MODE/production/_ext/1671622016/Drivers.o
                0x0000a03c                SQI_DisableQuadMode

.rodata.aName0x1601%208
                0x0000a068       0x2c
 .rodata.aName0x1601
                0x0000a068       0x2c build/LAN9255_SQI_DIRECT_MODE/production/_ext/108134065/coeappl.o
                0x0000a068                aName0x1601

.rodata.aName0x1A00%209
                0x0000a094       0x2c
 .rodata.aName0x1A00
                0x0000a094       0x2c build/LAN9255_SQI_DIRECT_MODE/production/_ext/108134065/coeappl.o
                0x0000a094                aName0x1A00

.text.FOE_Init%210
                0x0000a0c0       0x2c
 .text.FOE_Init
                0x0000a0c0       0x2c build/LAN9255_SQI_DIRECT_MODE/production/_ext/108134065/ecatfoe.o
                0x0000a0c0                FOE_Init

.text.Emulation_Init%211
                0x0000a0ec       0x2c
 .text.Emulation_Init
                0x0000a0ec       0x2c build/LAN9255_SQI_DIRECT_MODE/production/_ext/108134065/sample_app.o
                0x0000a0ec                Emulation_Init

.text.APPL_InputMapping%212
                0x0000a118       0x2c
 .text.APPL_InputMapping
                0x0000a118       0x2c build/LAN9255_SQI_DIRECT_MODE/production/_ext/108134065/sample_app.o
                0x0000a118                APPL_InputMapping

.text._sbrk%213
                0x0000a144       0x2c
 .text._sbrk    0x0000a144       0x2c c:/program files/microchip/xc32/v2.40/bin/bin/../../lib/gcc/pic32c/6.2.1/../../../../pic32c/lib/v7e-m/fpv4-sp/hard\libpic32c.a(sbrk.o)
                0x0000a144                _sbrk

.text.OSCCTRL_Initialize%214
                0x0000a170       0x28
 .text.OSCCTRL_Initialize
                0x0000a170       0x28 build/LAN9255_SQI_DIRECT_MODE/production/_ext/1984496892/plib_clock.o

.text.NVMCTRL_IsBusy%215
                0x0000a198       0x28
 .text.NVMCTRL_IsBusy
                0x0000a198       0x28 build/LAN9255_SQI_DIRECT_MODE/production/_ext/1593096446/plib_nvmctrl.o
                0x0000a198                NVMCTRL_IsBusy

.text.SYSTICK_TimerCallbackSet%216
                0x0000a1c0       0x28
 .text.SYSTICK_TimerCallbackSet
                0x0000a1c0       0x28 build/LAN9255_SQI_DIRECT_MODE/production/_ext/1827571544/plib_systick.o
                0x0000a1c0                SYSTICK_TimerCallbackSet

.text.ESC_IRQ_cb%217
                0x0000a1e8       0x28
 .text.ESC_IRQ_cb
                0x0000a1e8       0x28 build/LAN9255_SQI_DIRECT_MODE/production/_ext/1671622016/Drivers.o
                0x0000a1e8                ESC_IRQ_cb

.text.APP_FW_StateBOOTtoINIT%218
                0x0000a210       0x28
 .text.APP_FW_StateBOOTtoINIT
                0x0000a210       0x28 build/LAN9255_SQI_DIRECT_MODE/production/_ext/108134065/sample_app.o
                0x0000a210                APP_FW_StateBOOTtoINIT

.text.HW_GetALEventRegister%219
                0x0000a238       0x26
 .text.HW_GetALEventRegister
                0x0000a238       0x26 build/LAN9255_SQI_DIRECT_MODE/production/_ext/108147519/LAN925x.o
                0x0000a238                HW_GetALEventRegister

.text.NVMCTRL_StatusGet%220
                0x0000a260       0x24
 .text.NVMCTRL_StatusGet
                0x0000a260       0x24 build/LAN9255_SQI_DIRECT_MODE/production/_ext/1593096446/plib_nvmctrl.o
                0x0000a260                NVMCTRL_StatusGet

.text.SYSTICK_TimerStart%221
                0x0000a284       0x24
 .text.SYSTICK_TimerStart
                0x0000a284       0x24 build/LAN9255_SQI_DIRECT_MODE/production/_ext/1827571544/plib_systick.o
                0x0000a284                SYSTICK_TimerStart

.text.TCM_Configure%222
                0x0000a2a8       0x24
 .text.TCM_Configure
                0x0000a2a8       0x24 build/LAN9255_SQI_DIRECT_MODE/production/_ext/1171490990/startup_xc32.o

.text.PDI_Init_SYNC_Interrupts%223
                0x0000a2cc       0x24
 .text.PDI_Init_SYNC_Interrupts
                0x0000a2cc       0x24 build/LAN9255_SQI_DIRECT_MODE/production/_ext/108147519/ESC_Utils.o
                0x0000a2cc                PDI_Init_SYNC_Interrupts

.text.COE_Init%224
                0x0000a2f0       0x24
 .text.COE_Init
                0x0000a2f0       0x24 build/LAN9255_SQI_DIRECT_MODE/production/_ext/108134065/ecatcoe.o
                0x0000a2f0                COE_Init

.text.StopOutputHandler%225
                0x0000a314       0x24
 .text.StopOutputHandler
                0x0000a314       0x24 build/LAN9255_SQI_DIRECT_MODE/production/_ext/108134065/ecatslv.o
                0x0000a314                StopOutputHandler

.text.EMCY_IsQueueEmpty%226
                0x0000a338       0x24
 .text.EMCY_IsQueueEmpty
                0x0000a338       0x24 build/LAN9255_SQI_DIRECT_MODE/production/_ext/108134065/emcy.o
                0x0000a338                EMCY_IsQueueEmpty

.text.FOE_Error%227
                0x0000a35c       0x24
 .text.FOE_Error
                0x0000a35c       0x24 build/LAN9255_SQI_DIRECT_MODE/production/_ext/108134065/foeappl.o
                0x0000a35c                FOE_Error

.text.APP_BankSwitch%228
                0x0000a380       0x24
 .text.APP_BankSwitch
                0x0000a380       0x24 build/LAN9255_SQI_DIRECT_MODE/production/_ext/1360937237/app.o

.text.NVMCTRL_Read%229
                0x0000a3a4       0x22
 .text.NVMCTRL_Read
                0x0000a3a4       0x22 build/LAN9255_SQI_DIRECT_MODE/production/_ext/1593096446/plib_nvmctrl.o
                0x0000a3a4                NVMCTRL_Read

.text.EMCY_ContinueInd%230
                0x0000a3c6       0x22
 .text.EMCY_ContinueInd
                0x0000a3c6       0x22 build/LAN9255_SQI_DIRECT_MODE/production/_ext/108134065/emcy.o
                0x0000a3c6                EMCY_ContinueInd

.rodata.asEntryDesc0x1018%231
                0x0000a3e8       0x20
 .rodata.asEntryDesc0x1018
                0x0000a3e8       0x20 build/LAN9255_SQI_DIRECT_MODE/production/_ext/108134065/coeappl.o
                0x0000a3e8                asEntryDesc0x1018

.text.FOE_Busy%232
                0x0000a408       0x20
 .text.FOE_Busy
                0x0000a408       0x20 build/LAN9255_SQI_DIRECT_MODE/production/_ext/108134065/foeappl.o
                0x0000a408                FOE_Busy

.rodata.cBitMask%233
                0x0000a428       0x20
 .rodata.cBitMask
                0x0000a428       0x20 build/LAN9255_SQI_DIRECT_MODE/production/_ext/108134065/objdef.o
                0x0000a428                cBitMask

.text._sbrk_r%234
                0x0000a448       0x20
 .text._sbrk_r  0x0000a448       0x20 c:/program files/microchip/xc32/v2.40/bin/bin/../../lib/gcc/pic32c/6.2.1/../../../../pic32c/lib/v7e-m/fpv4-sp/hard\libc_nano.a(lib_a-sbrkr.o)
                0x0000a448                _sbrk_r

.text.HW_GetALEventRegister_Isr%235
                0x0000a468       0x1e
 .text.HW_GetALEventRegister_Isr
                0x0000a468       0x1e build/LAN9255_SQI_DIRECT_MODE/production/_ext/108147519/LAN925x.o
                0x0000a468                HW_GetALEventRegister_Isr

.text.NVMCTRL_Initialize%236
                0x0000a488       0x1c
 .text.NVMCTRL_Initialize
                0x0000a488       0x1c build/LAN9255_SQI_DIRECT_MODE/production/_ext/1593096446/plib_nvmctrl.o
                0x0000a488                NVMCTRL_Initialize

.text.NVMCTRL_BankSwap%237
                0x0000a4a4       0x1c
 .text.NVMCTRL_BankSwap
                0x0000a4a4       0x1c build/LAN9255_SQI_DIRECT_MODE/production/_ext/1593096446/plib_nvmctrl.o
                0x0000a4a4                NVMCTRL_BankSwap

.text.PORT_GroupSet%238
                0x0000a4c0       0x1c
 .text.PORT_GroupSet
                0x0000a4c0       0x1c build/LAN9255_SQI_DIRECT_MODE/production/_ext/1865521619/plib_port.o
                0x0000a4c0                PORT_GroupSet

.text.PORT_GroupClear%239
                0x0000a4dc       0x1c
 .text.PORT_GroupClear
                0x0000a4dc       0x1c build/LAN9255_SQI_DIRECT_MODE/production/_ext/1865521619/plib_port.o
                0x0000a4dc                PORT_GroupClear

.text.PORT_GroupOutputEnable%240
                0x0000a4f8       0x1c
 .text.PORT_GroupOutputEnable
                0x0000a4f8       0x1c build/LAN9255_SQI_DIRECT_MODE/production/_ext/1865521619/plib_port.o
                0x0000a4f8                PORT_GroupOutputEnable

.text.qspi_end_transfer%241
                0x0000a514       0x1c
 .text.qspi_end_transfer
                0x0000a514       0x1c build/LAN9255_SQI_DIRECT_MODE/production/_ext/1865555181/plib_qspi.o

.text.CRITICAL_SECTION_ENTER%242
                0x0000a530       0x1c
 .text.CRITICAL_SECTION_ENTER
                0x0000a530       0x1c build/LAN9255_SQI_DIRECT_MODE/production/_ext/1671622016/Drivers.o
                0x0000a530                CRITICAL_SECTION_ENTER

.text.CRITICAL_SECTION_LEAVE%243
                0x0000a54c       0x1c
 .text.CRITICAL_SECTION_LEAVE
                0x0000a54c       0x1c build/LAN9255_SQI_DIRECT_MODE/production/_ext/1671622016/Drivers.o
                0x0000a54c                CRITICAL_SECTION_LEAVE

.text.ECAT_SysTick_Handler%244
                0x0000a568       0x1c
 .text.ECAT_SysTick_Handler
                0x0000a568       0x1c build/LAN9255_SQI_DIRECT_MODE/production/_ext/1671622016/Drivers.o
                0x0000a568                ECAT_SysTick_Handler

.rodata.aName0x1C12%245
                0x0000a584       0x1c
 .rodata.aName0x1C12
                0x0000a584       0x1c build/LAN9255_SQI_DIRECT_MODE/production/_ext/108134065/coeappl.o
                0x0000a584                aName0x1C12

.rodata.aName0x1C13%246
                0x0000a5a0       0x1c
 .rodata.aName0x1C13
                0x0000a5a0       0x1c build/LAN9255_SQI_DIRECT_MODE/production/_ext/108134065/coeappl.o
                0x0000a5a0                aName0x1C13

.text.OSC32KCTRL_Initialize%247
                0x0000a5bc       0x18
 .text.OSC32KCTRL_Initialize
                0x0000a5bc       0x18 build/LAN9255_SQI_DIRECT_MODE/production/_ext/1984496892/plib_clock.o

.text.PORT_GroupRead%248
                0x0000a5d4       0x18
 .text.PORT_GroupRead
                0x0000a5d4       0x18 build/LAN9255_SQI_DIRECT_MODE/production/_ext/1865521619/plib_port.o
                0x0000a5d4                PORT_GroupRead

.text.PDI_Init_SYSTick_Interrupt%249
                0x0000a5ec       0x18
 .text.PDI_Init_SYSTick_Interrupt
                0x0000a5ec       0x18 build/LAN9255_SQI_DIRECT_MODE/production/_ext/1671622016/Drivers.o

.text.PDI_IRQ_Interrupt%250
                0x0000a604       0x18
 .text.PDI_IRQ_Interrupt
                0x0000a604       0x18 build/LAN9255_SQI_DIRECT_MODE/production/_ext/108147519/ESC_Utils.o
                0x0000a604                PDI_IRQ_Interrupt

.rodata.aName0x7010%251
                0x0000a61c       0x18
 .rodata.aName0x7010
                0x0000a61c       0x18 build/LAN9255_SQI_DIRECT_MODE/production/_ext/108134065/coeappl.o
                0x0000a61c                aName0x7010

.text.COE_GetObjectDictionary%252
                0x0000a634       0x18
 .text.COE_GetObjectDictionary
                0x0000a634       0x18 build/LAN9255_SQI_DIRECT_MODE/production/_ext/108134065/coeappl.o
                0x0000a634                COE_GetObjectDictionary

.text.BackToInitTransition%253
                0x0000a64c       0x18
 .text.BackToInitTransition
                0x0000a64c       0x18 build/LAN9255_SQI_DIRECT_MODE/production/_ext/108134065/ecatslv.o
                0x0000a64c                BackToInitTransition

.text.OBJ_GetObjDesc%254
                0x0000a664       0x18
 .text.OBJ_GetObjDesc
                0x0000a664       0x18 build/LAN9255_SQI_DIRECT_MODE/production/_ext/108134065/objdef.o
                0x0000a664                OBJ_GetObjDesc

.text.APP_FW_GetDownloadStateFinished%255
                0x0000a67c       0x18
 .text.APP_FW_GetDownloadStateFinished
                0x0000a67c       0x18 build/LAN9255_SQI_DIRECT_MODE/production/_ext/108134065/sample_app.o
                0x0000a67c                APP_FW_GetDownloadStateFinished

.text.APP_Initialize%256
                0x0000a694       0x18
 .text.APP_Initialize
                0x0000a694       0x18 build/LAN9255_SQI_DIRECT_MODE/production/_ext/1360937237/app.o
                0x0000a694                APP_Initialize

.text.BL_Start%257
                0x0000a6ac       0x16
 .text.BL_Start
                0x0000a6ac       0x16 build/LAN9255_SQI_DIRECT_MODE/production/_ext/108134065/bootmode.o
                0x0000a6ac                BL_Start

.text.EMCY_GetEmcyBuffer%258
                0x0000a6c2       0x16
 .text.EMCY_GetEmcyBuffer
                0x0000a6c2       0x16 build/LAN9255_SQI_DIRECT_MODE/production/_ext/108134065/emcy.o
                0x0000a6c2                EMCY_GetEmcyBuffer

.text.APPL_AckErrorInd%259
                0x0000a6d8       0x16
 .text.APPL_AckErrorInd
                0x0000a6d8       0x16 build/LAN9255_SQI_DIRECT_MODE/production/_ext/108134065/sample_app.o
                0x0000a6d8                APPL_AckErrorInd

.text.APPL_StartInputHandler%260
                0x0000a6ee       0x16
 .text.APPL_StartInputHandler
                0x0000a6ee       0x16 build/LAN9255_SQI_DIRECT_MODE/production/_ext/108134065/sample_app.o
                0x0000a6ee                APPL_StartInputHandler

.text.memcpy%261
                0x0000a704       0x16
 .text.memcpy   0x0000a704       0x16 c:/program files/microchip/xc32/v2.40/bin/bin/../../lib/gcc/pic32c/6.2.1/../../../../pic32c/lib/v7e-m/fpv4-sp/hard\libc_nano.a(lib_a-memcpy-stub.o)
                0x0000a704                memcpy

.text.ESC_Sync0_cb%262
                0x0000a71a       0x14
 .text.ESC_Sync0_cb
                0x0000a71a       0x14 build/LAN9255_SQI_DIRECT_MODE/production/_ext/1671622016/Drivers.o
                0x0000a71a                ESC_Sync0_cb

.text.ESC_Sync1_cb%263
                0x0000a72e       0x14
 .text.ESC_Sync1_cb
                0x0000a72e       0x14 build/LAN9255_SQI_DIRECT_MODE/production/_ext/1671622016/Drivers.o
                0x0000a72e                ESC_Sync1_cb

.rodata.aName0x6000%264
                0x0000a744       0x14
 .rodata.aName0x6000
                0x0000a744       0x14 build/LAN9255_SQI_DIRECT_MODE/production/_ext/108134065/coeappl.o
                0x0000a744                aName0x6000

.rodata.aName0x1009%265
                0x0000a758       0x14
 .rodata.aName0x1009
                0x0000a758       0x14 build/LAN9255_SQI_DIRECT_MODE/production/_ext/108134065/coeappl.o
                0x0000a758                aName0x1009

.rodata.aName0x100A%266
                0x0000a76c       0x14
 .rodata.aName0x100A
                0x0000a76c       0x14 build/LAN9255_SQI_DIRECT_MODE/production/_ext/108134065/coeappl.o
                0x0000a76c                aName0x100A

.rodata.asEntryDesc0x10F1%267
                0x0000a780       0x14
 .rodata.asEntryDesc0x10F1
                0x0000a780       0x14 build/LAN9255_SQI_DIRECT_MODE/production/_ext/108134065/coeappl.o
                0x0000a780                asEntryDesc0x10F1

.rodata.aName0x10F8%268
                0x0000a794       0x14
 .rodata.aName0x10F8
                0x0000a794       0x14 build/LAN9255_SQI_DIRECT_MODE/production/_ext/108134065/coeappl.o
                0x0000a794                aName0x10F8

.rodata.aName0x1C00%269
                0x0000a7a8       0x14
 .rodata.aName0x1C00
                0x0000a7a8       0x14 build/LAN9255_SQI_DIRECT_MODE/production/_ext/108134065/coeappl.o
                0x0000a7a8                aName0x1C00

.rodata.aName0x1001%270
                0x0000a7bc       0x10
 .rodata.aName0x1001
                0x0000a7bc       0x10 build/LAN9255_SQI_DIRECT_MODE/production/_ext/108134065/coeappl.o
                0x0000a7bc                aName0x1001

.text.APPL_StartMailboxHandler%271
                0x0000a7cc       0x10
 .text.APPL_StartMailboxHandler
                0x0000a7cc       0x10 build/LAN9255_SQI_DIRECT_MODE/production/_ext/108134065/sample_app.o
                0x0000a7cc                APPL_StartMailboxHandler

.text.APPL_StopInputHandler%272
                0x0000a7dc       0x10
 .text.APPL_StopInputHandler
                0x0000a7dc       0x10 build/LAN9255_SQI_DIRECT_MODE/production/_ext/108134065/sample_app.o
                0x0000a7dc                APPL_StopInputHandler

.text.APPL_StartOutputHandler%273
                0x0000a7ec       0x10
 .text.APPL_StartOutputHandler
                0x0000a7ec       0x10 build/LAN9255_SQI_DIRECT_MODE/production/_ext/108134065/sample_app.o
                0x0000a7ec                APPL_StartOutputHandler

.text.APPL_StopOutputHandler%274
                0x0000a7fc       0x10
 .text.APPL_StopOutputHandler
                0x0000a7fc       0x10 build/LAN9255_SQI_DIRECT_MODE/production/_ext/108134065/sample_app.o
                0x0000a7fc                APPL_StopOutputHandler

.text.main%275  0x0000a80c       0x10
 .text.main     0x0000a80c       0x10 build/LAN9255_SQI_DIRECT_MODE/production/_ext/1360937237/main.o
                0x0000a80c                main

.text.malloc%276
                0x0000a81c       0x10
 .text.malloc   0x0000a81c       0x10 c:/program files/microchip/xc32/v2.40/bin/bin/../../lib/gcc/pic32c/6.2.1/../../../../pic32c/lib/v7e-m/fpv4-sp/hard\libc_nano.a(lib_a-malloc.o)
                0x0000a81c                malloc

.text.free%277  0x0000a82c       0x10
 .text.free     0x0000a82c       0x10 c:/program files/microchip/xc32/v2.40/bin/bin/../../lib/gcc/pic32c/6.2.1/../../../../pic32c/lib/v7e-m/fpv4-sp/hard\libc_nano.a(lib_a-malloc.o)
                0x0000a82c                free

.text.memset%278
                0x0000a83c       0x10
 .text.memset   0x0000a83c       0x10 c:/program files/microchip/xc32/v2.40/bin/bin/../../lib/gcc/pic32c/6.2.1/../../../../pic32c/lib/v7e-m/fpv4-sp/hard\libc_nano.a(lib_a-memset.o)
                0x0000a83c                memset

.text%279       0x0000a84c       0x10
 .text          0x0000a84c       0x10 c:/program files/microchip/xc32/v2.40/bin/bin/../../lib/gcc/pic32c/6.2.1/../../../../pic32c/lib/v7e-m/fpv4-sp/hard\libc_nano.a(lib_a-strlen.o)
                0x0000a84c                strlen

.text.DFLL_Initialize%280
                0x0000a85c        0xe
 .text.DFLL_Initialize
                0x0000a85c        0xe build/LAN9255_SQI_DIRECT_MODE/production/_ext/1984496892/plib_clock.o

.text.EVSYS_Initialize%281
                0x0000a86a        0xe
 .text.EVSYS_Initialize
                0x0000a86a        0xe build/LAN9255_SQI_DIRECT_MODE/production/_ext/1986646378/plib_evsys.o
                0x0000a86a                EVSYS_Initialize

.text.BL_Stop%282
                0x0000a878        0xe
 .text.BL_Stop  0x0000a878        0xe build/LAN9255_SQI_DIRECT_MODE/production/_ext/108134065/bootmode.o
                0x0000a878                BL_Stop

.text.APPL_StopMailboxHandler%283
                0x0000a886        0xe
 .text.APPL_StopMailboxHandler
                0x0000a886        0xe build/LAN9255_SQI_DIRECT_MODE/production/_ext/108134065/sample_app.o
                0x0000a886                APPL_StopMailboxHandler

.text.APPL_Application%284
                0x0000a894        0xe
 .text.APPL_Application
                0x0000a894        0xe build/LAN9255_SQI_DIRECT_MODE/production/_ext/108134065/sample_app.o
                0x0000a894                APPL_Application

.text.SYS_Tasks%285
                0x0000a8a2        0xc
 .text.SYS_Tasks
                0x0000a8a2        0xc build/LAN9255_SQI_DIRECT_MODE/production/_ext/1171490990/tasks.o
                0x0000a8a2                SYS_Tasks

.text.PDI_Timer_Interrupt%286
                0x0000a8ae        0xc
 .text.PDI_Timer_Interrupt
                0x0000a8ae        0xc build/LAN9255_SQI_DIRECT_MODE/production/_ext/1671622016/Drivers.o
                0x0000a8ae                PDI_Timer_Interrupt

.text.ESC_Init%287
                0x0000a8ba        0xc
 .text.ESC_Init
                0x0000a8ba        0xc build/LAN9255_SQI_DIRECT_MODE/production/_ext/108147519/ESC_Utils.o
                0x0000a8ba                ESC_Init

.rodata.asEntryDesc0x1601%288
                0x0000a8c8        0xc
 .rodata.asEntryDesc0x1601
                0x0000a8c8        0xc build/LAN9255_SQI_DIRECT_MODE/production/_ext/108134065/coeappl.o
                0x0000a8c8                asEntryDesc0x1601

.rodata.asEntryDesc0x1A00%289
                0x0000a8d4        0xc
 .rodata.asEntryDesc0x1A00
                0x0000a8d4        0xc build/LAN9255_SQI_DIRECT_MODE/production/_ext/108134065/coeappl.o
                0x0000a8d4                asEntryDesc0x1A00

.rodata.asEntryDesc0x1C12%290
                0x0000a8e0        0xc
 .rodata.asEntryDesc0x1C12
                0x0000a8e0        0xc build/LAN9255_SQI_DIRECT_MODE/production/_ext/108134065/coeappl.o
                0x0000a8e0                asEntryDesc0x1C12

.rodata.asEntryDesc0x1C13%291
                0x0000a8ec        0xc
 .rodata.asEntryDesc0x1C13
                0x0000a8ec        0xc build/LAN9255_SQI_DIRECT_MODE/production/_ext/108134065/coeappl.o
                0x0000a8ec                asEntryDesc0x1C13

.rodata.asEntryDesc0x6000%292
                0x0000a8f8        0xc
 .rodata.asEntryDesc0x6000
                0x0000a8f8        0xc build/LAN9255_SQI_DIRECT_MODE/production/_ext/108134065/coeappl.o
                0x0000a8f8                asEntryDesc0x6000

.rodata.asEntryDesc0x7010%293
                0x0000a904        0xc
 .rodata.asEntryDesc0x7010
                0x0000a904        0xc build/LAN9255_SQI_DIRECT_MODE/production/_ext/108134065/coeappl.o
                0x0000a904                asEntryDesc0x7010

.rodata.aName0x1000%294
                0x0000a910        0xc
 .rodata.aName0x1000
                0x0000a910        0xc build/LAN9255_SQI_DIRECT_MODE/production/_ext/108134065/coeappl.o
                0x0000a910                aName0x1000

.rodata.aName0x1008%295
                0x0000a91c        0xc
 .rodata.aName0x1008
                0x0000a91c        0xc build/LAN9255_SQI_DIRECT_MODE/production/_ext/108134065/coeappl.o
                0x0000a91c                aName0x1008

.rodata.asEntryDesc0x1C00%296
                0x0000a928        0xc
 .rodata.asEntryDesc0x1C00
                0x0000a928        0xc build/LAN9255_SQI_DIRECT_MODE/production/_ext/108134065/coeappl.o
                0x0000a928                asEntryDesc0x1C00

.rodata.sEntryDesc0x1000%297
                0x0000a934        0x8
 .rodata.sEntryDesc0x1000
                0x0000a934        0x8 build/LAN9255_SQI_DIRECT_MODE/production/_ext/108134065/coeappl.o
                0x0000a934                sEntryDesc0x1000

.rodata.sEntryDesc0x1001%298
                0x0000a93c        0x8
 .rodata.sEntryDesc0x1001
                0x0000a93c        0x8 build/LAN9255_SQI_DIRECT_MODE/production/_ext/108134065/coeappl.o
                0x0000a93c                sEntryDesc0x1001

.rodata.sEntryDesc0x1008%299
                0x0000a944        0x8
 .rodata.sEntryDesc0x1008
                0x0000a944        0x8 build/LAN9255_SQI_DIRECT_MODE/production/_ext/108134065/coeappl.o
                0x0000a944                sEntryDesc0x1008

.rodata.sEntryDesc0x1009%300
                0x0000a94c        0x8
 .rodata.sEntryDesc0x1009
                0x0000a94c        0x8 build/LAN9255_SQI_DIRECT_MODE/production/_ext/108134065/coeappl.o
                0x0000a94c                sEntryDesc0x1009

.rodata.sEntryDesc0x100A%301
                0x0000a954        0x8
 .rodata.sEntryDesc0x100A
                0x0000a954        0x8 build/LAN9255_SQI_DIRECT_MODE/production/_ext/108134065/coeappl.o
                0x0000a954                sEntryDesc0x100A

.rodata.sEntryDesc0x10F8%302
                0x0000a95c        0x8
 .rodata.sEntryDesc0x10F8
                0x0000a95c        0x8 build/LAN9255_SQI_DIRECT_MODE/production/_ext/108134065/coeappl.o
                0x0000a95c                sEntryDesc0x10F8

.rodata.acEmcyCoeHeader%303
                0x0000a964        0x8
 .rodata.acEmcyCoeHeader
                0x0000a964        0x8 build/LAN9255_SQI_DIRECT_MODE/production/_ext/108134065/emcy.o
                0x0000a964                acEmcyCoeHeader

.text.NonMaskableInt_Handler%304
                0x0000a96c        0x6
 .text.NonMaskableInt_Handler
                0x0000a96c        0x6 build/LAN9255_SQI_DIRECT_MODE/production/_ext/1171490990/exceptions.o
                0x0000a96c                NonMaskableInt_Handler

.text.HardFault_Handler%305
                0x0000a972        0x6
 .text.HardFault_Handler
                0x0000a972        0x6 build/LAN9255_SQI_DIRECT_MODE/production/_ext/1171490990/exceptions.o
                0x0000a972                HardFault_Handler

.text.DebugMonitor_Handler%306
                0x0000a978        0x6
 .text.DebugMonitor_Handler
                0x0000a978        0x6 build/LAN9255_SQI_DIRECT_MODE/production/_ext/1171490990/exceptions.o
                0x0000a978                DebugMonitor_Handler

.text.MemoryManagement_Handler%307
                0x0000a97e        0x6
 .text.MemoryManagement_Handler
                0x0000a97e        0x6 build/LAN9255_SQI_DIRECT_MODE/production/_ext/1171490990/exceptions.o
                0x0000a97e                MemoryManagement_Handler

.text.BusFault_Handler%308
                0x0000a984        0x6
 .text.BusFault_Handler
                0x0000a984        0x6 build/LAN9255_SQI_DIRECT_MODE/production/_ext/1171490990/exceptions.o
                0x0000a984                BusFault_Handler

.text.UsageFault_Handler%309
                0x0000a98a        0x6
 .text.UsageFault_Handler
                0x0000a98a        0x6 build/LAN9255_SQI_DIRECT_MODE/production/_ext/1171490990/exceptions.o
                0x0000a98a                UsageFault_Handler

.rodata%310     0x0000a990        0x4
 .rodata        0x0000a990        0x4 build/LAN9255_SQI_DIRECT_MODE/production/_ext/108134065/sample_app.o

.text.Dummy_Handler%311
                0x00006fee        0x2
 .text.Dummy_Handler
                0x00006fee        0x2 build/LAN9255_SQI_DIRECT_MODE/production/_ext/1171490990/interrupts.o
                0x00006fee                EIC_EXTINT_9_Handler
                0x00006fee                TCC0_MC5_Handler
                0x00006fee                SVCall_Handler
                0x00006fee                SERCOM0_2_Handler
                0x00006fee                USB_SOF_HSOF_Handler
                0x00006fee                TCC4_OTHER_Handler
                0x00006fee                TCC2_MC2_Handler
                0x00006fee                EVSYS_0_Handler
                0x00006fee                TRNG_Handler
                0x00006fee                TC2_Handler
                0x00006fee                USB_TRCPT0_Handler
                0x00006fee                DAC_OTHER_Handler
                0x00006fee                AC_Handler
                0x00006fee                DAC_EMPTY_0_Handler
                0x00006fee                DMAC_OTHER_Handler
                0x00006fee                EIC_EXTINT_5_Handler
                0x00006fee                SERCOM3_1_Handler
                0x00006fee                SERCOM4_OTHER_Handler
                0x00006fee                SERCOM3_2_Handler
                0x00006fee                EIC_EXTINT_6_Handler
                0x00006fee                PendSV_Handler
                0x00006fee                TCC4_MC0_Handler
                0x00006fee                EVSYS_3_Handler
                0x00006fee                QSPI_Handler
                0x00006fee                TCC2_MC0_Handler
                0x00006fee                PDEC_OTHER_Handler
                0x00006fee                TCC3_MC0_Handler
                0x00006fee                PDEC_MC1_Handler
                0x00006fee                TCC2_MC1_Handler
                0x00006fee                OSCCTRL_XOSC1_Handler
                0x00006fee                PDEC_MC0_Handler
                0x00006fee                EIC_EXTINT_4_Handler
                0x00006fee                SERCOM0_OTHER_Handler
                0x00006fee                EVSYS_OTHER_Handler
                0x00006fee                SERCOM0_0_Handler
                0x00006fee                RTC_Handler
                0x00006fee                SERCOM4_0_Handler
                0x00006fee                TCC1_MC0_Handler
                0x00006fee                SERCOM1_OTHER_Handler
                0x00006fee                TCC2_OTHER_Handler
                0x00006fee                EIC_EXTINT_11_Handler
                0x00006fee                SUPC_BODDET_Handler
                0x00006fee                EIC_EXTINT_14_Handler
                0x00006fee                OSC32KCTRL_Handler
                0x00006fee                EVSYS_1_Handler
                0x00006fee                TCC4_MC1_Handler
                0x00006fee                DMAC_0_Handler
                0x00006fee                SUPC_OTHER_Handler
                0x00006fee                WDT_Handler
                0x00006fee                EIC_EXTINT_15_Handler
                0x00006fee                TCC3_MC1_Handler
                0x00006fee                SERCOM5_0_Handler
                0x00006fee                TC4_Handler
                0x00006fee                TC1_Handler
                0x00006fee                TCC1_MC1_Handler
                0x00006fee                TCC1_OTHER_Handler
                0x00006fee                PAC_Handler
                0x00006fee                SERCOM4_1_Handler
                0x00006fee                TC3_Handler
                0x00006fee                Dummy_Handler
                0x00006fee                DAC_RESRDY_0_Handler
                0x00006fee                SERCOM5_1_Handler
                0x00006fee                DMAC_2_Handler
                0x00006fee                TCC0_MC4_Handler
                0x00006fee                USB_TRCPT1_Handler
                0x00006fee                SERCOM0_1_Handler
                0x00006fee                TCC0_MC3_Handler
                0x00006fee                EIC_EXTINT_12_Handler
                0x00006fee                OSCCTRL_DPLL0_Handler
                0x00006fee                SERCOM5_OTHER_Handler
                0x00006fee                PM_Handler
                0x00006fee                OSCCTRL_DFLL_Handler
                0x00006fee                DAC_RESRDY_1_Handler
                0x00006fee                DMAC_1_Handler
                0x00006fee                USB_OTHER_Handler
                0x00006fee                TCC0_OTHER_Handler
                0x00006fee                EIC_EXTINT_10_Handler
                0x00006fee                TCC1_MC3_Handler
                0x00006fee                OSCCTRL_XOSC0_Handler
                0x00006fee                TCC0_MC0_Handler
                0x00006fee                EIC_EXTINT_2_Handler
                0x00006fee                SDHC0_Handler
                0x00006fee                SERCOM1_1_Handler
                0x00006fee                I2S_Handler
                0x00006fee                PCC_Handler
                0x00006fee                TCC3_OTHER_Handler
                0x00006fee                EIC_EXTINT_13_Handler
                0x00006fee                SERCOM1_0_Handler
                0x00006fee                PUKCC_Handler
                0x00006fee                SERCOM2_1_Handler
                0x00006fee                SERCOM1_2_Handler
                0x00006fee                SERCOM3_0_Handler
                0x00006fee                SERCOM4_2_Handler
                0x00006fee                TCC1_MC2_Handler
                0x00006fee                ADC1_RESRDY_Handler
                0x00006fee                NVMCTRL_1_Handler
                0x00006fee                SERCOM5_2_Handler
                0x00006fee                SERCOM2_2_Handler
                0x00006fee                DAC_EMPTY_1_Handler
                0x00006fee                ADC1_OTHER_Handler
                0x00006fee                OSCCTRL_DPLL1_Handler
                0x00006fee                EIC_EXTINT_3_Handler
                0x00006fee                SERCOM3_OTHER_Handler
                0x00006fee                EIC_EXTINT_8_Handler
                0x00006fee                NVMCTRL_0_Handler
                0x00006fee                ADC0_RESRDY_Handler
                0x00006fee                ADC0_OTHER_Handler
                0x00006fee                MCLK_Handler
                0x00006fee                EVSYS_2_Handler
                0x00006fee                SERCOM2_OTHER_Handler
                0x00006fee                FREQM_Handler
                0x00006fee                TC0_Handler
                0x00006fee                TCC0_MC1_Handler
                0x00006fee                DMAC_3_Handler
                0x00006fee                RAMECC_Handler
                0x00006fee                TC5_Handler
                0x00006fee                SERCOM2_0_Handler
                0x00006fee                AES_Handler
                0x00006fee                ICM_Handler
                0x00006fee                TCC0_MC2_Handler

.text.__malloc_lock%312
                0x0000734a        0x2
 .text.__malloc_lock
                0x0000734a        0x2 c:/program files/microchip/xc32/v2.40/bin/bin/../../lib/gcc/pic32c/6.2.1/../../../../pic32c/lib/v7e-m/fpv4-sp/hard\libc_nano.a(lib_a-mlock.o)
                0x0000734a                __malloc_lock

.text.__malloc_unlock%313
                0x00008476        0x2
 .text.__malloc_unlock
                0x00008476        0x2 c:/program files/microchip/xc32/v2.40/bin/bin/../../lib/gcc/pic32c/6.2.1/../../../../pic32c/lib/v7e-m/fpv4-sp/hard\libc_nano.a(lib_a-mlock.o)
                0x00008476                __malloc_unlock
