Archive member included to satisfy reference by file (symbol)

c:/program files/microchip/xc32/v3.01/bin/bin/../../lib/gcc/pic32c/8.3.1/../../../../pic32c/lib/thumb/v7e-m+fp/hard\libpic32c.a(data_init.o)
                              build/LAN9255_SQI_DIRECT_MODE/production/_ext/1171490990/startup_xc32.o (__pic32c_data_initialization)
c:/program files/microchip/xc32/v3.01/bin/bin/../../lib/gcc/pic32c/8.3.1/thumb/v7e-m+fp/hard\libgcc.a(_aeabi_uldivmod.o)
                              build/LAN9255_SQI_DIRECT_MODE/production/_ext/504274921/plib_sercom0_usart.o (__aeabi_uldivmod)
c:/program files/microchip/xc32/v3.01/bin/bin/../../lib/gcc/pic32c/8.3.1/thumb/v7e-m+fp/hard\libgcc.a(_udivmoddi4.o)
                              c:/program files/microchip/xc32/v3.01/bin/bin/../../lib/gcc/pic32c/8.3.1/thumb/v7e-m+fp/hard\libgcc.a(_aeabi_uldivmod.o) (__udivmoddi4)
c:/program files/microchip/xc32/v3.01/bin/bin/../../lib/gcc/pic32c/8.3.1/thumb/v7e-m+fp/hard\libgcc.a(_dvmd_tls.o)
                              c:/program files/microchip/xc32/v3.01/bin/bin/../../lib/gcc/pic32c/8.3.1/thumb/v7e-m+fp/hard\libgcc.a(_aeabi_uldivmod.o) (__aeabi_ldiv0)
c:/program files/microchip/xc32/v3.01/bin/bin/../../lib/gcc/pic32c/8.3.1/../../../../pic32c/lib/thumb/v7e-m+fp/hard\libc_nano.a(_lib_a-sprintf.cdnopuxX.o)
                              (_sprintf_cdnopuxX)
c:/program files/microchip/xc32/v3.01/bin/bin/../../lib/gcc/pic32c/8.3.1/../../../../pic32c/lib/thumb/v7e-m+fp/hard\libc_nano.a(lib_a-init.o)
                              build/LAN9255_SQI_DIRECT_MODE/production/_ext/1171490990/startup_xc32.o (__libc_init_array)
c:/program files/microchip/xc32/v3.01/bin/bin/../../lib/gcc/pic32c/8.3.1/../../../../pic32c/lib/thumb/v7e-m+fp/hard\libc_nano.a(lib_a-malloc.o)
                              build/LAN9255_SQI_DIRECT_MODE/production/_ext/108134065/ecatcoe.o (malloc)
c:/program files/microchip/xc32/v3.01/bin/bin/../../lib/gcc/pic32c/8.3.1/../../../../pic32c/lib/thumb/v7e-m+fp/hard\libc_nano.a(lib_a-memcpy-stub.o)
                              build/LAN9255_SQI_DIRECT_MODE/production/_ext/1593096446/plib_nvmctrl.o (memcpy)
c:/program files/microchip/xc32/v3.01/bin/bin/../../lib/gcc/pic32c/8.3.1/../../../../pic32c/lib/thumb/v7e-m+fp/hard\libc_nano.a(lib_a-memset.o)
                              build/LAN9255_SQI_DIRECT_MODE/production/_ext/1671622016/Drivers.o (memset)
c:/program files/microchip/xc32/v3.01/bin/bin/../../lib/gcc/pic32c/8.3.1/../../../../pic32c/lib/thumb/v7e-m+fp/hard\libc_nano.a(lib_a-nano-freer.o)
                              c:/program files/microchip/xc32/v3.01/bin/bin/../../lib/gcc/pic32c/8.3.1/../../../../pic32c/lib/thumb/v7e-m+fp/hard\libc_nano.a(lib_a-malloc.o) (_free_r)
c:/program files/microchip/xc32/v3.01/bin/bin/../../lib/gcc/pic32c/8.3.1/../../../../pic32c/lib/thumb/v7e-m+fp/hard\libc_nano.a(lib_a-nano-mallocr.o)
                              c:/program files/microchip/xc32/v3.01/bin/bin/../../lib/gcc/pic32c/8.3.1/../../../../pic32c/lib/thumb/v7e-m+fp/hard\libc_nano.a(lib_a-malloc.o) (_malloc_r)
c:/program files/microchip/xc32/v3.01/bin/bin/../../lib/gcc/pic32c/8.3.1/../../../../pic32c/lib/thumb/v7e-m+fp/hard\libc_nano.a(lib_a-sbrkr.o)
                              c:/program files/microchip/xc32/v3.01/bin/bin/../../lib/gcc/pic32c/8.3.1/../../../../pic32c/lib/thumb/v7e-m+fp/hard\libc_nano.a(lib_a-nano-mallocr.o) (_sbrk_r)
c:/program files/microchip/xc32/v3.01/bin/bin/../../lib/gcc/pic32c/8.3.1/../../../../pic32c/lib/thumb/v7e-m+fp/hard\libc_nano.a(lib_a-strlen.o)
                              build/LAN9255_SQI_DIRECT_MODE/production/_ext/108134065/objdef.o (strlen)
c:/program files/microchip/xc32/v3.01/bin/bin/../../lib/gcc/pic32c/8.3.1/../../../../pic32c/lib/thumb/v7e-m+fp/hard\libc_nano.a(_lib_a-nano-vfprintf.cdnopuxX.o)
                              c:/program files/microchip/xc32/v3.01/bin/bin/../../lib/gcc/pic32c/8.3.1/../../../../pic32c/lib/thumb/v7e-m+fp/hard\libc_nano.a(_lib_a-sprintf.cdnopuxX.o) (_vfprintf_cdnopuxX)
c:/program files/microchip/xc32/v3.01/bin/bin/../../lib/gcc/pic32c/8.3.1/../../../../pic32c/lib/thumb/v7e-m+fp/hard\libc_nano.a(lib_a-__ssfputs.o)
                              c:/program files/microchip/xc32/v3.01/bin/bin/../../lib/gcc/pic32c/8.3.1/../../../../pic32c/lib/thumb/v7e-m+fp/hard\libc_nano.a(_lib_a-nano-vfprintf.cdnopuxX.o) (__ssfputs_r)
c:/program files/microchip/xc32/v3.01/bin/bin/../../lib/gcc/pic32c/8.3.1/../../../../pic32c/lib/thumb/v7e-m+fp/hard\libc_nano.a(lib_a-findfp.o)
                              c:/program files/microchip/xc32/v3.01/bin/bin/../../lib/gcc/pic32c/8.3.1/../../../../pic32c/lib/thumb/v7e-m+fp/hard\libc_nano.a(_lib_a-nano-vfprintf.cdnopuxX.o) (__sinit)
c:/program files/microchip/xc32/v3.01/bin/bin/../../lib/gcc/pic32c/8.3.1/../../../../pic32c/lib/thumb/v7e-m+fp/hard\libc_nano.a(lib_a-fputwc.o)
                              c:/program files/microchip/xc32/v3.01/bin/bin/../../lib/gcc/pic32c/8.3.1/../../../../pic32c/lib/thumb/v7e-m+fp/hard\libc_nano.a(lib_a-__ssfputs.o) (_fputwc_r)
c:/program files/microchip/xc32/v3.01/bin/bin/../../lib/gcc/pic32c/8.3.1/../../../../pic32c/lib/thumb/v7e-m+fp/hard\libc_nano.a(lib_a-fwalk.o)
                              c:/program files/microchip/xc32/v3.01/bin/bin/../../lib/gcc/pic32c/8.3.1/../../../../pic32c/lib/thumb/v7e-m+fp/hard\libc_nano.a(lib_a-findfp.o) (_fwalk_reent)
c:/program files/microchip/xc32/v3.01/bin/bin/../../lib/gcc/pic32c/8.3.1/../../../../pic32c/lib/thumb/v7e-m+fp/hard\libc_nano.a(lib_a-impure.o)
                              c:/program files/microchip/xc32/v3.01/bin/bin/../../lib/gcc/pic32c/8.3.1/../../../../pic32c/lib/thumb/v7e-m+fp/hard\libc_nano.a(lib_a-findfp.o) (_global_impure_ptr)
c:/program files/microchip/xc32/v3.01/bin/bin/../../lib/gcc/pic32c/8.3.1/../../../../pic32c/lib/thumb/v7e-m+fp/hard\libc_nano.a(lib_a-locale.o)
                              c:/program files/microchip/xc32/v3.01/bin/bin/../../lib/gcc/pic32c/8.3.1/../../../../pic32c/lib/thumb/v7e-m+fp/hard\libc_nano.a(lib_a-fputwc.o) (__locale_mb_cur_max)
c:/program files/microchip/xc32/v3.01/bin/bin/../../lib/gcc/pic32c/8.3.1/../../../../pic32c/lib/thumb/v7e-m+fp/hard\libc_nano.a(lib_a-mbtowc_r.o)
                              c:/program files/microchip/xc32/v3.01/bin/bin/../../lib/gcc/pic32c/8.3.1/../../../../pic32c/lib/thumb/v7e-m+fp/hard\libc_nano.a(lib_a-locale.o) (__ascii_mbtowc)
c:/program files/microchip/xc32/v3.01/bin/bin/../../lib/gcc/pic32c/8.3.1/../../../../pic32c/lib/thumb/v7e-m+fp/hard\libc_nano.a(lib_a-memchr.o)
                              c:/program files/microchip/xc32/v3.01/bin/bin/../../lib/gcc/pic32c/8.3.1/../../../../pic32c/lib/thumb/v7e-m+fp/hard\libc_nano.a(_lib_a-nano-vfprintf.cdnopuxX.o) (memchr)
c:/program files/microchip/xc32/v3.01/bin/bin/../../lib/gcc/pic32c/8.3.1/../../../../pic32c/lib/thumb/v7e-m+fp/hard\libc_nano.a(lib_a-mlock.o)
                              c:/program files/microchip/xc32/v3.01/bin/bin/../../lib/gcc/pic32c/8.3.1/../../../../pic32c/lib/thumb/v7e-m+fp/hard\libc_nano.a(lib_a-nano-freer.o) (__malloc_lock)
c:/program files/microchip/xc32/v3.01/bin/bin/../../lib/gcc/pic32c/8.3.1/../../../../pic32c/lib/thumb/v7e-m+fp/hard\libc_nano.a(lib_a-nano-vfprintf_i.o)
                              c:/program files/microchip/xc32/v3.01/bin/bin/../../lib/gcc/pic32c/8.3.1/../../../../pic32c/lib/thumb/v7e-m+fp/hard\libc_nano.a(_lib_a-nano-vfprintf.cdnopuxX.o) (_printf_common)
c:/program files/microchip/xc32/v3.01/bin/bin/../../lib/gcc/pic32c/8.3.1/../../../../pic32c/lib/thumb/v7e-m+fp/hard\libc_nano.a(lib_a-reent.o)
                              c:/program files/microchip/xc32/v3.01/bin/bin/../../lib/gcc/pic32c/8.3.1/../../../../pic32c/lib/thumb/v7e-m+fp/hard\libc_nano.a(lib_a-sbrkr.o) (errno)
c:/program files/microchip/xc32/v3.01/bin/bin/../../lib/gcc/pic32c/8.3.1/../../../../pic32c/lib/thumb/v7e-m+fp/hard\libc_nano.a(lib_a-stdio.o)
                              c:/program files/microchip/xc32/v3.01/bin/bin/../../lib/gcc/pic32c/8.3.1/../../../../pic32c/lib/thumb/v7e-m+fp/hard\libc_nano.a(lib_a-findfp.o) (__sread)
c:/program files/microchip/xc32/v3.01/bin/bin/../../lib/gcc/pic32c/8.3.1/../../../../pic32c/lib/thumb/v7e-m+fp/hard\libc_nano.a(lib_a-strcmp.o)
                              c:/program files/microchip/xc32/v3.01/bin/bin/../../lib/gcc/pic32c/8.3.1/../../../../pic32c/lib/thumb/v7e-m+fp/hard\libc_nano.a(lib_a-locale.o) (strcmp)
c:/program files/microchip/xc32/v3.01/bin/bin/../../lib/gcc/pic32c/8.3.1/../../../../pic32c/lib/thumb/v7e-m+fp/hard\libc_nano.a(lib_a-wbuf.o)
                              c:/program files/microchip/xc32/v3.01/bin/bin/../../lib/gcc/pic32c/8.3.1/../../../../pic32c/lib/thumb/v7e-m+fp/hard\libc_nano.a(lib_a-__ssfputs.o) (__swbuf_r)
c:/program files/microchip/xc32/v3.01/bin/bin/../../lib/gcc/pic32c/8.3.1/../../../../pic32c/lib/thumb/v7e-m+fp/hard\libc_nano.a(lib_a-wcrtomb.o)
                              c:/program files/microchip/xc32/v3.01/bin/bin/../../lib/gcc/pic32c/8.3.1/../../../../pic32c/lib/thumb/v7e-m+fp/hard\libc_nano.a(lib_a-fputwc.o) (_wcrtomb_r)
c:/program files/microchip/xc32/v3.01/bin/bin/../../lib/gcc/pic32c/8.3.1/../../../../pic32c/lib/thumb/v7e-m+fp/hard\libc_nano.a(lib_a-wctomb_r.o)
                              c:/program files/microchip/xc32/v3.01/bin/bin/../../lib/gcc/pic32c/8.3.1/../../../../pic32c/lib/thumb/v7e-m+fp/hard\libc_nano.a(lib_a-locale.o) (__ascii_wctomb)
c:/program files/microchip/xc32/v3.01/bin/bin/../../lib/gcc/pic32c/8.3.1/../../../../pic32c/lib/thumb/v7e-m+fp/hard\libc_nano.a(lib_a-writer.o)
                              c:/program files/microchip/xc32/v3.01/bin/bin/../../lib/gcc/pic32c/8.3.1/../../../../pic32c/lib/thumb/v7e-m+fp/hard\libc_nano.a(lib_a-stdio.o) (_write_r)
c:/program files/microchip/xc32/v3.01/bin/bin/../../lib/gcc/pic32c/8.3.1/../../../../pic32c/lib/thumb/v7e-m+fp/hard\libc_nano.a(lib_a-wsetup.o)
                              c:/program files/microchip/xc32/v3.01/bin/bin/../../lib/gcc/pic32c/8.3.1/../../../../pic32c/lib/thumb/v7e-m+fp/hard\libc_nano.a(_lib_a-nano-vfprintf.cdnopuxX.o) (__swsetup_r)
c:/program files/microchip/xc32/v3.01/bin/bin/../../lib/gcc/pic32c/8.3.1/../../../../pic32c/lib/thumb/v7e-m+fp/hard\libc_nano.a(lib_a-closer.o)
                              c:/program files/microchip/xc32/v3.01/bin/bin/../../lib/gcc/pic32c/8.3.1/../../../../pic32c/lib/thumb/v7e-m+fp/hard\libc_nano.a(lib_a-stdio.o) (_close_r)
c:/program files/microchip/xc32/v3.01/bin/bin/../../lib/gcc/pic32c/8.3.1/../../../../pic32c/lib/thumb/v7e-m+fp/hard\libc_nano.a(lib_a-ctype_.o)
                              c:/program files/microchip/xc32/v3.01/bin/bin/../../lib/gcc/pic32c/8.3.1/../../../../pic32c/lib/thumb/v7e-m+fp/hard\libc_nano.a(lib_a-locale.o) (_ctype_)
c:/program files/microchip/xc32/v3.01/bin/bin/../../lib/gcc/pic32c/8.3.1/../../../../pic32c/lib/thumb/v7e-m+fp/hard\libc_nano.a(lib_a-fflush.o)
                              c:/program files/microchip/xc32/v3.01/bin/bin/../../lib/gcc/pic32c/8.3.1/../../../../pic32c/lib/thumb/v7e-m+fp/hard\libc_nano.a(lib_a-findfp.o) (_fflush_r)
c:/program files/microchip/xc32/v3.01/bin/bin/../../lib/gcc/pic32c/8.3.1/../../../../pic32c/lib/thumb/v7e-m+fp/hard\libc_nano.a(lib_a-lseekr.o)
                              c:/program files/microchip/xc32/v3.01/bin/bin/../../lib/gcc/pic32c/8.3.1/../../../../pic32c/lib/thumb/v7e-m+fp/hard\libc_nano.a(lib_a-stdio.o) (_lseek_r)
c:/program files/microchip/xc32/v3.01/bin/bin/../../lib/gcc/pic32c/8.3.1/../../../../pic32c/lib/thumb/v7e-m+fp/hard\libc_nano.a(lib_a-makebuf.o)
                              c:/program files/microchip/xc32/v3.01/bin/bin/../../lib/gcc/pic32c/8.3.1/../../../../pic32c/lib/thumb/v7e-m+fp/hard\libc_nano.a(lib_a-wsetup.o) (__smakebuf_r)
c:/program files/microchip/xc32/v3.01/bin/bin/../../lib/gcc/pic32c/8.3.1/../../../../pic32c/lib/thumb/v7e-m+fp/hard\libc_nano.a(lib_a-readr.o)
                              c:/program files/microchip/xc32/v3.01/bin/bin/../../lib/gcc/pic32c/8.3.1/../../../../pic32c/lib/thumb/v7e-m+fp/hard\libc_nano.a(lib_a-stdio.o) (_read_r)
c:/program files/microchip/xc32/v3.01/bin/bin/../../lib/gcc/pic32c/8.3.1/../../../../pic32c/lib/thumb/v7e-m+fp/hard\libc_nano.a(lib_a-fstatr.o)
                              c:/program files/microchip/xc32/v3.01/bin/bin/../../lib/gcc/pic32c/8.3.1/../../../../pic32c/lib/thumb/v7e-m+fp/hard\libc_nano.a(lib_a-makebuf.o) (_fstat_r)
c:/program files/microchip/xc32/v3.01/bin/bin/../../lib/gcc/pic32c/8.3.1/../../../../pic32c/lib/thumb/v7e-m+fp/hard\libc_nano.a(lib_a-isattyr.o)
                              c:/program files/microchip/xc32/v3.01/bin/bin/../../lib/gcc/pic32c/8.3.1/../../../../pic32c/lib/thumb/v7e-m+fp/hard\libc_nano.a(lib_a-makebuf.o) (_isatty_r)
c:/program files/microchip/xc32/v3.01/bin/bin/../../lib/gcc/pic32c/8.3.1/../../../../pic32c/lib/thumb/v7e-m+fp/hard\libpic32c.a(_close.o)
                              c:/program files/microchip/xc32/v3.01/bin/bin/../../lib/gcc/pic32c/8.3.1/../../../../pic32c/lib/thumb/v7e-m+fp/hard\libc_nano.a(lib_a-closer.o) (_close)
c:/program files/microchip/xc32/v3.01/bin/bin/../../lib/gcc/pic32c/8.3.1/../../../../pic32c/lib/thumb/v7e-m+fp/hard\libpic32c.a(_fstat.o)
                              c:/program files/microchip/xc32/v3.01/bin/bin/../../lib/gcc/pic32c/8.3.1/../../../../pic32c/lib/thumb/v7e-m+fp/hard\libc_nano.a(lib_a-fstatr.o) (_fstat)
c:/program files/microchip/xc32/v3.01/bin/bin/../../lib/gcc/pic32c/8.3.1/../../../../pic32c/lib/thumb/v7e-m+fp/hard\libpic32c.a(_isatty.o)
                              c:/program files/microchip/xc32/v3.01/bin/bin/../../lib/gcc/pic32c/8.3.1/../../../../pic32c/lib/thumb/v7e-m+fp/hard\libc_nano.a(lib_a-isattyr.o) (_isatty)
c:/program files/microchip/xc32/v3.01/bin/bin/../../lib/gcc/pic32c/8.3.1/../../../../pic32c/lib/thumb/v7e-m+fp/hard\libpic32c.a(_lseek.o)
                              c:/program files/microchip/xc32/v3.01/bin/bin/../../lib/gcc/pic32c/8.3.1/../../../../pic32c/lib/thumb/v7e-m+fp/hard\libc_nano.a(lib_a-lseekr.o) (_lseek)
c:/program files/microchip/xc32/v3.01/bin/bin/../../lib/gcc/pic32c/8.3.1/../../../../pic32c/lib/thumb/v7e-m+fp/hard\libpic32c.a(_read.o)
                              c:/program files/microchip/xc32/v3.01/bin/bin/../../lib/gcc/pic32c/8.3.1/../../../../pic32c/lib/thumb/v7e-m+fp/hard\libc_nano.a(lib_a-readr.o) (_read)
c:/program files/microchip/xc32/v3.01/bin/bin/../../lib/gcc/pic32c/8.3.1/../../../../pic32c/lib/thumb/v7e-m+fp/hard\libpic32c.a(sbrk.o)
                              c:/program files/microchip/xc32/v3.01/bin/bin/../../lib/gcc/pic32c/8.3.1/../../../../pic32c/lib/thumb/v7e-m+fp/hard\libc_nano.a(lib_a-sbrkr.o) (_sbrk)
c:/program files/microchip/xc32/v3.01/bin/bin/../../lib/gcc/pic32c/8.3.1/../../../../pic32c/lib/thumb/v7e-m+fp/hard\libpic32c.a(_write.o)
                              c:/program files/microchip/xc32/v3.01/bin/bin/../../lib/gcc/pic32c/8.3.1/../../../../pic32c/lib/thumb/v7e-m+fp/hard\libc_nano.a(lib_a-writer.o) (_write)
c:/program files/microchip/xc32/v3.01/bin/bin/../../lib/gcc/pic32c/8.3.1/../../../../pic32c/lib/thumb/v7e-m+fp/hard\libpic32c.a(close.o)
                              c:/program files/microchip/xc32/v3.01/bin/bin/../../lib/gcc/pic32c/8.3.1/../../../../pic32c/lib/thumb/v7e-m+fp/hard\libpic32c.a(_close.o) (close)
c:/program files/microchip/xc32/v3.01/bin/bin/../../lib/gcc/pic32c/8.3.1/../../../../pic32c/lib/thumb/v7e-m+fp/hard\libpic32c.a(fstat.o)
                              c:/program files/microchip/xc32/v3.01/bin/bin/../../lib/gcc/pic32c/8.3.1/../../../../pic32c/lib/thumb/v7e-m+fp/hard\libpic32c.a(_fstat.o) (fstat)
c:/program files/microchip/xc32/v3.01/bin/bin/../../lib/gcc/pic32c/8.3.1/../../../../pic32c/lib/thumb/v7e-m+fp/hard\libpic32c.a(isatty.o)
                              c:/program files/microchip/xc32/v3.01/bin/bin/../../lib/gcc/pic32c/8.3.1/../../../../pic32c/lib/thumb/v7e-m+fp/hard\libpic32c.a(_isatty.o) (isatty)
c:/program files/microchip/xc32/v3.01/bin/bin/../../lib/gcc/pic32c/8.3.1/../../../../pic32c/lib/thumb/v7e-m+fp/hard\libpic32c.a(lseek.o)
                              c:/program files/microchip/xc32/v3.01/bin/bin/../../lib/gcc/pic32c/8.3.1/../../../../pic32c/lib/thumb/v7e-m+fp/hard\libpic32c.a(_lseek.o) (lseek)
c:/program files/microchip/xc32/v3.01/bin/bin/../../lib/gcc/pic32c/8.3.1/../../../../pic32c/lib/thumb/v7e-m+fp/hard\libpic32c.a(read.o)
                              c:/program files/microchip/xc32/v3.01/bin/bin/../../lib/gcc/pic32c/8.3.1/../../../../pic32c/lib/thumb/v7e-m+fp/hard\libpic32c.a(_read.o) (read)
c:/program files/microchip/xc32/v3.01/bin/bin/../../lib/gcc/pic32c/8.3.1/../../../../pic32c/lib/thumb/v7e-m+fp/hard\libpic32c.a(write.o)
                              c:/program files/microchip/xc32/v3.01/bin/bin/../../lib/gcc/pic32c/8.3.1/../../../../pic32c/lib/thumb/v7e-m+fp/hard\libpic32c.a(_write.o) (write)

Allocating common symbols
Common symbol       size              file

b3BufferMode        0x1               build/LAN9255_SQI_DIRECT_MODE/production/_ext/108134065/ecatslv.o
nEcatStateTrans     0x2               build/LAN9255_SQI_DIRECT_MODE/production/_ext/108134065/ecatslv.o
EcatWdCounter       0x2               build/LAN9255_SQI_DIRECT_MODE/production/_ext/108134065/ecatslv.o
sSendEmcyQueue      0x10              build/LAN9255_SQI_DIRECT_MODE/production/_ext/108134065/emcy.o
bApplEsmPending     0x1               build/LAN9255_SQI_DIRECT_MODE/production/_ext/108134065/ecatslv.o
pCoeSendStored      0x4               build/LAN9255_SQI_DIRECT_MODE/production/_ext/108134065/ecatcoe.o
pAPPL_EEPROM_Store  0x4               build/LAN9255_SQI_DIRECT_MODE/production/_ext/108134065/ecatappl.o
nSdoInfoIndex       0x2               build/LAN9255_SQI_DIRECT_MODE/production/_ext/108134065/sdoserv.o
pStoreData          0x4               build/LAN9255_SQI_DIRECT_MODE/production/_ext/108134065/sdoserv.o
u8MbxReadCounter    0x1               build/LAN9255_SQI_DIRECT_MODE/production/_ext/108134065/mailbox.o
nAlStatus           0x1               build/LAN9255_SQI_DIRECT_MODE/production/_ext/108134065/ecatslv.o
nPdOutputSize       0x2               build/LAN9255_SQI_DIRECT_MODE/production/_ext/108134065/ecatslv.o
u32FileOffset       0x4               build/LAN9255_SQI_DIRECT_MODE/production/_ext/108134065/ecatfoe.o
u16LocalErrorCode   0x2               build/LAN9255_SQI_DIRECT_MODE/production/_ext/108134065/ecatslv.o
nSdoSegBytesToHandle
                    0x4               build/LAN9255_SQI_DIRECT_MODE/production/_ext/108134065/sdoserv.o
errno               0x4               c:/program files/microchip/xc32/v3.01/bin/bin/../../lib/gcc/pic32c/8.3.1/../../../../pic32c/lib/thumb/v7e-m+fp/hard\libc_nano.a(lib_a-reent.o)
sMbxSendQueue       0x34              build/LAN9255_SQI_DIRECT_MODE/production/_ext/108134065/mailbox.o
gEscALEvent         0x2               build/LAN9255_SQI_DIRECT_MODE/production/_ext/108147519/LAN925x.o
sMbxReceiveQueue    0x34              build/LAN9255_SQI_DIRECT_MODE/production/_ext/108134065/mailbox.o
bNoMbxMemoryAvailable
                    0x1               build/LAN9255_SQI_DIRECT_MODE/production/_ext/108134065/mailbox.o
u16FileAccessState  0x2               build/LAN9255_SQI_DIRECT_MODE/production/_ext/108134065/ecatfoe.o
Sync0WdCounter      0x2               build/LAN9255_SQI_DIRECT_MODE/production/_ext/108134065/ecatslv.o
u32PacketNo         0x4               build/LAN9255_SQI_DIRECT_MODE/production/_ext/108134065/ecatfoe.o
bMinCycleTimeMeasurementStarted
                    0x1               build/LAN9255_SQI_DIRECT_MODE/production/_ext/108134065/ecatappl.o
bLocalErrorFlag     0x1               build/LAN9255_SQI_DIRECT_MODE/production/_ext/108134065/ecatslv.o
bSendMbxIsFull      0x1               build/LAN9255_SQI_DIRECT_MODE/production/_ext/108134065/mailbox.o
u32CycleTimeStartValue
                    0x4               build/LAN9255_SQI_DIRECT_MODE/production/_ext/108134065/ecatappl.o
LatchInputSync0Counter
                    0x2               build/LAN9255_SQI_DIRECT_MODE/production/_ext/108134065/ecatslv.o
i16WaitForPllRunningCnt
                    0x2               build/LAN9255_SQI_DIRECT_MODE/production/_ext/108134065/ecatslv.o
nEscAddrOutputData  0x2               build/LAN9255_SQI_DIRECT_MODE/production/_ext/108134065/ecatslv.o
bMbxRunning         0x1               build/LAN9255_SQI_DIRECT_MODE/production/_ext/108134065/mailbox.o
aFileData           0x2000            build/LAN9255_SQI_DIRECT_MODE/production/_ext/108134065/sample_app.o
Sync0WdValue        0x2               build/LAN9255_SQI_DIRECT_MODE/production/_ext/108134065/ecatslv.o
u8EcatRunLed        0x1               build/LAN9255_SQI_DIRECT_MODE/production/_ext/108134065/ecatslv.o
i16WaitForPllRunningTimeout
                    0x2               build/LAN9255_SQI_DIRECT_MODE/production/_ext/108134065/ecatslv.o
bSdoSegAccess       0x1               build/LAN9255_SQI_DIRECT_MODE/production/_ext/108134065/sdoserv.o
pAPPL_EEPROM_Read   0x4               build/LAN9255_SQI_DIRECT_MODE/production/_ext/108134065/ecatappl.o
Sync1WdValue        0x2               build/LAN9255_SQI_DIRECT_MODE/production/_ext/108134065/ecatslv.o
pAPPL_EEPROM_Write  0x4               build/LAN9255_SQI_DIRECT_MODE/production/_ext/108134065/ecatappl.o
bSdoSegFollows      0x1               build/LAN9255_SQI_DIRECT_MODE/production/_ext/108134065/sdoserv.o
nSdoSegCompleteSize
                    0x4               build/LAN9255_SQI_DIRECT_MODE/production/_ext/108134065/sdoserv.o
u16ALEventMask      0x2               build/LAN9255_SQI_DIRECT_MODE/production/_ext/108134065/ecatslv.o
pSdoPendFunc        0x4               build/LAN9255_SQI_DIRECT_MODE/production/_ext/108134065/sdoserv.o
bDcRunning          0x1               build/LAN9255_SQI_DIRECT_MODE/production/_ext/108134065/ecatslv.o
u32dummy            0x4               build/LAN9255_SQI_DIRECT_MODE/production/_ext/108134065/ecatslv.o
bRunApplication     0x1               build/LAN9255_SQI_DIRECT_MODE/production/_ext/108134065/ecatappl.o
u16EscAddrReceiveMbx
                    0x2               build/LAN9255_SQI_DIRECT_MODE/production/_ext/108134065/mailbox.o
psStoreMbx          0x4               build/LAN9255_SQI_DIRECT_MODE/production/_ext/108134065/mailbox.o
SyncManInfo         0x8               build/LAN9255_SQI_DIRECT_MODE/production/_ext/108134065/ecatslv.o
b32BitDc            0x1               build/LAN9255_SQI_DIRECT_MODE/production/_ext/108134065/ecatslv.o
u32SystemTimeReadFailure
                    0x4               build/LAN9255_SQI_DIRECT_MODE/production/_ext/108134065/ecatappl.o
u8PendingSdo        0x1               build/LAN9255_SQI_DIRECT_MODE/production/_ext/108134065/sdoserv.o
appData             0x1               build/LAN9255_SQI_DIRECT_MODE/production/_ext/1360937237/app.o
LatchInputSync0Value
                    0x2               build/LAN9255_SQI_DIRECT_MODE/production/_ext/108134065/ecatslv.o
sercom0USARTObj     0x30              build/LAN9255_SQI_DIRECT_MODE/production/_ext/504274921/plib_sercom0_usart.o
u16SendMbxSize      0x2               build/LAN9255_SQI_DIRECT_MODE/production/_ext/108134065/mailbox.o
bEcatWaitForAlControlRes
                    0x1               build/LAN9255_SQI_DIRECT_MODE/production/_ext/108134065/ecatslv.o
psReadMbx           0x4               build/LAN9255_SQI_DIRECT_MODE/production/_ext/108134065/mailbox.o
bEcatWaitForInputUpdate
                    0x1               build/LAN9255_SQI_DIRECT_MODE/production/_ext/108134065/ecatappl.o
sSyncManInPar       0x44              build/LAN9255_SQI_DIRECT_MODE/production/_ext/108134065/objdef.o
nPdInputSize        0x2               build/LAN9255_SQI_DIRECT_MODE/production/_ext/108134065/ecatslv.o
u32MinCycleTimeValue
                    0x4               build/LAN9255_SQI_DIRECT_MODE/production/_ext/108134065/ecatappl.o
u16SmSync0Value     0x2               build/LAN9255_SQI_DIRECT_MODE/production/_ext/108134065/ecatslv.o
bStoreCompleteAccess
                    0x1               build/LAN9255_SQI_DIRECT_MODE/production/_ext/108134065/sdoserv.o
aPdOutputData       0x44              build/LAN9255_SQI_DIRECT_MODE/production/_ext/108134065/ecatappl.o
bSdoSegLastToggle   0x1               build/LAN9255_SQI_DIRECT_MODE/production/_ext/108134065/sdoserv.o
eicCallbackObject   0xc0              build/LAN9255_SQI_DIRECT_MODE/production/_ext/60167341/plib_eic.o
nSdoSegService      0x1               build/LAN9255_SQI_DIRECT_MODE/production/_ext/108134065/sdoserv.o
bReceiveMbxIsLocked
                    0x1               build/LAN9255_SQI_DIRECT_MODE/production/_ext/108134065/mailbox.o
pAPPL_FoeError      0x4               build/LAN9255_SQI_DIRECT_MODE/production/_ext/108134065/ecatappl.o
u16EscAddrSendMbx   0x2               build/LAN9255_SQI_DIRECT_MODE/production/_ext/108134065/mailbox.o
u16EepromStoreTimeoutCounter
                    0x2               build/LAN9255_SQI_DIRECT_MODE/production/_ext/108134065/ecatappl.o
sysObj              0x1               build/LAN9255_SQI_DIRECT_MODE/production/_ext/1171490990/initialization.o
nMaxEscAddress      0x2               build/LAN9255_SQI_DIRECT_MODE/production/_ext/108134065/ecatslv.o
bEcatFirstOutputsReceived
                    0x1               build/LAN9255_SQI_DIRECT_MODE/production/_ext/108134065/ecatslv.o
psWriteMbx          0x4               build/LAN9255_SQI_DIRECT_MODE/production/_ext/108134065/mailbox.o
u8MbxWriteCounter   0x1               build/LAN9255_SQI_DIRECT_MODE/production/_ext/108134065/mailbox.o
sercom4SPIObj       0x2c              build/LAN9255_SQI_DIRECT_MODE/production/_ext/17022449/plib_sercom4_spi_master.o
u32LastDc32Value    0x4               build/LAN9255_SQI_DIRECT_MODE/production/_ext/108134065/coeappl.o
u32CheckForDcOverrunCnt
                    0x4               build/LAN9255_SQI_DIRECT_MODE/production/_ext/108134065/coeappl.o
u8MailboxSendReqStored
                    0x1               build/LAN9255_SQI_DIRECT_MODE/production/_ext/108134065/mailbox.o
EepromReadSize      0x2               build/LAN9255_SQI_DIRECT_MODE/production/_ext/108134065/ecatappl.o
pSdoInfoObjEntry    0x4               build/LAN9255_SQI_DIRECT_MODE/production/_ext/108134065/sdoserv.o
bSmSyncSequenceValid
                    0x1               build/LAN9255_SQI_DIRECT_MODE/production/_ext/108134065/ecatslv.o
nSdoInfoFragmentsLeft
                    0x2               build/LAN9255_SQI_DIRECT_MODE/production/_ext/108134065/sdoserv.o
EsmTimeoutCounter   0x2               build/LAN9255_SQI_DIRECT_MODE/production/_ext/108134065/ecatslv.o
pAPPL_FoeReadData   0x4               build/LAN9255_SQI_DIRECT_MODE/production/_ext/108134065/ecatappl.o
u16ReceiveMbxSize   0x2               build/LAN9255_SQI_DIRECT_MODE/production/_ext/108134065/mailbox.o
pSdoResStored       0x4               build/LAN9255_SQI_DIRECT_MODE/production/_ext/108134065/sdoserv.o
asEmcy              0x8               build/LAN9255_SQI_DIRECT_MODE/production/_ext/108134065/emcy.o
bBootMode           0x1               build/LAN9255_SQI_DIRECT_MODE/production/_ext/108134065/ecatslv.o
u8readData          0x1               build/LAN9255_SQI_DIRECT_MODE/production/_ext/1360937237/app.o
u32StoreDataSize    0x4               build/LAN9255_SQI_DIRECT_MODE/production/_ext/108134065/sdoserv.o
pSdoSegData         0x4               build/LAN9255_SQI_DIRECT_MODE/production/_ext/108134065/sdoserv.o
bDcSyncActive       0x1               build/LAN9255_SQI_DIRECT_MODE/production/_ext/108134065/ecatslv.o
bEcatOutputUpdateRunning
                    0x1               build/LAN9255_SQI_DIRECT_MODE/production/_ext/108134065/ecatslv.o
pAPPL_MainLoop      0x4               build/LAN9255_SQI_DIRECT_MODE/production/_ext/108134065/ecatappl.o
sSyncManOutPar      0x44              build/LAN9255_SQI_DIRECT_MODE/production/_ext/108134065/objdef.o
sEmptyEmcyQueue     0x10              build/LAN9255_SQI_DIRECT_MODE/production/_ext/108134065/emcy.o
Sync1WdCounter      0x2               build/LAN9255_SQI_DIRECT_MODE/production/_ext/108134065/ecatslv.o
EcatWdValue         0x2               build/LAN9255_SQI_DIRECT_MODE/production/_ext/108134065/ecatslv.o
bEtherCATErrorLed   0x1               build/LAN9255_SQI_DIRECT_MODE/production/_ext/108134065/ecatappl.o
u32MinCycleTimeStartValue
                    0x4               build/LAN9255_SQI_DIRECT_MODE/production/_ext/108134065/ecatappl.o
bSyncSetByUser      0x1               build/LAN9255_SQI_DIRECT_MODE/production/_ext/108134065/objdef.o
bMbxRepeatToggle    0x1               build/LAN9255_SQI_DIRECT_MODE/production/_ext/108134065/mailbox.o
bEcatInputUpdateRunning
                    0x1               build/LAN9255_SQI_DIRECT_MODE/production/_ext/108134065/ecatslv.o
bEscIntEnabled      0x1               build/LAN9255_SQI_DIRECT_MODE/production/_ext/108134065/ecatslv.o
psRepeatMbx         0x4               build/LAN9255_SQI_DIRECT_MODE/production/_ext/108134065/mailbox.o
nSdoSegIndex        0x2               build/LAN9255_SQI_DIRECT_MODE/production/_ext/108134065/sdoserv.o
aSdoInfoHeader      0x10              build/LAN9255_SQI_DIRECT_MODE/production/_ext/108134065/sdoserv.o
pSdoSegObjEntry     0x4               build/LAN9255_SQI_DIRECT_MODE/production/_ext/108134065/sdoserv.o
aPdInputData        0x44              build/LAN9255_SQI_DIRECT_MODE/production/_ext/108134065/ecatappl.o
bWdTrigger          0x1               build/LAN9255_SQI_DIRECT_MODE/production/_ext/108134065/ecatslv.o
nSdoSegSubindex     0x1               build/LAN9255_SQI_DIRECT_MODE/production/_ext/108134065/sdoserv.o
pEEPROM             0x4               build/LAN9255_SQI_DIRECT_MODE/production/_ext/108134065/ecatappl.o
u16StoreIndex       0x2               build/LAN9255_SQI_DIRECT_MODE/production/_ext/108134065/sdoserv.o
bEtherCATRunLed     0x1               build/LAN9255_SQI_DIRECT_MODE/production/_ext/108134065/ecatappl.o
pAPPL_FoeWriteData  0x4               build/LAN9255_SQI_DIRECT_MODE/production/_ext/108134065/ecatappl.o
u16SmSync0Counter   0x2               build/LAN9255_SQI_DIRECT_MODE/production/_ext/108134065/ecatslv.o
pFoeSendStored      0x4               build/LAN9255_SQI_DIRECT_MODE/production/_ext/108134065/ecatfoe.o
nMaxSyncMan         0x1               build/LAN9255_SQI_DIRECT_MODE/production/_ext/108134065/ecatslv.o
pAPPL_EEPROM_Reload
                    0x4               build/LAN9255_SQI_DIRECT_MODE/production/_ext/108134065/ecatappl.o
u8StoreSubindex     0x1               build/LAN9255_SQI_DIRECT_MODE/production/_ext/108134065/sdoserv.o
aFileName           0x16              build/LAN9255_SQI_DIRECT_MODE/production/_ext/108134065/sample_app.o
u32LastFileOffset   0x4               build/LAN9255_SQI_DIRECT_MODE/production/_ext/108134065/ecatfoe.o
pAPPL_FoeRead       0x4               build/LAN9255_SQI_DIRECT_MODE/production/_ext/108134065/ecatappl.o
u16EepromStoreTimeoutValue
                    0x2               build/LAN9255_SQI_DIRECT_MODE/production/_ext/108134065/ecatappl.o
sCycleDiag          0x2               build/LAN9255_SQI_DIRECT_MODE/production/_ext/108134065/objdef.o
systick             0xc               build/LAN9255_SQI_DIRECT_MODE/production/_ext/1827571544/plib_systick.o
pAPPL_FoeWrite      0x4               build/LAN9255_SQI_DIRECT_MODE/production/_ext/108134065/ecatappl.o
u16FoeMaxSendBlockSize
                    0x2               build/LAN9255_SQI_DIRECT_MODE/production/_ext/108134065/ecatfoe.o
u8EcatErrorLed      0x1               build/LAN9255_SQI_DIRECT_MODE/production/_ext/108134065/ecatslv.o
nEscAddrInputData   0x2               build/LAN9255_SQI_DIRECT_MODE/production/_ext/108134065/ecatslv.o

Microchip PIC32 Memory-Usage Report

ROM Program-Memory Usage
section                    address  length [bytes]      (dec)  Description
-------                 ----------  -------------------------  -----------
.vectors                         0          0x260         608   
.text                        0x260           0x20          32  App's exec code 
.ARM.exidx                   0x280            0x8           8   
.dinit                       0x288          0xb90        2960   
.config_eeprom               0xe18          0x800        2048   
.text.StartInputHandler     0x1618          0x7e4        2020   
.text.AL_ControlInd         0x1dfc          0x790        1936   
.text.OBJ_Write             0x258c          0x710        1808   
.rodata.guiFont_Tahoma_     0x2c9c          0x690        1680   
.text.OBJ_Read              0x332c          0x67c        1660   
.text.SDOS_SdoInd           0x39a8          0x5e4        1508   
.text.FOE_ServiceInd        0x3f8c          0x488        1160   
.text.SDOS_SdoInfoInd       0x4414          0x434        1076   
.text.SdoDownloadSegmen     0x4848          0x3b4         948   
.text.CheckSmSettings       0x4bfc          0x3a0         928   
.text._vfprintf_r_cdnop     0x4f9c          0x384         900   
.text                       0x5320          0x2d0         720  App's exec code 
.text.EEPROM_CommandHan     0x55f0          0x2c4         708   
.text.AL_ControlRes         0x58b4          0x2bc         700   
.text.APP_Tasks             0x5b70          0x2b0         688   
.text.SdoUploadSegmentI     0x5e20          0x260         608   
.text.character             0x6080          0x22c         556   
.text.SERCOM0_USART_Ser     0x62ac          0x218         536   
.text.SERCOM4_SPI_Write     0x64c4          0x1f8         504   
.text.SendSmFailedEmerg     0x66bc          0x1e0         480   
.text.SERCOM4_SPI_Inter     0x689c          0x1cc         460   
.text.SdoRes                0x6a68          0x1bc         444   
.text.ECAT_Main             0x6c24          0x1b4         436   
.text.CheckSyncTypeValu     0x6dd8          0x1b4         436   
.text.FoE_WriteData         0x6f8c          0x18c         396   
.text.OBJ_GetEntryOffse     0x7118          0x178         376   
.text.APPL_GenerateMapp     0x7290          0x174         372   
.text.ECAT_Init             0x7404          0x170         368   
.text.SetALStatus           0x7574          0x164         356   
.text.MBX_CheckAndCopyM     0x76d8          0x164         356   
.text.COE_ObjInit           0x783c          0x160         352   
.text.Sync0_Isr             0x799c          0x15c         348   
.text.MainInit              0x7af8          0x15c         348   
.text.MBX_StopMailboxHa     0x7c54          0x154         340   
.text.APP_FlashEEPROMUp     0x7da8          0x154         340   
.text.box_area              0x7efc          0x150         336   
.text.PDI_Isr               0x804c          0x14c         332   
.text.StopInputHandler      0x8198          0x12c         300   
.text.MBX_MailboxReadIn     0x82c4          0x124         292   
.text.OBJ_GetObjectLeng     0x83e8          0x124         292   
.text.DC_CheckWatchdog      0x850c          0x120         288   
.text.OBJ_GetDesc           0x862c          0x120         288   
.text.SDOS_SdoRes           0x874c          0x120         288   
.text.MBX_StartMailboxH     0x886c          0x114         276   
.text.MBX_CopyToSendMai     0x8980          0x10c         268   
.text.__sflush_r            0x8a8c          0x10c         268   
.rodata._ctype_             0x8b98          0x101         257   
.rodata.aName0x1C32         0x8c9c          0x100         256   
.rodata.aName0x1C33         0x8d9c          0x100         256   
.text.MBX_Init              0x8e9c          0x100         256   
.text.ECAT_CheckTimer       0x8f9c           0xfc         252   
.text.APPL_UpdateUARTCo     0x9098           0xfc         252   
.text.pixel                 0x9194           0xf8         248   
.text.OBJ_GetObjectList     0x928c           0xf8         248   
.text.MBX_MailboxWriteI     0x9384           0xf4         244   
.text.oledc_init            0x9478           0xec         236   
.text.LAN9253SQI_Read       0x9564           0xec         236   
.text.MainLoop              0x9650           0xec         236   
.text._printf_common        0x973c           0xea         234   
.text.Dummy_Handler         0x9826            0x2           2   
.text.COE_AddObjectToDi     0x9828           0xe8         232   
.text.COE_Main              0x9910           0xe8         232   
.text.EIC_Initialize        0x99f8           0xe4         228   
.text.HW_EscWriteIsr        0x9adc           0xe4         228   
.text.HW_EscReadIsr         0x9bc0           0xe2         226   
.text.__malloc_lock         0x9ca2            0x2           2   
.text.PORT_Initialize       0x9ca4           0xe0         224   
.text.APPL_Application      0x9d84           0xe0         224   
.text.MBX_MailboxSendRe     0x9e64           0xdc         220   
.text.__swsetup_r           0x9f40           0xdc         220   
.text.SODS_ClearPending     0xa01c           0xcc         204   
.text.HW_EscWrite           0xa0e8           0xca         202   
.text.HW_EscRead            0xa1b2           0xc8         200   
.text.__malloc_unlock       0xa27a            0x2           2   
.rodata.asEntryDesc0x1C     0xa27c           0xc8         200   
.text.NVIC_Initialize       0xa344           0xc6         198   
.text.GetDummyBytesRequ     0xa40a           0xc6         198   
.text.HW_EepromWrite        0xa4d0           0xc4         196   
.text.EscWrite              0xa594           0xc2         194   
.text.EscRead               0xa656           0xc0         192   
.text.LAN925x_Init          0xa718           0xbc         188   
.text.__swbuf_r             0xa7d4           0xbc         188   
.text.MBX_Main              0xa890           0xb8         184   
.text.FoE_Read              0xa948           0xb8         184   
.text.qspi_setup_transf     0xaa00           0xb4         180   
.text._malloc_r             0xaab4           0xb4         180   
.text.LAN9253SQI_Write      0xab68           0xb0         176   
.text.PDO_OutputMapping     0xac18           0xb0         176   
.text.applicationTask       0xacc8           0xb0         176   
.text.QSPI_MemoryRead       0xad78           0xac         172   
.text.QSPI_MemoryWrite      0xae24           0xa8         168   
.text.COE_SyncTimeStamp     0xaecc           0xa8         168   
.text.EMCY_Init             0xaf74           0xa8         168   
.text.EMCY_SendEmergenc     0xb01c           0xa4         164   
.text.HW_EepromReload       0xb0c0           0xa0         160   
.text                       0xb160           0xa0         160  App's exec code 
.text.FoE_Write             0xb200           0x9c         156   
.text._free_r               0xb29c           0x9c         156   
.text.OBJ_CopyNumberToS     0xb338           0x98         152   
.text.OBJ_GetNoOfObject     0xb3d0           0x98         152   
.text.RoundUpMultipleOf     0xb468           0x96         150   
.text.CLOCK_Initialize      0xb500           0x94         148   
.text.PDO_InputMapping      0xb594           0x94         148   
.text.SERCOM0_USART_Ini     0xb628           0x90         144   
.text.oledc_command         0xb6b8           0x8c         140   
.text.oledc_set_font        0xb744           0x8c         140   
.text.__smakebuf_r          0xb7d0           0x8c         140   
.text.QSPI_CommandWrite     0xb85c           0x88         136   
.text.QSPI_RegisterWrit     0xb8e4           0x88         136   
.text.ReBuild_SQI_SetCf     0xb96c           0x88         136   
.text.APPL_OutputMappin     0xb9f4           0x88         136   
.text.__pic32c_data_ini     0xba7c           0x88         136   
.text.SERCOM0_USART_Wri     0xbb04           0x84         132   
.text.SERCOM0_USART_ISR     0xbb88           0x84         132   
.rodata.aName0x1600         0xbc0c           0x84         132   
.text.__fputwc              0xbc90           0x82         130   
.text.COE_RemoveDicEntr     0xbd14           0x80         128   
.text.HandleCycleTimeMe     0xbd94           0x7c         124   
.text.MBX_MailboxRepeat     0xbe10           0x7c         124   
.rodata.cAbortCode          0xbe8c           0x78         120   
.text.APP_FlashWrite        0xbf04           0x78         120   
.text.__sfp                 0xbf7c           0x78         120   
.text.COE_ServiceInd        0xbff4           0x74         116   
.text.StartOutputHandle     0xc068           0x74         116   
.text.APPL_InputMapping     0xc0dc           0x74         116   
.text.APP_FOEFlashWrite     0xc150           0x72         114   
.text.SERCOM0_USART_ISR     0xc1c4           0x70         112   
.text.GetSystemTimeDela     0xc234           0x70         112   
.text.CalculateCRC8         0xc2a4           0x6e         110   
.text.FDPLL0_Initialize     0xc314           0x6c         108   
.text.SERCOM0_USART_Rea     0xc380           0x6c         108   
.text.FOE_Data              0xc3ec           0x6c         108   
.text.NVMCTRL_PageWrite     0xc458           0x68         104   
.text.COE_UpdateSyncErr     0xc4c0           0x68         104   
.text.MailboxServiceInd     0xc528           0x68         104   
.rodata.aName0x8000         0xc590           0x64         100   
.text.ECAT_CheckWatchdo     0xc5f4           0x64         100   
.text.BL_FOE_Applicatio     0xc658           0x64         100   
.text.SERCOM4_SPI_Initi     0xc6bc           0x60          96   
.text.__sinit               0xc71c           0x60          96   
.text.EIC_CallbackRegis     0xc77c           0x5c          92   
.text.Reset_Handler         0xc7d8           0x5c          92   
.text.ESC_BYTE_TEST_Reg     0xc834           0x5c          92   
.text.Read0x10F8            0xc890           0x5c          92   
.text.COE_ContinueInd       0xc8ec           0x5c          92   
.text.GetOutOfEmptyEmcy     0xc948           0x5c          92   
.text.GetOutOfSendEmcyQ     0xc9a4           0x5c          92   
.text.FoE_ReadData          0xca00           0x5c          92   
.text.oledc_text            0xca5c           0x58          88   
.text.GetOutOfMbxQueue      0xcab4           0x58          88   
.text.OBJ_GetEntryDesc      0xcb0c           0x58          88   
.text.__NVIC_SetPriorit     0xcb64           0x54          84   
.text.oledc_spiDriverIn     0xcbb8           0x54          84   
.rodata.aName0x1601         0xcc0c           0x54          84   
.text._fflush_r             0xcc60           0x54          84   
.text.PutInMbxQueue         0xccb4           0x52          82   
.text.SERCOM0_USART_ISR     0xcd08           0x4c          76   
.text.SERCOM0_USART_Int     0xcd54           0x4c          76   
.text.ESF_PDI_Init          0xcda0           0x4c          76   
.text.UpdateEEPROMLoade     0xcdec           0x4c          76   
.text.DisableSyncManCha     0xce38           0x4c          76   
.text.CheckIfEcatError      0xce84           0x4c          76   
.text.EnableSyncManChan     0xced0           0x4a          74   
.text.__ssfputs_r           0xcf1a           0x4a          74   
.text.__NVIC_SetPriorit     0xcf64           0x48          72   
.text.FOE_Read              0xcfac           0x48          72   
.text.__libc_init_array     0xcff4           0x48          72   
.text.std                   0xd03c           0x48          72   
.text.__swhatbuf_r          0xd084           0x48          72   
.text.Delay_ms              0xd0cc           0x46          70   
.text.ResetALEventMask      0xd112           0x46          70   
.text.SetALEventMask        0xd158           0x46          70   
.text.GCLK0_Initialize      0xd1a0           0x44          68   
.text.SERCOM0_USART_Rea     0xd1e4           0x44          68   
.text.FPU_Enable            0xd228           0x44          68   
.text.COE_ObjDictionary     0xd26c           0x44          68   
.text.Sync1_Isr             0xd2b0           0x44          68   
.text.PutInEmptyEmcyQue     0xd2f4           0x44          68   
.text.PutInSendEmcyQueu     0xd338           0x44          68   
.text.APP_FW_startDownl     0xd37c           0x44          68   
.text.AddObjectsToObjDi     0xd3c0           0x42          66   
.text                       0xd404           0x40          64  App's exec code 
.text.SYSTICK_TimerInit     0xd444           0x40          64   
.text.ICache_Enable         0xd484           0x40          64   
.rodata.aName0x10F1         0xd4c4           0x40          64   
.text.COE_ClearObjDicti     0xd504           0x40          64   
.text.write                 0xd544           0x40          64   
.text.__NVIC_EnableIRQ      0xd584           0x3c          60   
.text.QSPI_Initialize       0xd5c0           0x3c          60   
.text.SERCOM0_USART_Err     0xd5fc           0x3c          60   
.text.SYS_Initialize        0xd638           0x3c          60   
.rodata.aName0x1018         0xd674           0x3c          60   
.text.ECAT_Application      0xd6b0           0x3c          60   
.text._sprintf_cdnopuxX     0xd6ec           0x3c          60   
.text._fwalk_reent          0xd728           0x3c          60   
.text.SQI_SetConfigurat     0xd764           0x3a          58   
.text.APP_RunApplicatio     0xd79e           0x3a          58   
.text.PORT_PinSet           0xd7d8           0x38          56   
.text.PORT_PinClear         0xd810           0x38          56   
.text.PORT_PinOutputEna     0xd848           0x38          56   
.text.PORT_PinSet           0xd880           0x38          56   
.text.PORT_PinClear         0xd8b8           0x38          56   
.rodata.aName0x1A00         0xd8f0           0x38          56   
.text.FOE_Write             0xd928           0x38          56   
.text.FOE_Ack               0xd960           0x38          56   
.text.__swrite              0xd998           0x38          56   
.text.OBJ_GetObjectHand     0xd9d0           0x36          54   
.text.NVMCTRL_BlockEras     0xda08           0x34          52   
.text.oledc_enable          0xda3c           0x34          52   
.text.qspi_memcpy_32bit     0xda70           0x34          52   
.text.qspi_memcpy_8bit      0xdaa4           0x34          52   
.rodata                     0xdad8           0x33          51  Read-only const 
.text.oledc_reset           0xdb0c           0x30          48   
.text.SERCOM0_USART_Err     0xdb3c           0x30          48   
.rodata.asEntryDesc0x16     0xdb6c           0x30          48   
.rodata.aName0x1A02         0xdb9c           0x30          48   
.rodata.asEntryDesc0x80     0xdbcc           0x30          48   
.text.FOE_ContinueInd       0xdbfc           0x30          48   
.text.GetSyncMan            0xdc2c           0x30          48   
.text                       0xdc5c           0x30          48  App's exec code 
.text.__sfputc_r            0xdc8c           0x2e          46   
.text.GCLK1_Initialize      0xdcbc           0x2c          44   
.text.GCLK2_Initialize      0xdce8           0x2c          44   
.text.GCLK3_Initialize      0xdd14           0x2c          44   
.text.GCLK4_Initialize      0xdd40           0x2c          44   
.text.EIC_EXTINT_0_Inte     0xdd6c           0x2c          44   
.text.EIC_EXTINT_1_Inte     0xdd98           0x2c          44   
.text.EIC_EXTINT_7_Inte     0xddc4           0x2c          44   
.text.SysTick_Handler       0xddf0           0x2c          44   
.text.SQI_EnableQuadMod     0xde1c           0x2c          44   
.text.SQI_DisableQuadMo     0xde48           0x2c          44   
.text.FOE_Init              0xde74           0x2c          44   
.text.Emulation_Init        0xdea0           0x2c          44   
.text.__sfmoreglue          0xdecc           0x2c          44   
.text._wcrtomb_r            0xdef8           0x2c          44   
.text._sbrk                 0xdf24           0x2c          44   
.text.NVMCTRL_IsBusy        0xdf50           0x28          40   
.text.SERCOM4_SPI_Callb     0xdf78           0x28          40   
.text.SERCOM0_USART_Wri     0xdfa0           0x28          40   
.text.SERCOM0_USART_Rea     0xdfc8           0x28          40   
.text.SYSTICK_TimerCall     0xdff0           0x28          40   
.text.ESC_IRQ_cb            0xe018           0x28          40   
.rodata.aName0x7010         0xe040           0x28          40   
.text.APP_FW_StateBOOTt     0xe068           0x28          40   
.text.read                  0xe090           0x28          40   
.text.HW_GetALEventRegi     0xe0b8           0x26          38   
.text.NVMCTRL_StatusGet     0xe0e0           0x24          36   
.text.SYSTICK_TimerStar     0xe104           0x24          36   
.text.TCM_Configure         0xe128           0x24          36   
.text.PDI_Init_SYNC_Int     0xe14c           0x24          36   
.rodata.aName0x6000         0xe170           0x24          36   
.text.COE_Init              0xe194           0x24          36   
.text.StopOutputHandler     0xe1b8           0x24          36   
.text.EMCY_IsQueueEmpty     0xe1dc           0x24          36   
.text.FOE_Error             0xe200           0x24          36   
.text.APP_BankSwitch        0xe224           0x24          36   
.text.__ascii_mbtowc        0xe248           0x24          36   
.text.__sseek               0xe26c           0x24          36   
.text._write_r              0xe290           0x24          36   
.text._lseek_r              0xe2b4           0x24          36   
.text._read_r               0xe2d8           0x24          36   
.text._fstat_r              0xe2fc           0x24          36   
.text.NVMCTRL_Read          0xe320           0x22          34   
.text.oledc_fill_screen     0xe342           0x22          34   
.text.EMCY_ContinueInd      0xe364           0x22          34   
.text.__sread               0xe386           0x22          34   
.text.SERCOM4_SPI_Write     0xe3a8           0x20          32   
.rodata.asEntryDesc0x16     0xe3c8           0x20          32   
.rodata.asEntryDesc0x70     0xe3e8           0x20          32   
.rodata.asEntryDesc0x10     0xe408           0x20          32   
.text.FOE_Busy              0xe428           0x20          32   
.rodata.cBitMask            0xe448           0x20          32   
.text.Oled_cb               0xe468           0x20          32   
.text.uart_rx_cb            0xe488           0x20          32   
.text._sbrk_r               0xe4a8           0x20          32   
.text._close_r              0xe4c8           0x20          32   
.text._isatty_r             0xe4e8           0x20          32   
.text.HW_GetALEventRegi     0xe508           0x1e          30   
.text.NVMCTRL_Initializ     0xe528           0x1c          28   
.text.NVMCTRL_BankSwap      0xe544           0x1c          28   
.text.PORT_GroupSet         0xe560           0x1c          28   
.text.PORT_GroupClear       0xe57c           0x1c          28   
.text.PORT_GroupOutputE     0xe598           0x1c          28   
.text.qspi_end_transfer     0xe5b4           0x1c          28   
.text.CRITICAL_SECTION_     0xe5d0           0x1c          28   
.text.CRITICAL_SECTION_     0xe5ec           0x1c          28   
.text.ECAT_SysTick_Hand     0xe608           0x1c          28   
.rodata.aName0x1C12         0xe624           0x1c          28   
.rodata.aName0x1C13         0xe640           0x1c          28   
.text.memcpy                0xe65c           0x1c          28   
.text._fputwc_r             0xe678           0x1c          28   
.text.__ascii_wctomb        0xe694           0x1a          26   
.text.OSC32KCTRL_Initia     0xe6b0           0x18          24   
.text.SERCOM0_USART_Rea     0xe6c8           0x18          24   
.text.PDI_Init_SYSTick_     0xe6e0           0x18          24   
.text.PDI_IRQ_Interrupt     0xe6f8           0x18          24   
.rodata.aName0x6021         0xe710           0x18          24   
.text.COE_GetObjectDict     0xe728           0x18          24   
.text.BackToInitTransit     0xe740           0x18          24   
.text.OBJ_GetObjDesc        0xe758           0x18          24   
.text.APP_FW_GetDownloa     0xe770           0x18          24   
.text.APP_Initialize        0xe788           0x18          24   
.text._mon_getc             0xe7a0           0x16          22   
.text._mon_putc             0xe7b6           0x16          22   
.text.BL_Start              0xe7cc           0x16          22   
.text.EMCY_GetEmcyBuffe     0xe7e2           0x16          22   
.text.APPL_AckErrorInd      0xe7f8           0x16          22   
.text.APPL_StartInputHa     0xe80e           0x16          22   
.text.SERCOM0_USART_Fre     0xe824           0x14          20   
.text.ESC_Sync0_cb          0xe838           0x14          20   
.text.ESC_Sync1_cb          0xe84c           0x14          20   
.rodata.asEntryDesc0x1A     0xe860           0x14          20   
.rodata.asEntryDesc0x60     0xe874           0x14          20   
.rodata.aName0x1009         0xe888           0x14          20   
.rodata.aName0x100A         0xe89c           0x14          20   
.rodata.asEntryDesc0x10     0xe8b0           0x14          20   
.rodata.aName0x10F8         0xe8c4           0x14          20   
.rodata.aName0x1C00         0xe8d8           0x14          20   
.rodata                     0xe8ec           0x14          20  Read-only const 
.text.uart_tx_cb            0xe900           0x14          20   
.text._vfprintf_cdnopux     0xe914           0x14          20   
.rodata.aName0x1001         0xe928           0x10          16   
.text.APPL_StartMailbox     0xe938           0x10          16   
.text.APPL_StopInputHan     0xe948           0x10          16   
.text.APPL_StartOutputH     0xe958           0x10          16   
.text.APPL_StopOutputHa     0xe968           0x10          16   
.text.main                  0xe978           0x10          16   
.text.malloc                0xe988           0x10          16   
.text.free                  0xe998           0x10          16   
.text.memset                0xe9a8           0x10          16   
.text                       0xe9b8           0x10          16  App's exec code 
.text.OSCCTRL_Initializ     0xe9c8            0xe          14   
.text.DFLL_Initialize       0xe9d6            0xe          14   
.text.EVSYS_Initialize      0xe9e4            0xe          14   
.text.BL_Stop               0xe9f2            0xe          14   
.text.APPL_StopMailboxH     0xea00            0xe          14   
.text.SYS_Tasks             0xea0e            0xc          12   
.text.PDI_Timer_Interru     0xea1a            0xc          12   
.text.ESC_Init              0xea26            0xc          12   
.rodata.asEntryDesc0x1A     0xea34            0xc          12   
.rodata.asEntryDesc0x1C     0xea40            0xc          12   
.rodata.asEntryDesc0x1C     0xea4c            0xc          12   
.rodata.asEntryDesc0x60     0xea58            0xc          12   
.rodata.aName0x1000         0xea64            0xc          12   
.rodata.aName0x1008         0xea70            0xc          12   
.rodata.asEntryDesc0x1C     0xea7c            0xc          12   
.text._cleanup_r            0xea88            0xc          12   
.text.__locale_mb_cur_m     0xea94            0xc          12   
.text.fstat                 0xeaa0            0xc          12   
.rodata                     0xeaac            0xb          11  Read-only const 
.rodata.sEntryDesc0x100     0xeab8            0x8           8   
.rodata.sEntryDesc0x100     0xeac0            0x8           8   
.rodata.sEntryDesc0x100     0xeac8            0x8           8   
.rodata.sEntryDesc0x100     0xead0            0x8           8   
.rodata.sEntryDesc0x100     0xead8            0x8           8   
.rodata.sEntryDesc0x10F     0xeae0            0x8           8   
.rodata.acEmcyCoeHeader     0xeae8            0x8           8   
.text.__sclose              0xeaf0            0x8           8   
.text.close                 0xeaf8            0x8           8   
.text.NonMaskableInt_Ha     0xeb00            0x6           6   
.text.HardFault_Handler     0xeb06            0x6           6   
.text.DebugMonitor_Hand     0xeb0c            0x6           6   
.text.MemoryManagement_     0xeb12            0x6           6   
.text.BusFault_Handler      0xeb18            0x6           6   
.text.UsageFault_Handle     0xeb1e            0x6           6   
.rodata                     0xeb24            0x4           4  Read-only const 
.text                       0xeb28            0x4           4  App's exec code 
.rodata._global_impure_     0xeb2c            0x4           4   
.text._close                0xeb30            0x4           4   
.text._fstat                0xeb34            0x4           4   
.text._isatty               0xeb38            0x4           4   
.text._lseek                0xeb3c            0x4           4   
.text._read                 0xeb40            0x4           4   
.text._write                0xeb44            0x4           4   
.text.isatty                0xeb48            0x4           4   
.text.lseek                 0xeb4c            0x4           4   
      Total ROM used  :      0xeb2f       60207  5.7% of 0x100000
        --------------------------------------------------------------------------
         Total Program Memory used  :      0xeb2f       60207  5.7% of 0x100000
        --------------------------------------------------------------------------


RAM Data-Memory Usage
section                    address  length [bytes]      (dec)  Description
-------                 ----------  -------------------------  -----------
.bss                    0x20000000         0x243c        9276  Uninitialized data 
.data.GenObjDic         0x2000243c          0x1e0         480   
.data.ApplicationObjDic 0x2000261c          0x1b8         440   
.data.__global_locale   0x200027d4          0x16c         364   
.bss.gau8rx_data        0x20002940           0x80         128   
.data.impure_data       0x200029c0           0x60          96   
.data.gau8DummyCntArr   0x20002a20           0x27          39   
.data._OLEDC_DEFAULT_MU 0x20002a47            0x1           1   
.data.Configure_uartPro 0x20002a48           0x20          32   
.bss.__sf_fake_stderr   0x20002a68           0x20          32   
.bss.__sf_fake_stdin    0x20002a88           0x20          32   
.bss.__sf_fake_stdout   0x20002aa8           0x20          32   
.bss                    0x20002ac8           0x1c          28  Uninitialized data 
.data.acDevicename      0x20002ae4           0x16          22   
.bss.nvm_error          0x20002afa            0x2           2   
.data.sIdentity         0x20002afc           0x14          20   
.data.OutputsProcessDat 0x20002b10           0x14          20   
.data.text2             0x20002b24           0x11          17   
.data._OLEDC_DEFAULT_CM 0x20002b35            0x1           1   
.bss._font_height       0x20002b36            0x2           2   
.data.text3             0x20002b38           0x11          17   
.data._OLEDC_DEFAULT_DI 0x20002b49            0x1           1   
.bss.x_cord             0x20002b4a            0x2           2   
.data.aSubindexDesc     0x20002b4c            0xd          13   
.data._OLEDC_DEFAULT_PR 0x20002b59            0x1           1   
.bss.y_cord             0x20002b5a            0x2           2   
.data.sErrorSettings    0x20002b5c            0xc          12   
.data.InputsProcessData 0x20002b68            0xc          12   
.data.Inputs0x6000      0x20002b74            0xc          12   
.data.Outputs0x7010     0x20002b80            0xc          12   
.data.Configure_uart0x8 0x20002b8c            0xc          12   
.bss.u64Timestamp       0x20002b98            0x8           8   
.data.Uart_statusProces 0x20002ba0            0x8           8   
.data.Uart_status0x6021 0x20002ba8            0x8           8   
.data.uart_config       0x20002bb0            0x8           8   
.data.text1             0x20002bb8            0x7           7   
.data._OLEDC_DEFAULT_ST 0x20002bbf            0x1           1   
.data.sSyncmanagertype  0x20002bc0            0x6           6   
.bss.nvm_status         0x20002bc6            0x2           2   
.data.sRxPDOassign      0x20002bc8            0x6           6   
.bss._font_color        0x20002bce            0x2           2   
.data.sTxPDOassign      0x20002bd0            0x6           6   
.bss._font_first_char   0x20002bd6            0x2           2   
.bss._font              0x20002bd8            0x4           4   
.data.u32Devicetype     0x20002bdc            0x4           4   
.data.acHardwareversion 0x20002be0            0x4           4   
.data.acSoftwareversion 0x20002be4            0x4           4   
.bss.ObjDicList         0x20002be8            0x4           4   
.bss.SMActivate         0x20002bec            0x4           4   
.bss.gTriggerCounterVal 0x20002bf0            0x4           4   
.data.gFOETestFrameSize 0x20002bf4            0x4           4   
.data.uart_rd_status    0x20002bf8            0x4           4   
.bss.nFileWriteOffset   0x20002bfc            0x4           4   
.bss.nFileTotalLengthOf 0x20002c00            0x4           4   
.bss.nFileStartWriteAdd 0x20002c04            0x4           4   
.bss.u32FileSize        0x20002c08            0x4           4   
.bss                    0x20002c0c            0x4           4  Uninitialized data 
.bss.__malloc_free_list 0x20002c10            0x4           4   
.bss.__malloc_sbrk_star 0x20002c14            0x4           4   
.data._impure_ptr       0x20002c18            0x4           4   
.bss                    0x20002c1c            0x4           4  Uninitialized data 
.data._OLEDC_DEFAULT_CO 0x20002c20            0x3           3   
.data._OLEDC_DEFAULT_OF 0x20002c23            0x1           1   
.data._OLEDC_DEFAULT_VS 0x20002c24            0x3           3   
.data._OLEDC_DEFAULT_OL 0x20002c27            0x1           1   
.data.rows              0x20002c28            0x2           2   
.bss._font_last_char    0x20002c2a            0x2           2   
.data.cols              0x20002c2c            0x2           2   
.bss.u16ErrorRegister   0x20002c2e            0x2           2   
.data._OLEDC_DEFAULT_VC 0x20002c30            0x1           1   
.data._OLEDC_DEFAULT_MA 0x20002c31            0x1           1   
.data._OLEDC_DEFAULT_PR 0x20002c32            0x1           1   
.data._OLEDC_DEFAULT_RE 0x20002c33            0x1           1   
.bss._font_orientation  0x20002c34            0x1           1   
.bss.isLastByteTransfer 0x20002c35            0x1           1   
.bss.bInitFinished      0x20002c36            0x1           1   
.bss.EepromLoaded       0x20002c37            0x1           1   
.bss.gFirmwareDownload_ 0x20002c38            0x1           1   
.bss.gFirmwareDownload_ 0x20002c39            0x1           1   
.bss.bSdoInWork         0x20002c3a            0x1           1   
.bss.gsu8oledflag       0x20002c3b            0x1           1   
.data.spi_sync          0x20002c3c            0x1           1   
         Total RAM used  :      0x2c3d       11325  4.3% of 0x40000
        --------------------------------------------------------------------------
            Total Data Memory used  :      0x2c3d       11325  4.3% of 0x40000
        --------------------------------------------------------------------------


Dynamic Data-Memory Reservation
section                    address  length [bytes]      (dec)  Description
-------                 ----------  -------------------------  -----------
heap                    0x20002c40          0x800        2048  Reserved for heap 
stack                   0x20003458        0x3cb98      248728  Reserved for stack 

        --------------------------------------------------------------------------

Discarded input sections

 .text          0x00000000        0x0 c:/program files/microchip/xc32/v3.01/bin/bin/../../lib/gcc/pic32c/8.3.1/thumb/v7e-m+fp/hard/crti.o
 .data          0x00000000        0x0 c:/program files/microchip/xc32/v3.01/bin/bin/../../lib/gcc/pic32c/8.3.1/thumb/v7e-m+fp/hard/crti.o
 .bss           0x00000000        0x0 c:/program files/microchip/xc32/v3.01/bin/bin/../../lib/gcc/pic32c/8.3.1/thumb/v7e-m+fp/hard/crti.o
 .xc_stack_usage.hdr
                0x00000000        0xe c:/program files/microchip/xc32/v3.01/bin/bin/../../lib/gcc/pic32c/8.3.1/thumb/v7e-m+fp/hard/crti.o
 .xc_stack_usage
                0x00000000       0x26 c:/program files/microchip/xc32/v3.01/bin/bin/../../lib/gcc/pic32c/8.3.1/thumb/v7e-m+fp/hard/crti.o
 .data          0x00000000        0x4 c:/program files/microchip/xc32/v3.01/bin/bin/../../lib/gcc/pic32c/8.3.1/thumb/v7e-m+fp/hard/crtbegin.o
 .xc_stack_usage
                0x00000000       0x3c c:/program files/microchip/xc32/v3.01/bin/bin/../../lib/gcc/pic32c/8.3.1/thumb/v7e-m+fp/hard/crtbegin.o
 .xc_stack_usage.hdr
                0x00000000        0xe c:/program files/microchip/xc32/v3.01/bin/bin/../../lib/gcc/pic32c/8.3.1/thumb/v7e-m+fp/hard/crtbegin.o
 .text          0x00000000        0x0 build/LAN9255_SQI_DIRECT_MODE/production/_ext/1984496892/plib_clock.o
 .data          0x00000000        0x0 build/LAN9255_SQI_DIRECT_MODE/production/_ext/1984496892/plib_clock.o
 .bss           0x00000000        0x0 build/LAN9255_SQI_DIRECT_MODE/production/_ext/1984496892/plib_clock.o
 .text          0x00000000        0x0 build/LAN9255_SQI_DIRECT_MODE/production/_ext/1865131932/plib_cmcc.o
 .data          0x00000000        0x0 build/LAN9255_SQI_DIRECT_MODE/production/_ext/1865131932/plib_cmcc.o
 .bss           0x00000000        0x0 build/LAN9255_SQI_DIRECT_MODE/production/_ext/1865131932/plib_cmcc.o
 .text.CMCC_Disable
                0x00000000       0x2c build/LAN9255_SQI_DIRECT_MODE/production/_ext/1865131932/plib_cmcc.o
 .text.CMCC_EnableICache
                0x00000000       0x40 build/LAN9255_SQI_DIRECT_MODE/production/_ext/1865131932/plib_cmcc.o
 .text.CMCC_DisableICache
                0x00000000       0x40 build/LAN9255_SQI_DIRECT_MODE/production/_ext/1865131932/plib_cmcc.o
 .text.CMCC_EnableDCache
                0x00000000       0x40 build/LAN9255_SQI_DIRECT_MODE/production/_ext/1865131932/plib_cmcc.o
 .text.CMCC_DisableDCache
                0x00000000       0x40 build/LAN9255_SQI_DIRECT_MODE/production/_ext/1865131932/plib_cmcc.o
 .text.CMCC_InvalidateAll
                0x00000000       0x34 build/LAN9255_SQI_DIRECT_MODE/production/_ext/1865131932/plib_cmcc.o
 .debug_info    0x00000000      0x5df build/LAN9255_SQI_DIRECT_MODE/production/_ext/1865131932/plib_cmcc.o
 .debug_abbrev  0x00000000       0x9d build/LAN9255_SQI_DIRECT_MODE/production/_ext/1865131932/plib_cmcc.o
 .debug_loc     0x00000000      0x198 build/LAN9255_SQI_DIRECT_MODE/production/_ext/1865131932/plib_cmcc.o
 .debug_aranges
                0x00000000       0x48 build/LAN9255_SQI_DIRECT_MODE/production/_ext/1865131932/plib_cmcc.o
 .debug_ranges  0x00000000       0x38 build/LAN9255_SQI_DIRECT_MODE/production/_ext/1865131932/plib_cmcc.o
 .debug_line    0x00000000      0x24f build/LAN9255_SQI_DIRECT_MODE/production/_ext/1865131932/plib_cmcc.o
 .debug_str     0x00000000        0x0 build/LAN9255_SQI_DIRECT_MODE/production/_ext/1865131932/plib_cmcc.o
 .comment       0x00000000       0x54 build/LAN9255_SQI_DIRECT_MODE/production/_ext/1865131932/plib_cmcc.o
 .debug_frame   0x00000000       0xd0 build/LAN9255_SQI_DIRECT_MODE/production/_ext/1865131932/plib_cmcc.o
 .ARM.attributes
                0x00000000       0x34 build/LAN9255_SQI_DIRECT_MODE/production/_ext/1865131932/plib_cmcc.o
 .text          0x00000000        0x0 build/LAN9255_SQI_DIRECT_MODE/production/_ext/60167341/plib_eic.o
 .data          0x00000000        0x0 build/LAN9255_SQI_DIRECT_MODE/production/_ext/60167341/plib_eic.o
 .bss           0x00000000        0x0 build/LAN9255_SQI_DIRECT_MODE/production/_ext/60167341/plib_eic.o
 .text.EIC_InterruptEnable
                0x00000000       0x28 build/LAN9255_SQI_DIRECT_MODE/production/_ext/60167341/plib_eic.o
 .text.EIC_InterruptDisable
                0x00000000       0x28 build/LAN9255_SQI_DIRECT_MODE/production/_ext/60167341/plib_eic.o
 .text          0x00000000        0x0 build/LAN9255_SQI_DIRECT_MODE/production/_ext/1986646378/plib_evsys.o
 .data          0x00000000        0x0 build/LAN9255_SQI_DIRECT_MODE/production/_ext/1986646378/plib_evsys.o
 .bss           0x00000000        0x0 build/LAN9255_SQI_DIRECT_MODE/production/_ext/1986646378/plib_evsys.o
 .text          0x00000000        0x0 build/LAN9255_SQI_DIRECT_MODE/production/_ext/1865468468/plib_nvic.o
 .data          0x00000000        0x0 build/LAN9255_SQI_DIRECT_MODE/production/_ext/1865468468/plib_nvic.o
 .bss           0x00000000        0x0 build/LAN9255_SQI_DIRECT_MODE/production/_ext/1865468468/plib_nvic.o
 .text          0x00000000        0x0 build/LAN9255_SQI_DIRECT_MODE/production/_ext/1593096446/plib_nvmctrl.o
 .data          0x00000000        0x0 build/LAN9255_SQI_DIRECT_MODE/production/_ext/1593096446/plib_nvmctrl.o
 .bss           0x00000000        0x0 build/LAN9255_SQI_DIRECT_MODE/production/_ext/1593096446/plib_nvmctrl.o
 .bss.smart_eep_status
                0x00000000        0x4 build/LAN9255_SQI_DIRECT_MODE/production/_ext/1593096446/plib_nvmctrl.o
 .text.NVMCTRL_SetWriteMode
                0x00000000       0x34 build/LAN9255_SQI_DIRECT_MODE/production/_ext/1593096446/plib_nvmctrl.o
 .text.NVMCTRL_QuadWordWrite
                0x00000000       0x84 build/LAN9255_SQI_DIRECT_MODE/production/_ext/1593096446/plib_nvmctrl.o
 .text.NVMCTRL_DoubleWordWrite
                0x00000000       0x84 build/LAN9255_SQI_DIRECT_MODE/production/_ext/1593096446/plib_nvmctrl.o
 .text.NVMCTRL_ErrorGet
                0x00000000       0x40 build/LAN9255_SQI_DIRECT_MODE/production/_ext/1593096446/plib_nvmctrl.o
 .text.NVMCTRL_RegionLock
                0x00000000       0x28 build/LAN9255_SQI_DIRECT_MODE/production/_ext/1593096446/plib_nvmctrl.o
 .text.NVMCTRL_RegionUnlock
                0x00000000       0x28 build/LAN9255_SQI_DIRECT_MODE/production/_ext/1593096446/plib_nvmctrl.o
 .text.NVMCTRL_RegionLockStatusGet
                0x00000000       0x18 build/LAN9255_SQI_DIRECT_MODE/production/_ext/1593096446/plib_nvmctrl.o
 .text.NVMCTRL_SmartEEPROM_IsBusy
                0x00000000       0x24 build/LAN9255_SQI_DIRECT_MODE/production/_ext/1593096446/plib_nvmctrl.o
 .text.NVMCTRL_SmartEEPROMStatusGet
                0x00000000       0x24 build/LAN9255_SQI_DIRECT_MODE/production/_ext/1593096446/plib_nvmctrl.o
 .text.NVMCTRL_SmartEEPROM_IsActiveSectorFull
                0x00000000       0x28 build/LAN9255_SQI_DIRECT_MODE/production/_ext/1593096446/plib_nvmctrl.o
 .text.NVMCTRL_SmartEEPROMSectorReallocate
                0x00000000       0x1c build/LAN9255_SQI_DIRECT_MODE/production/_ext/1593096446/plib_nvmctrl.o
 .text.NVMCTRL_SmartEEPROMFlushPageBuffer
                0x00000000       0x24 build/LAN9255_SQI_DIRECT_MODE/production/_ext/1593096446/plib_nvmctrl.o
 .text          0x00000000        0x0 build/LAN9255_SQI_DIRECT_MODE/production/_ext/1865488526/oledc_driver.o
 .data          0x00000000        0x0 build/LAN9255_SQI_DIRECT_MODE/production/_ext/1865488526/oledc_driver.o
 .bss           0x00000000        0x0 build/LAN9255_SQI_DIRECT_MODE/production/_ext/1865488526/oledc_driver.o
 .text.draw_area
                0x00000000      0x178 build/LAN9255_SQI_DIRECT_MODE/production/_ext/1865488526/oledc_driver.o
 .text.oledc_rectangle
                0x00000000       0x38 build/LAN9255_SQI_DIRECT_MODE/production/_ext/1865488526/oledc_driver.o
 .text.oledc_image
                0x00000000       0x44 build/LAN9255_SQI_DIRECT_MODE/production/_ext/1865488526/oledc_driver.o
 .text          0x00000000        0x0 build/LAN9255_SQI_DIRECT_MODE/production/_ext/1865521619/plib_port.o
 .data          0x00000000        0x0 build/LAN9255_SQI_DIRECT_MODE/production/_ext/1865521619/plib_port.o
 .bss           0x00000000        0x0 build/LAN9255_SQI_DIRECT_MODE/production/_ext/1865521619/plib_port.o
 .text.PORT_GroupRead
                0x00000000       0x18 build/LAN9255_SQI_DIRECT_MODE/production/_ext/1865521619/plib_port.o
 .text.PORT_GroupWrite
                0x00000000       0x30 build/LAN9255_SQI_DIRECT_MODE/production/_ext/1865521619/plib_port.o
 .text.PORT_GroupLatchRead
                0x00000000       0x18 build/LAN9255_SQI_DIRECT_MODE/production/_ext/1865521619/plib_port.o
 .text.PORT_GroupToggle
                0x00000000       0x1c build/LAN9255_SQI_DIRECT_MODE/production/_ext/1865521619/plib_port.o
 .text.PORT_GroupInputEnable
                0x00000000       0x1c build/LAN9255_SQI_DIRECT_MODE/production/_ext/1865521619/plib_port.o
 .text          0x00000000        0x0 build/LAN9255_SQI_DIRECT_MODE/production/_ext/1865555181/plib_qspi.o
 .data          0x00000000        0x0 build/LAN9255_SQI_DIRECT_MODE/production/_ext/1865555181/plib_qspi.o
 .bss           0x00000000        0x0 build/LAN9255_SQI_DIRECT_MODE/production/_ext/1865555181/plib_qspi.o
 .text.QSPI_RegisterRead
                0x00000000       0x90 build/LAN9255_SQI_DIRECT_MODE/production/_ext/1865555181/plib_qspi.o
 .text          0x00000000        0x0 build/LAN9255_SQI_DIRECT_MODE/production/_ext/1865555181/plib_qspi_spi.o
 .data          0x00000000        0x0 build/LAN9255_SQI_DIRECT_MODE/production/_ext/1865555181/plib_qspi_spi.o
 .bss           0x00000000        0x0 build/LAN9255_SQI_DIRECT_MODE/production/_ext/1865555181/plib_qspi_spi.o
 .debug_line    0x00000000        0x0 build/LAN9255_SQI_DIRECT_MODE/production/_ext/1865555181/plib_qspi_spi.o
 .debug_str     0x00000000        0x0 build/LAN9255_SQI_DIRECT_MODE/production/_ext/1865555181/plib_qspi_spi.o
 .comment       0x00000000       0x54 build/LAN9255_SQI_DIRECT_MODE/production/_ext/1865555181/plib_qspi_spi.o
 .ARM.attributes
                0x00000000       0x39 build/LAN9255_SQI_DIRECT_MODE/production/_ext/1865555181/plib_qspi_spi.o
 .text          0x00000000        0x0 build/LAN9255_SQI_DIRECT_MODE/production/_ext/17022449/plib_sercom4_spi_master.o
 .data          0x00000000        0x0 build/LAN9255_SQI_DIRECT_MODE/production/_ext/17022449/plib_sercom4_spi_master.o
 .bss           0x00000000        0x0 build/LAN9255_SQI_DIRECT_MODE/production/_ext/17022449/plib_sercom4_spi_master.o
 .text.SERCOM4_SPI_TransferSetup
                0x00000000      0x100 build/LAN9255_SQI_DIRECT_MODE/production/_ext/17022449/plib_sercom4_spi_master.o
 .text.SERCOM4_SPI_IsBusy
                0x00000000       0x4c build/LAN9255_SQI_DIRECT_MODE/production/_ext/17022449/plib_sercom4_spi_master.o
 .text.SERCOM4_SPI_Read
                0x00000000       0x20 build/LAN9255_SQI_DIRECT_MODE/production/_ext/17022449/plib_sercom4_spi_master.o
 .text          0x00000000        0x0 build/LAN9255_SQI_DIRECT_MODE/production/_ext/504274921/plib_sercom0_usart.o
 .data          0x00000000        0x0 build/LAN9255_SQI_DIRECT_MODE/production/_ext/504274921/plib_sercom0_usart.o
 .bss           0x00000000        0x0 build/LAN9255_SQI_DIRECT_MODE/production/_ext/504274921/plib_sercom0_usart.o
 .text.SERCOM0_USART_TransmitterEnable
                0x00000000       0x28 build/LAN9255_SQI_DIRECT_MODE/production/_ext/504274921/plib_sercom0_usart.o
 .text.SERCOM0_USART_TransmitterDisable
                0x00000000       0x28 build/LAN9255_SQI_DIRECT_MODE/production/_ext/504274921/plib_sercom0_usart.o
 .text.SERCOM0_USART_WriteIsBusy
                0x00000000       0x18 build/LAN9255_SQI_DIRECT_MODE/production/_ext/504274921/plib_sercom0_usart.o
 .text.SERCOM0_USART_WriteCountGet
                0x00000000       0x18 build/LAN9255_SQI_DIRECT_MODE/production/_ext/504274921/plib_sercom0_usart.o
 .text.SERCOM0_USART_ReceiverEnable
                0x00000000       0x28 build/LAN9255_SQI_DIRECT_MODE/production/_ext/504274921/plib_sercom0_usart.o
 .text.SERCOM0_USART_ReceiverDisable
                0x00000000       0x28 build/LAN9255_SQI_DIRECT_MODE/production/_ext/504274921/plib_sercom0_usart.o
 .text.SERCOM0_USART_ReadIsBusy
                0x00000000       0x1c build/LAN9255_SQI_DIRECT_MODE/production/_ext/504274921/plib_sercom0_usart.o
 .text          0x00000000        0x0 build/LAN9255_SQI_DIRECT_MODE/production/_ext/1827571544/plib_systick.o
 .data          0x00000000        0x0 build/LAN9255_SQI_DIRECT_MODE/production/_ext/1827571544/plib_systick.o
 .bss           0x00000000        0x0 build/LAN9255_SQI_DIRECT_MODE/production/_ext/1827571544/plib_systick.o
 .text.SYSTICK_TimerRestart
                0x00000000       0x30 build/LAN9255_SQI_DIRECT_MODE/production/_ext/1827571544/plib_systick.o
 .text.SYSTICK_TimerStop
                0x00000000       0x20 build/LAN9255_SQI_DIRECT_MODE/production/_ext/1827571544/plib_systick.o
 .text.SYSTICK_TimerPeriodSet
                0x00000000       0x20 build/LAN9255_SQI_DIRECT_MODE/production/_ext/1827571544/plib_systick.o
 .text.SYSTICK_TimerPeriodGet
                0x00000000       0x18 build/LAN9255_SQI_DIRECT_MODE/production/_ext/1827571544/plib_systick.o
 .text.SYSTICK_TimerCounterGet
                0x00000000       0x18 build/LAN9255_SQI_DIRECT_MODE/production/_ext/1827571544/plib_systick.o
 .text.SYSTICK_TimerFrequencyGet
                0x00000000       0x14 build/LAN9255_SQI_DIRECT_MODE/production/_ext/1827571544/plib_systick.o
 .text.SYSTICK_DelayMs
                0x00000000       0x58 build/LAN9255_SQI_DIRECT_MODE/production/_ext/1827571544/plib_systick.o
 .text          0x00000000        0x0 build/LAN9255_SQI_DIRECT_MODE/production/_ext/163028504/xc32_monitor.o
 .data          0x00000000        0x0 build/LAN9255_SQI_DIRECT_MODE/production/_ext/163028504/xc32_monitor.o
 .bss           0x00000000        0x0 build/LAN9255_SQI_DIRECT_MODE/production/_ext/163028504/xc32_monitor.o
 .text          0x00000000        0x0 build/LAN9255_SQI_DIRECT_MODE/production/_ext/1881668453/sys_int.o
 .data          0x00000000        0x0 build/LAN9255_SQI_DIRECT_MODE/production/_ext/1881668453/sys_int.o
 .bss           0x00000000        0x0 build/LAN9255_SQI_DIRECT_MODE/production/_ext/1881668453/sys_int.o
 .text.__NVIC_EnableIRQ
                0x00000000       0x3c build/LAN9255_SQI_DIRECT_MODE/production/_ext/1881668453/sys_int.o
 .text.__NVIC_GetEnableIRQ
                0x00000000       0x40 build/LAN9255_SQI_DIRECT_MODE/production/_ext/1881668453/sys_int.o
 .text.__NVIC_DisableIRQ
                0x00000000       0x44 build/LAN9255_SQI_DIRECT_MODE/production/_ext/1881668453/sys_int.o
 .text.SYS_INT_Enable
                0x00000000       0x14 build/LAN9255_SQI_DIRECT_MODE/production/_ext/1881668453/sys_int.o
 .text.SYS_INT_Disable
                0x00000000       0x2c build/LAN9255_SQI_DIRECT_MODE/production/_ext/1881668453/sys_int.o
 .text.SYS_INT_Restore
                0x00000000       0x2a build/LAN9255_SQI_DIRECT_MODE/production/_ext/1881668453/sys_int.o
 .text.SYS_INT_SourceDisable
                0x00000000       0x44 build/LAN9255_SQI_DIRECT_MODE/production/_ext/1881668453/sys_int.o
 .text.SYS_INT_SourceRestore
                0x00000000       0x2a build/LAN9255_SQI_DIRECT_MODE/production/_ext/1881668453/sys_int.o
 .debug_info    0x00000000     0x1173 build/LAN9255_SQI_DIRECT_MODE/production/_ext/1881668453/sys_int.o
 .debug_abbrev  0x00000000      0x236 build/LAN9255_SQI_DIRECT_MODE/production/_ext/1881668453/sys_int.o
 .debug_loc     0x00000000      0x2b0 build/LAN9255_SQI_DIRECT_MODE/production/_ext/1881668453/sys_int.o
 .debug_aranges
                0x00000000       0x58 build/LAN9255_SQI_DIRECT_MODE/production/_ext/1881668453/sys_int.o
 .debug_ranges  0x00000000       0x48 build/LAN9255_SQI_DIRECT_MODE/production/_ext/1881668453/sys_int.o
 .debug_line    0x00000000      0x312 build/LAN9255_SQI_DIRECT_MODE/production/_ext/1881668453/sys_int.o
 .debug_str     0x00000000       0x10 build/LAN9255_SQI_DIRECT_MODE/production/_ext/1881668453/sys_int.o
 .comment       0x00000000       0x54 build/LAN9255_SQI_DIRECT_MODE/production/_ext/1881668453/sys_int.o
 .debug_frame   0x00000000      0x140 build/LAN9255_SQI_DIRECT_MODE/production/_ext/1881668453/sys_int.o
 .ARM.attributes
                0x00000000       0x34 build/LAN9255_SQI_DIRECT_MODE/production/_ext/1881668453/sys_int.o
 .text          0x00000000        0x0 build/LAN9255_SQI_DIRECT_MODE/production/_ext/1171490990/exceptions.o
 .data          0x00000000        0x0 build/LAN9255_SQI_DIRECT_MODE/production/_ext/1171490990/exceptions.o
 .bss           0x00000000        0x0 build/LAN9255_SQI_DIRECT_MODE/production/_ext/1171490990/exceptions.o
 .text          0x00000000        0x0 build/LAN9255_SQI_DIRECT_MODE/production/_ext/1171490990/initialization.o
 .data          0x00000000        0x0 build/LAN9255_SQI_DIRECT_MODE/production/_ext/1171490990/initialization.o
 .bss           0x00000000        0x0 build/LAN9255_SQI_DIRECT_MODE/production/_ext/1171490990/initialization.o
 COMMON         0x00000000        0x1 build/LAN9255_SQI_DIRECT_MODE/production/_ext/1171490990/initialization.o
 .text          0x00000000        0x0 build/LAN9255_SQI_DIRECT_MODE/production/_ext/1171490990/interrupts.o
 .data          0x00000000        0x0 build/LAN9255_SQI_DIRECT_MODE/production/_ext/1171490990/interrupts.o
 .bss           0x00000000        0x0 build/LAN9255_SQI_DIRECT_MODE/production/_ext/1171490990/interrupts.o
 .text          0x00000000        0x0 build/LAN9255_SQI_DIRECT_MODE/production/_ext/1171490990/libc_syscalls.o
 .data          0x00000000        0x0 build/LAN9255_SQI_DIRECT_MODE/production/_ext/1171490990/libc_syscalls.o
 .bss           0x00000000        0x0 build/LAN9255_SQI_DIRECT_MODE/production/_ext/1171490990/libc_syscalls.o
 .text._exit    0x00000000        0xa build/LAN9255_SQI_DIRECT_MODE/production/_ext/1171490990/libc_syscalls.o
 .debug_info    0x00000000      0xf74 build/LAN9255_SQI_DIRECT_MODE/production/_ext/1171490990/libc_syscalls.o
 .debug_abbrev  0x00000000      0x1d0 build/LAN9255_SQI_DIRECT_MODE/production/_ext/1171490990/libc_syscalls.o
 .debug_loc     0x00000000       0x38 build/LAN9255_SQI_DIRECT_MODE/production/_ext/1171490990/libc_syscalls.o
 .debug_aranges
                0x00000000       0x20 build/LAN9255_SQI_DIRECT_MODE/production/_ext/1171490990/libc_syscalls.o
 .debug_ranges  0x00000000       0x10 build/LAN9255_SQI_DIRECT_MODE/production/_ext/1171490990/libc_syscalls.o
 .debug_line    0x00000000      0x1d4 build/LAN9255_SQI_DIRECT_MODE/production/_ext/1171490990/libc_syscalls.o
 .debug_str     0x00000000        0xe build/LAN9255_SQI_DIRECT_MODE/production/_ext/1171490990/libc_syscalls.o
 .comment       0x00000000       0x54 build/LAN9255_SQI_DIRECT_MODE/production/_ext/1171490990/libc_syscalls.o
 .debug_frame   0x00000000       0x2c build/LAN9255_SQI_DIRECT_MODE/production/_ext/1171490990/libc_syscalls.o
 .ARM.attributes
                0x00000000       0x34 build/LAN9255_SQI_DIRECT_MODE/production/_ext/1171490990/libc_syscalls.o
 .text          0x00000000        0x0 build/LAN9255_SQI_DIRECT_MODE/production/_ext/1171490990/startup_xc32.o
 .data          0x00000000        0x0 build/LAN9255_SQI_DIRECT_MODE/production/_ext/1171490990/startup_xc32.o
 .bss           0x00000000        0x0 build/LAN9255_SQI_DIRECT_MODE/production/_ext/1171490990/startup_xc32.o
 .text          0x00000000        0x0 build/LAN9255_SQI_DIRECT_MODE/production/_ext/1171490990/tasks.o
 .data          0x00000000        0x0 build/LAN9255_SQI_DIRECT_MODE/production/_ext/1171490990/tasks.o
 .bss           0x00000000        0x0 build/LAN9255_SQI_DIRECT_MODE/production/_ext/1171490990/tasks.o
 .text          0x00000000        0x0 build/LAN9255_SQI_DIRECT_MODE/production/_ext/1671622016/Drivers.o
 .data          0x00000000        0x0 build/LAN9255_SQI_DIRECT_MODE/production/_ext/1671622016/Drivers.o
 .bss           0x00000000        0x0 build/LAN9255_SQI_DIRECT_MODE/production/_ext/1671622016/Drivers.o
 .text.__NVIC_EnableIRQ
                0x00000000       0x3c build/LAN9255_SQI_DIRECT_MODE/production/_ext/1671622016/Drivers.o
 .text.__NVIC_DisableIRQ
                0x00000000       0x44 build/LAN9255_SQI_DIRECT_MODE/production/_ext/1671622016/Drivers.o
 .text.PDI_GetTimer
                0x00000000       0x10 build/LAN9255_SQI_DIRECT_MODE/production/_ext/1671622016/Drivers.o
 .text.PDI_ClearTimer
                0x00000000        0xe build/LAN9255_SQI_DIRECT_MODE/production/_ext/1671622016/Drivers.o
 .text.stop_timer
                0x00000000       0x10 build/LAN9255_SQI_DIRECT_MODE/production/_ext/1671622016/Drivers.o
 .text.start_timer
                0x00000000       0x10 build/LAN9255_SQI_DIRECT_MODE/production/_ext/1671622016/Drivers.o
 .text          0x00000000        0x0 build/LAN9255_SQI_DIRECT_MODE/production/_ext/108147519/ESC_Utils.o
 .data          0x00000000        0x0 build/LAN9255_SQI_DIRECT_MODE/production/_ext/108147519/ESC_Utils.o
 .bss           0x00000000        0x0 build/LAN9255_SQI_DIRECT_MODE/production/_ext/108147519/ESC_Utils.o
 .text          0x00000000        0x0 build/LAN9255_SQI_DIRECT_MODE/production/_ext/108147519/LAN925x.o
 .data          0x00000000        0x0 build/LAN9255_SQI_DIRECT_MODE/production/_ext/108147519/LAN925x.o
 .bss           0x00000000        0x0 build/LAN9255_SQI_DIRECT_MODE/production/_ext/108147519/LAN925x.o
 .bss.gbALEvtOpEnabled
                0x00000000        0x1 build/LAN9255_SQI_DIRECT_MODE/production/_ext/108147519/LAN925x.o
 .text.HW_Release
                0x00000000        0xe build/LAN9255_SQI_DIRECT_MODE/production/_ext/108147519/LAN925x.o
 .text.HW_EscWriteMailbox
                0x00000000       0x24 build/LAN9255_SQI_DIRECT_MODE/production/_ext/108147519/LAN925x.o
 .text.HW_EscReadMailbox
                0x00000000       0x24 build/LAN9255_SQI_DIRECT_MODE/production/_ext/108147519/LAN925x.o
 .text.HW_SetLed
                0x00000000       0x1c build/LAN9255_SQI_DIRECT_MODE/production/_ext/108147519/LAN925x.o
 COMMON         0x00000000        0x2 build/LAN9255_SQI_DIRECT_MODE/production/_ext/108147519/LAN925x.o
 .text          0x00000000        0x0 build/LAN9255_SQI_DIRECT_MODE/production/_ext/108134065/bootmode.o
 .data          0x00000000        0x0 build/LAN9255_SQI_DIRECT_MODE/production/_ext/108134065/bootmode.o
 .bss           0x00000000        0x0 build/LAN9255_SQI_DIRECT_MODE/production/_ext/108134065/bootmode.o
 .text.BL_StartDownload
                0x00000000       0x14 build/LAN9255_SQI_DIRECT_MODE/production/_ext/108134065/bootmode.o
 .text.BL_Data  0x00000000       0x1a build/LAN9255_SQI_DIRECT_MODE/production/_ext/108134065/bootmode.o
 .text          0x00000000        0x0 build/LAN9255_SQI_DIRECT_MODE/production/_ext/108134065/coeappl.o
 .data          0x00000000        0x0 build/LAN9255_SQI_DIRECT_MODE/production/_ext/108134065/coeappl.o
 .bss           0x00000000        0x0 build/LAN9255_SQI_DIRECT_MODE/production/_ext/108134065/coeappl.o
 .text          0x00000000        0x0 build/LAN9255_SQI_DIRECT_MODE/production/_ext/108134065/ecatappl.o
 .data          0x00000000        0x0 build/LAN9255_SQI_DIRECT_MODE/production/_ext/108134065/ecatappl.o
 .bss           0x00000000        0x0 build/LAN9255_SQI_DIRECT_MODE/production/_ext/108134065/ecatappl.o
 .text          0x00000000        0x0 build/LAN9255_SQI_DIRECT_MODE/production/_ext/108134065/ecatcoe.o
 .data          0x00000000        0x0 build/LAN9255_SQI_DIRECT_MODE/production/_ext/108134065/ecatcoe.o
 .bss           0x00000000        0x0 build/LAN9255_SQI_DIRECT_MODE/production/_ext/108134065/ecatcoe.o
 .text          0x00000000        0x0 build/LAN9255_SQI_DIRECT_MODE/production/_ext/108134065/ecatfoe.o
 .data          0x00000000        0x0 build/LAN9255_SQI_DIRECT_MODE/production/_ext/108134065/ecatfoe.o
 .bss           0x00000000        0x0 build/LAN9255_SQI_DIRECT_MODE/production/_ext/108134065/ecatfoe.o
 .text          0x00000000        0x0 build/LAN9255_SQI_DIRECT_MODE/production/_ext/108134065/ecatslv.o
 .data          0x00000000        0x0 build/LAN9255_SQI_DIRECT_MODE/production/_ext/108134065/ecatslv.o
 .bss           0x00000000        0x0 build/LAN9255_SQI_DIRECT_MODE/production/_ext/108134065/ecatslv.o
 .text.ECAT_StateChange
                0x00000000      0x188 build/LAN9255_SQI_DIRECT_MODE/production/_ext/108134065/ecatslv.o
 .text          0x00000000        0x0 build/LAN9255_SQI_DIRECT_MODE/production/_ext/108134065/emcy.o
 .data          0x00000000        0x0 build/LAN9255_SQI_DIRECT_MODE/production/_ext/108134065/emcy.o
 .bss           0x00000000        0x0 build/LAN9255_SQI_DIRECT_MODE/production/_ext/108134065/emcy.o
 .text          0x00000000        0x0 build/LAN9255_SQI_DIRECT_MODE/production/_ext/108134065/foeappl.o
 .data          0x00000000        0x0 build/LAN9255_SQI_DIRECT_MODE/production/_ext/108134065/foeappl.o
 .bss           0x00000000        0x0 build/LAN9255_SQI_DIRECT_MODE/production/_ext/108134065/foeappl.o
 .text          0x00000000        0x0 build/LAN9255_SQI_DIRECT_MODE/production/_ext/108134065/mailbox.o
 .data          0x00000000        0x0 build/LAN9255_SQI_DIRECT_MODE/production/_ext/108134065/mailbox.o
 .bss           0x00000000        0x0 build/LAN9255_SQI_DIRECT_MODE/production/_ext/108134065/mailbox.o
 .text          0x00000000        0x0 build/LAN9255_SQI_DIRECT_MODE/production/_ext/108134065/objdef.o
 .data          0x00000000        0x0 build/LAN9255_SQI_DIRECT_MODE/production/_ext/108134065/objdef.o
 .bss           0x00000000        0x0 build/LAN9255_SQI_DIRECT_MODE/production/_ext/108134065/objdef.o
 .text          0x00000000        0x0 build/LAN9255_SQI_DIRECT_MODE/production/_ext/108134065/sample_app.o
 .data          0x00000000        0x0 build/LAN9255_SQI_DIRECT_MODE/production/_ext/108134065/sample_app.o
 .bss           0x00000000        0x0 build/LAN9255_SQI_DIRECT_MODE/production/_ext/108134065/sample_app.o
 .text          0x00000000        0x0 build/LAN9255_SQI_DIRECT_MODE/production/_ext/108134065/sdoserv.o
 .data          0x00000000        0x0 build/LAN9255_SQI_DIRECT_MODE/production/_ext/108134065/sdoserv.o
 .bss           0x00000000        0x0 build/LAN9255_SQI_DIRECT_MODE/production/_ext/108134065/sdoserv.o
 .text          0x00000000        0x0 build/LAN9255_SQI_DIRECT_MODE/production/_ext/1360937237/main.o
 .data          0x00000000        0x0 build/LAN9255_SQI_DIRECT_MODE/production/_ext/1360937237/main.o
 .bss           0x00000000        0x0 build/LAN9255_SQI_DIRECT_MODE/production/_ext/1360937237/main.o
 .text          0x00000000        0x0 build/LAN9255_SQI_DIRECT_MODE/production/_ext/1360937237/app.o
 .data          0x00000000        0x0 build/LAN9255_SQI_DIRECT_MODE/production/_ext/1360937237/app.o
 .bss           0x00000000        0x0 build/LAN9255_SQI_DIRECT_MODE/production/_ext/1360937237/app.o
 .rodata.guiFont_Tahoma_7_Regular
                0x00000000      0x5b4 build/LAN9255_SQI_DIRECT_MODE/production/_ext/1360937237/app.o
 .rodata.guiFont_Tahoma_6_Regular
                0x00000000      0x548 build/LAN9255_SQI_DIRECT_MODE/production/_ext/1360937237/app.o
 .rodata.guiFont_Tahoma_14_Regular
                0x00000000      0xfd4 build/LAN9255_SQI_DIRECT_MODE/production/_ext/1360937237/app.o
 .rodata.guiFont_Tahoma_18_Regular
                0x00000000     0x1598 build/LAN9255_SQI_DIRECT_MODE/production/_ext/1360937237/app.o
 .rodata.guiFont_Exo_2_Condensed21x32_Regular
                0x00000000     0x16c8 build/LAN9255_SQI_DIRECT_MODE/production/_ext/1360937237/app.o
 .rodata.guiFont_Exo_2_Condensed10x16_Regular
                0x00000000      0x7a8 build/LAN9255_SQI_DIRECT_MODE/production/_ext/1360937237/app.o
 .rodata.guiFont_Exo_2_Condensed15x23_Regular
                0x00000000      0xbc8 build/LAN9255_SQI_DIRECT_MODE/production/_ext/1360937237/app.o
 .rodata.guiFont_Tahoma_16_Regular
                0x00000000     0x120c build/LAN9255_SQI_DIRECT_MODE/production/_ext/1360937237/app.o
 .rodata.guiFont_Tahoma_10_Regular
                0x00000000      0x7f8 build/LAN9255_SQI_DIRECT_MODE/production/_ext/1360937237/app.o
 .rodata.guiFont_Roboto_Mono11x23_Regular
                0x00000000     0x1144 build/LAN9255_SQI_DIRECT_MODE/production/_ext/1360937237/app.o
 .config_var    0x00000000        0x4 build/LAN9255_SQI_DIRECT_MODE/production/_ext/1360937237/app.o
 .rodata.gAppBankBOffsetAddr
                0x00000000        0x4 build/LAN9255_SQI_DIRECT_MODE/production/_ext/1360937237/app.o
 .rodata.gApplicationStartAddr
                0x00000000        0x4 build/LAN9255_SQI_DIRECT_MODE/production/_ext/1360937237/app.o
 .text          0x00000000        0x0 build/LAN9255_SQI_DIRECT_MODE/production/_ext/1360937237/Developer_Test.o
 .data          0x00000000        0x0 build/LAN9255_SQI_DIRECT_MODE/production/_ext/1360937237/Developer_Test.o
 .bss           0x00000000        0x0 build/LAN9255_SQI_DIRECT_MODE/production/_ext/1360937237/Developer_Test.o
 .debug_info    0x00000000     0x10cc build/LAN9255_SQI_DIRECT_MODE/production/_ext/1360937237/Developer_Test.o
 .debug_abbrev  0x00000000      0x19c build/LAN9255_SQI_DIRECT_MODE/production/_ext/1360937237/Developer_Test.o
 .debug_aranges
                0x00000000       0x18 build/LAN9255_SQI_DIRECT_MODE/production/_ext/1360937237/Developer_Test.o
 .debug_line    0x00000000      0x219 build/LAN9255_SQI_DIRECT_MODE/production/_ext/1360937237/Developer_Test.o
 .debug_str     0x00000000        0xe build/LAN9255_SQI_DIRECT_MODE/production/_ext/1360937237/Developer_Test.o
 .comment       0x00000000       0x54 build/LAN9255_SQI_DIRECT_MODE/production/_ext/1360937237/Developer_Test.o
 .ARM.attributes
                0x00000000       0x39 build/LAN9255_SQI_DIRECT_MODE/production/_ext/1360937237/Developer_Test.o
 .text          0x00000000        0x0 c:/program files/microchip/xc32/v3.01/bin/bin/../../lib/gcc/pic32c/8.3.1/../../../../pic32c/lib/thumb/v7e-m+fp/hard\libpic32c.a(data_init.o)
 .data          0x00000000        0x0 c:/program files/microchip/xc32/v3.01/bin/bin/../../lib/gcc/pic32c/8.3.1/../../../../pic32c/lib/thumb/v7e-m+fp/hard\libpic32c.a(data_init.o)
 .xc_stack_usage
                0x00000000       0x2a c:/program files/microchip/xc32/v3.01/bin/bin/../../lib/gcc/pic32c/8.3.1/../../../../pic32c/lib/thumb/v7e-m+fp/hard\libpic32c.a(data_init.o)
 .xc_stack_usage.hdr
                0x00000000        0xe c:/program files/microchip/xc32/v3.01/bin/bin/../../lib/gcc/pic32c/8.3.1/../../../../pic32c/lib/thumb/v7e-m+fp/hard\libpic32c.a(data_init.o)
 .data          0x00000000        0x0 c:/program files/microchip/xc32/v3.01/bin/bin/../../lib/gcc/pic32c/8.3.1/thumb/v7e-m+fp/hard\libgcc.a(_aeabi_uldivmod.o)
 .bss           0x00000000        0x0 c:/program files/microchip/xc32/v3.01/bin/bin/../../lib/gcc/pic32c/8.3.1/thumb/v7e-m+fp/hard\libgcc.a(_aeabi_uldivmod.o)
 .xc_stack_usage.hdr
                0x00000000        0xe c:/program files/microchip/xc32/v3.01/bin/bin/../../lib/gcc/pic32c/8.3.1/thumb/v7e-m+fp/hard\libgcc.a(_aeabi_uldivmod.o)
 .xc_stack_usage
                0x00000000       0x1e c:/program files/microchip/xc32/v3.01/bin/bin/../../lib/gcc/pic32c/8.3.1/thumb/v7e-m+fp/hard\libgcc.a(_aeabi_uldivmod.o)
 .data          0x00000000        0x0 c:/program files/microchip/xc32/v3.01/bin/bin/../../lib/gcc/pic32c/8.3.1/thumb/v7e-m+fp/hard\libgcc.a(_udivmoddi4.o)
 .bss           0x00000000        0x0 c:/program files/microchip/xc32/v3.01/bin/bin/../../lib/gcc/pic32c/8.3.1/thumb/v7e-m+fp/hard\libgcc.a(_udivmoddi4.o)
 .xc_stack_usage
                0x00000000       0x1a c:/program files/microchip/xc32/v3.01/bin/bin/../../lib/gcc/pic32c/8.3.1/thumb/v7e-m+fp/hard\libgcc.a(_udivmoddi4.o)
 .ARM.extab     0x00000000        0x0 c:/program files/microchip/xc32/v3.01/bin/bin/../../lib/gcc/pic32c/8.3.1/thumb/v7e-m+fp/hard\libgcc.a(_udivmoddi4.o)
 .xc_stack_usage.hdr
                0x00000000        0xe c:/program files/microchip/xc32/v3.01/bin/bin/../../lib/gcc/pic32c/8.3.1/thumb/v7e-m+fp/hard\libgcc.a(_udivmoddi4.o)
 .data          0x00000000        0x0 c:/program files/microchip/xc32/v3.01/bin/bin/../../lib/gcc/pic32c/8.3.1/thumb/v7e-m+fp/hard\libgcc.a(_dvmd_tls.o)
 .bss           0x00000000        0x0 c:/program files/microchip/xc32/v3.01/bin/bin/../../lib/gcc/pic32c/8.3.1/thumb/v7e-m+fp/hard\libgcc.a(_dvmd_tls.o)
 .xc_stack_usage.hdr
                0x00000000        0xe c:/program files/microchip/xc32/v3.01/bin/bin/../../lib/gcc/pic32c/8.3.1/thumb/v7e-m+fp/hard\libgcc.a(_dvmd_tls.o)
 .xc_stack_usage
                0x00000000       0x36 c:/program files/microchip/xc32/v3.01/bin/bin/../../lib/gcc/pic32c/8.3.1/thumb/v7e-m+fp/hard\libgcc.a(_dvmd_tls.o)
 .text          0x00000000        0x0 c:/program files/microchip/xc32/v3.01/bin/bin/../../lib/gcc/pic32c/8.3.1/../../../../pic32c/lib/thumb/v7e-m+fp/hard\libc_nano.a(_lib_a-sprintf.cdnopuxX.o)
 .data          0x00000000        0x0 c:/program files/microchip/xc32/v3.01/bin/bin/../../lib/gcc/pic32c/8.3.1/../../../../pic32c/lib/thumb/v7e-m+fp/hard\libc_nano.a(_lib_a-sprintf.cdnopuxX.o)
 .bss           0x00000000        0x0 c:/program files/microchip/xc32/v3.01/bin/bin/../../lib/gcc/pic32c/8.3.1/../../../../pic32c/lib/thumb/v7e-m+fp/hard\libc_nano.a(_lib_a-sprintf.cdnopuxX.o)
 .xc_stack_usage
                0x00000000       0x1f c:/program files/microchip/xc32/v3.01/bin/bin/../../lib/gcc/pic32c/8.3.1/../../../../pic32c/lib/thumb/v7e-m+fp/hard\libc_nano.a(_lib_a-sprintf.cdnopuxX.o)
 .xc_stack_usage.hdr
                0x00000000        0xe c:/program files/microchip/xc32/v3.01/bin/bin/../../lib/gcc/pic32c/8.3.1/../../../../pic32c/lib/thumb/v7e-m+fp/hard\libc_nano.a(_lib_a-sprintf.cdnopuxX.o)
 .text          0x00000000        0x0 c:/program files/microchip/xc32/v3.01/bin/bin/../../lib/gcc/pic32c/8.3.1/../../../../pic32c/lib/thumb/v7e-m+fp/hard\libc_nano.a(lib_a-init.o)
 .data          0x00000000        0x0 c:/program files/microchip/xc32/v3.01/bin/bin/../../lib/gcc/pic32c/8.3.1/../../../../pic32c/lib/thumb/v7e-m+fp/hard\libc_nano.a(lib_a-init.o)
 .bss           0x00000000        0x0 c:/program files/microchip/xc32/v3.01/bin/bin/../../lib/gcc/pic32c/8.3.1/../../../../pic32c/lib/thumb/v7e-m+fp/hard\libc_nano.a(lib_a-init.o)
 .xc_stack_usage
                0x00000000       0x1f c:/program files/microchip/xc32/v3.01/bin/bin/../../lib/gcc/pic32c/8.3.1/../../../../pic32c/lib/thumb/v7e-m+fp/hard\libc_nano.a(lib_a-init.o)
 .xc_stack_usage.hdr
                0x00000000        0xe c:/program files/microchip/xc32/v3.01/bin/bin/../../lib/gcc/pic32c/8.3.1/../../../../pic32c/lib/thumb/v7e-m+fp/hard\libc_nano.a(lib_a-init.o)
 .text          0x00000000        0x0 c:/program files/microchip/xc32/v3.01/bin/bin/../../lib/gcc/pic32c/8.3.1/../../../../pic32c/lib/thumb/v7e-m+fp/hard\libc_nano.a(lib_a-malloc.o)
 .data          0x00000000        0x0 c:/program files/microchip/xc32/v3.01/bin/bin/../../lib/gcc/pic32c/8.3.1/../../../../pic32c/lib/thumb/v7e-m+fp/hard\libc_nano.a(lib_a-malloc.o)
 .bss           0x00000000        0x0 c:/program files/microchip/xc32/v3.01/bin/bin/../../lib/gcc/pic32c/8.3.1/../../../../pic32c/lib/thumb/v7e-m+fp/hard\libc_nano.a(lib_a-malloc.o)
 .xc_stack_usage
                0x00000000       0x26 c:/program files/microchip/xc32/v3.01/bin/bin/../../lib/gcc/pic32c/8.3.1/../../../../pic32c/lib/thumb/v7e-m+fp/hard\libc_nano.a(lib_a-malloc.o)
 .xc_stack_usage.hdr
                0x00000000        0xe c:/program files/microchip/xc32/v3.01/bin/bin/../../lib/gcc/pic32c/8.3.1/../../../../pic32c/lib/thumb/v7e-m+fp/hard\libc_nano.a(lib_a-malloc.o)
 .text          0x00000000        0x0 c:/program files/microchip/xc32/v3.01/bin/bin/../../lib/gcc/pic32c/8.3.1/../../../../pic32c/lib/thumb/v7e-m+fp/hard\libc_nano.a(lib_a-memcpy-stub.o)
 .data          0x00000000        0x0 c:/program files/microchip/xc32/v3.01/bin/bin/../../lib/gcc/pic32c/8.3.1/../../../../pic32c/lib/thumb/v7e-m+fp/hard\libc_nano.a(lib_a-memcpy-stub.o)
 .bss           0x00000000        0x0 c:/program files/microchip/xc32/v3.01/bin/bin/../../lib/gcc/pic32c/8.3.1/../../../../pic32c/lib/thumb/v7e-m+fp/hard\libc_nano.a(lib_a-memcpy-stub.o)
 .xc_stack_usage
                0x00000000       0x14 c:/program files/microchip/xc32/v3.01/bin/bin/../../lib/gcc/pic32c/8.3.1/../../../../pic32c/lib/thumb/v7e-m+fp/hard\libc_nano.a(lib_a-memcpy-stub.o)
 .xc_stack_usage.hdr
                0x00000000        0xe c:/program files/microchip/xc32/v3.01/bin/bin/../../lib/gcc/pic32c/8.3.1/../../../../pic32c/lib/thumb/v7e-m+fp/hard\libc_nano.a(lib_a-memcpy-stub.o)
 .text          0x00000000        0x0 c:/program files/microchip/xc32/v3.01/bin/bin/../../lib/gcc/pic32c/8.3.1/../../../../pic32c/lib/thumb/v7e-m+fp/hard\libc_nano.a(lib_a-memset.o)
 .data          0x00000000        0x0 c:/program files/microchip/xc32/v3.01/bin/bin/../../lib/gcc/pic32c/8.3.1/../../../../pic32c/lib/thumb/v7e-m+fp/hard\libc_nano.a(lib_a-memset.o)
 .bss           0x00000000        0x0 c:/program files/microchip/xc32/v3.01/bin/bin/../../lib/gcc/pic32c/8.3.1/../../../../pic32c/lib/thumb/v7e-m+fp/hard\libc_nano.a(lib_a-memset.o)
 .xc_stack_usage
                0x00000000       0x14 c:/program files/microchip/xc32/v3.01/bin/bin/../../lib/gcc/pic32c/8.3.1/../../../../pic32c/lib/thumb/v7e-m+fp/hard\libc_nano.a(lib_a-memset.o)
 .xc_stack_usage.hdr
                0x00000000        0xe c:/program files/microchip/xc32/v3.01/bin/bin/../../lib/gcc/pic32c/8.3.1/../../../../pic32c/lib/thumb/v7e-m+fp/hard\libc_nano.a(lib_a-memset.o)
 .text          0x00000000        0x0 c:/program files/microchip/xc32/v3.01/bin/bin/../../lib/gcc/pic32c/8.3.1/../../../../pic32c/lib/thumb/v7e-m+fp/hard\libc_nano.a(lib_a-nano-freer.o)
 .data          0x00000000        0x0 c:/program files/microchip/xc32/v3.01/bin/bin/../../lib/gcc/pic32c/8.3.1/../../../../pic32c/lib/thumb/v7e-m+fp/hard\libc_nano.a(lib_a-nano-freer.o)
 .bss           0x00000000        0x0 c:/program files/microchip/xc32/v3.01/bin/bin/../../lib/gcc/pic32c/8.3.1/../../../../pic32c/lib/thumb/v7e-m+fp/hard\libc_nano.a(lib_a-nano-freer.o)
 .xc_stack_usage
                0x00000000       0x15 c:/program files/microchip/xc32/v3.01/bin/bin/../../lib/gcc/pic32c/8.3.1/../../../../pic32c/lib/thumb/v7e-m+fp/hard\libc_nano.a(lib_a-nano-freer.o)
 .xc_stack_usage.hdr
                0x00000000        0xe c:/program files/microchip/xc32/v3.01/bin/bin/../../lib/gcc/pic32c/8.3.1/../../../../pic32c/lib/thumb/v7e-m+fp/hard\libc_nano.a(lib_a-nano-freer.o)
 .text          0x00000000        0x0 c:/program files/microchip/xc32/v3.01/bin/bin/../../lib/gcc/pic32c/8.3.1/../../../../pic32c/lib/thumb/v7e-m+fp/hard\libc_nano.a(lib_a-nano-mallocr.o)
 .data          0x00000000        0x0 c:/program files/microchip/xc32/v3.01/bin/bin/../../lib/gcc/pic32c/8.3.1/../../../../pic32c/lib/thumb/v7e-m+fp/hard\libc_nano.a(lib_a-nano-mallocr.o)
 .bss           0x00000000        0x0 c:/program files/microchip/xc32/v3.01/bin/bin/../../lib/gcc/pic32c/8.3.1/../../../../pic32c/lib/thumb/v7e-m+fp/hard\libc_nano.a(lib_a-nano-mallocr.o)
 .xc_stack_usage
                0x00000000       0x17 c:/program files/microchip/xc32/v3.01/bin/bin/../../lib/gcc/pic32c/8.3.1/../../../../pic32c/lib/thumb/v7e-m+fp/hard\libc_nano.a(lib_a-nano-mallocr.o)
 .xc_stack_usage.hdr
                0x00000000        0xe c:/program files/microchip/xc32/v3.01/bin/bin/../../lib/gcc/pic32c/8.3.1/../../../../pic32c/lib/thumb/v7e-m+fp/hard\libc_nano.a(lib_a-nano-mallocr.o)
 .text          0x00000000        0x0 c:/program files/microchip/xc32/v3.01/bin/bin/../../lib/gcc/pic32c/8.3.1/../../../../pic32c/lib/thumb/v7e-m+fp/hard\libc_nano.a(lib_a-sbrkr.o)
 .data          0x00000000        0x0 c:/program files/microchip/xc32/v3.01/bin/bin/../../lib/gcc/pic32c/8.3.1/../../../../pic32c/lib/thumb/v7e-m+fp/hard\libc_nano.a(lib_a-sbrkr.o)
 .bss           0x00000000        0x0 c:/program files/microchip/xc32/v3.01/bin/bin/../../lib/gcc/pic32c/8.3.1/../../../../pic32c/lib/thumb/v7e-m+fp/hard\libc_nano.a(lib_a-sbrkr.o)
 .xc_stack_usage
                0x00000000       0x15 c:/program files/microchip/xc32/v3.01/bin/bin/../../lib/gcc/pic32c/8.3.1/../../../../pic32c/lib/thumb/v7e-m+fp/hard\libc_nano.a(lib_a-sbrkr.o)
 .xc_stack_usage.hdr
                0x00000000        0xe c:/program files/microchip/xc32/v3.01/bin/bin/../../lib/gcc/pic32c/8.3.1/../../../../pic32c/lib/thumb/v7e-m+fp/hard\libc_nano.a(lib_a-sbrkr.o)
 .data          0x00000000        0x0 c:/program files/microchip/xc32/v3.01/bin/bin/../../lib/gcc/pic32c/8.3.1/../../../../pic32c/lib/thumb/v7e-m+fp/hard\libc_nano.a(lib_a-strlen.o)
 .bss           0x00000000        0x0 c:/program files/microchip/xc32/v3.01/bin/bin/../../lib/gcc/pic32c/8.3.1/../../../../pic32c/lib/thumb/v7e-m+fp/hard\libc_nano.a(lib_a-strlen.o)
 .xc_stack_usage.hdr
                0x00000000        0xe c:/program files/microchip/xc32/v3.01/bin/bin/../../lib/gcc/pic32c/8.3.1/../../../../pic32c/lib/thumb/v7e-m+fp/hard\libc_nano.a(lib_a-strlen.o)
 .xc_stack_usage
                0x00000000       0x14 c:/program files/microchip/xc32/v3.01/bin/bin/../../lib/gcc/pic32c/8.3.1/../../../../pic32c/lib/thumb/v7e-m+fp/hard\libc_nano.a(lib_a-strlen.o)
 .text          0x00000000        0x0 c:/program files/microchip/xc32/v3.01/bin/bin/../../lib/gcc/pic32c/8.3.1/../../../../pic32c/lib/thumb/v7e-m+fp/hard\libc_nano.a(_lib_a-nano-vfprintf.cdnopuxX.o)
 .data          0x00000000        0x0 c:/program files/microchip/xc32/v3.01/bin/bin/../../lib/gcc/pic32c/8.3.1/../../../../pic32c/lib/thumb/v7e-m+fp/hard\libc_nano.a(_lib_a-nano-vfprintf.cdnopuxX.o)
 .bss           0x00000000        0x0 c:/program files/microchip/xc32/v3.01/bin/bin/../../lib/gcc/pic32c/8.3.1/../../../../pic32c/lib/thumb/v7e-m+fp/hard\libc_nano.a(_lib_a-nano-vfprintf.cdnopuxX.o)
 .xc_stack_usage
                0x00000000       0x5e c:/program files/microchip/xc32/v3.01/bin/bin/../../lib/gcc/pic32c/8.3.1/../../../../pic32c/lib/thumb/v7e-m+fp/hard\libc_nano.a(_lib_a-nano-vfprintf.cdnopuxX.o)
 .text.__printf_float
                0x00000000        0x6 c:/program files/microchip/xc32/v3.01/bin/bin/../../lib/gcc/pic32c/8.3.1/../../../../pic32c/lib/thumb/v7e-m+fp/hard\libc_nano.a(_lib_a-nano-vfprintf.cdnopuxX.o)
 .xc_stack_usage.hdr
                0x00000000        0xe c:/program files/microchip/xc32/v3.01/bin/bin/../../lib/gcc/pic32c/8.3.1/../../../../pic32c/lib/thumb/v7e-m+fp/hard\libc_nano.a(_lib_a-nano-vfprintf.cdnopuxX.o)
 .text          0x00000000        0x0 c:/program files/microchip/xc32/v3.01/bin/bin/../../lib/gcc/pic32c/8.3.1/../../../../pic32c/lib/thumb/v7e-m+fp/hard\libc_nano.a(lib_a-__ssfputs.o)
 .data          0x00000000        0x0 c:/program files/microchip/xc32/v3.01/bin/bin/../../lib/gcc/pic32c/8.3.1/../../../../pic32c/lib/thumb/v7e-m+fp/hard\libc_nano.a(lib_a-__ssfputs.o)
 .bss           0x00000000        0x0 c:/program files/microchip/xc32/v3.01/bin/bin/../../lib/gcc/pic32c/8.3.1/../../../../pic32c/lib/thumb/v7e-m+fp/hard\libc_nano.a(lib_a-__ssfputs.o)
 .xc_stack_usage
                0x00000000       0x31 c:/program files/microchip/xc32/v3.01/bin/bin/../../lib/gcc/pic32c/8.3.1/../../../../pic32c/lib/thumb/v7e-m+fp/hard\libc_nano.a(lib_a-__ssfputs.o)
 .xc_stack_usage.hdr
                0x00000000        0xe c:/program files/microchip/xc32/v3.01/bin/bin/../../lib/gcc/pic32c/8.3.1/../../../../pic32c/lib/thumb/v7e-m+fp/hard\libc_nano.a(lib_a-__ssfputs.o)
 .text          0x00000000        0x0 c:/program files/microchip/xc32/v3.01/bin/bin/../../lib/gcc/pic32c/8.3.1/../../../../pic32c/lib/thumb/v7e-m+fp/hard\libc_nano.a(lib_a-findfp.o)
 .data          0x00000000        0x0 c:/program files/microchip/xc32/v3.01/bin/bin/../../lib/gcc/pic32c/8.3.1/../../../../pic32c/lib/thumb/v7e-m+fp/hard\libc_nano.a(lib_a-findfp.o)
 .bss           0x00000000        0x0 c:/program files/microchip/xc32/v3.01/bin/bin/../../lib/gcc/pic32c/8.3.1/../../../../pic32c/lib/thumb/v7e-m+fp/hard\libc_nano.a(lib_a-findfp.o)
 .xc_stack_usage
                0x00000000       0x81 c:/program files/microchip/xc32/v3.01/bin/bin/../../lib/gcc/pic32c/8.3.1/../../../../pic32c/lib/thumb/v7e-m+fp/hard\libc_nano.a(lib_a-findfp.o)
 .text._cleanup
                0x00000000        0xc c:/program files/microchip/xc32/v3.01/bin/bin/../../lib/gcc/pic32c/8.3.1/../../../../pic32c/lib/thumb/v7e-m+fp/hard\libc_nano.a(lib_a-findfp.o)
 .xc_stack_usage.hdr
                0x00000000        0xe c:/program files/microchip/xc32/v3.01/bin/bin/../../lib/gcc/pic32c/8.3.1/../../../../pic32c/lib/thumb/v7e-m+fp/hard\libc_nano.a(lib_a-findfp.o)
 .text          0x00000000        0x0 c:/program files/microchip/xc32/v3.01/bin/bin/../../lib/gcc/pic32c/8.3.1/../../../../pic32c/lib/thumb/v7e-m+fp/hard\libc_nano.a(lib_a-fputwc.o)
 .data          0x00000000        0x0 c:/program files/microchip/xc32/v3.01/bin/bin/../../lib/gcc/pic32c/8.3.1/../../../../pic32c/lib/thumb/v7e-m+fp/hard\libc_nano.a(lib_a-fputwc.o)
 .bss           0x00000000        0x0 c:/program files/microchip/xc32/v3.01/bin/bin/../../lib/gcc/pic32c/8.3.1/../../../../pic32c/lib/thumb/v7e-m+fp/hard\libc_nano.a(lib_a-fputwc.o)
 .xc_stack_usage
                0x00000000       0x41 c:/program files/microchip/xc32/v3.01/bin/bin/../../lib/gcc/pic32c/8.3.1/../../../../pic32c/lib/thumb/v7e-m+fp/hard\libc_nano.a(lib_a-fputwc.o)
 .text.fputwc   0x00000000       0x50 c:/program files/microchip/xc32/v3.01/bin/bin/../../lib/gcc/pic32c/8.3.1/../../../../pic32c/lib/thumb/v7e-m+fp/hard\libc_nano.a(lib_a-fputwc.o)
 .xc_stack_usage.hdr
                0x00000000        0xe c:/program files/microchip/xc32/v3.01/bin/bin/../../lib/gcc/pic32c/8.3.1/../../../../pic32c/lib/thumb/v7e-m+fp/hard\libc_nano.a(lib_a-fputwc.o)
 .text          0x00000000        0x0 c:/program files/microchip/xc32/v3.01/bin/bin/../../lib/gcc/pic32c/8.3.1/../../../../pic32c/lib/thumb/v7e-m+fp/hard\libc_nano.a(lib_a-fwalk.o)
 .data          0x00000000        0x0 c:/program files/microchip/xc32/v3.01/bin/bin/../../lib/gcc/pic32c/8.3.1/../../../../pic32c/lib/thumb/v7e-m+fp/hard\libc_nano.a(lib_a-fwalk.o)
 .bss           0x00000000        0x0 c:/program files/microchip/xc32/v3.01/bin/bin/../../lib/gcc/pic32c/8.3.1/../../../../pic32c/lib/thumb/v7e-m+fp/hard\libc_nano.a(lib_a-fwalk.o)
 .xc_stack_usage
                0x00000000       0x2e c:/program files/microchip/xc32/v3.01/bin/bin/../../lib/gcc/pic32c/8.3.1/../../../../pic32c/lib/thumb/v7e-m+fp/hard\libc_nano.a(lib_a-fwalk.o)
 .text._fwalk   0x00000000       0x38 c:/program files/microchip/xc32/v3.01/bin/bin/../../lib/gcc/pic32c/8.3.1/../../../../pic32c/lib/thumb/v7e-m+fp/hard\libc_nano.a(lib_a-fwalk.o)
 .xc_stack_usage.hdr
                0x00000000        0xe c:/program files/microchip/xc32/v3.01/bin/bin/../../lib/gcc/pic32c/8.3.1/../../../../pic32c/lib/thumb/v7e-m+fp/hard\libc_nano.a(lib_a-fwalk.o)
 .text          0x00000000        0x0 c:/program files/microchip/xc32/v3.01/bin/bin/../../lib/gcc/pic32c/8.3.1/../../../../pic32c/lib/thumb/v7e-m+fp/hard\libc_nano.a(lib_a-impure.o)
 .data          0x00000000        0x0 c:/program files/microchip/xc32/v3.01/bin/bin/../../lib/gcc/pic32c/8.3.1/../../../../pic32c/lib/thumb/v7e-m+fp/hard\libc_nano.a(lib_a-impure.o)
 .bss           0x00000000        0x0 c:/program files/microchip/xc32/v3.01/bin/bin/../../lib/gcc/pic32c/8.3.1/../../../../pic32c/lib/thumb/v7e-m+fp/hard\libc_nano.a(lib_a-impure.o)
 .xc_stack_usage.hdr
                0x00000000        0xe c:/program files/microchip/xc32/v3.01/bin/bin/../../lib/gcc/pic32c/8.3.1/../../../../pic32c/lib/thumb/v7e-m+fp/hard\libc_nano.a(lib_a-impure.o)
 .text          0x00000000        0x0 c:/program files/microchip/xc32/v3.01/bin/bin/../../lib/gcc/pic32c/8.3.1/../../../../pic32c/lib/thumb/v7e-m+fp/hard\libc_nano.a(lib_a-locale.o)
 .data          0x00000000        0x0 c:/program files/microchip/xc32/v3.01/bin/bin/../../lib/gcc/pic32c/8.3.1/../../../../pic32c/lib/thumb/v7e-m+fp/hard\libc_nano.a(lib_a-locale.o)
 .bss           0x00000000        0x0 c:/program files/microchip/xc32/v3.01/bin/bin/../../lib/gcc/pic32c/8.3.1/../../../../pic32c/lib/thumb/v7e-m+fp/hard\libc_nano.a(lib_a-locale.o)
 .xc_stack_usage
                0x00000000       0x52 c:/program files/microchip/xc32/v3.01/bin/bin/../../lib/gcc/pic32c/8.3.1/../../../../pic32c/lib/thumb/v7e-m+fp/hard\libc_nano.a(lib_a-locale.o)
 .text._setlocale_r
                0x00000000       0x40 c:/program files/microchip/xc32/v3.01/bin/bin/../../lib/gcc/pic32c/8.3.1/../../../../pic32c/lib/thumb/v7e-m+fp/hard\libc_nano.a(lib_a-locale.o)
 .text.setlocale
                0x00000000       0x10 c:/program files/microchip/xc32/v3.01/bin/bin/../../lib/gcc/pic32c/8.3.1/../../../../pic32c/lib/thumb/v7e-m+fp/hard\libc_nano.a(lib_a-locale.o)
 .bss._PathLocale
                0x00000000        0x4 c:/program files/microchip/xc32/v3.01/bin/bin/../../lib/gcc/pic32c/8.3.1/../../../../pic32c/lib/thumb/v7e-m+fp/hard\libc_nano.a(lib_a-locale.o)
 .xc_stack_usage.hdr
                0x00000000        0xe c:/program files/microchip/xc32/v3.01/bin/bin/../../lib/gcc/pic32c/8.3.1/../../../../pic32c/lib/thumb/v7e-m+fp/hard\libc_nano.a(lib_a-locale.o)
 .text          0x00000000        0x0 c:/program files/microchip/xc32/v3.01/bin/bin/../../lib/gcc/pic32c/8.3.1/../../../../pic32c/lib/thumb/v7e-m+fp/hard\libc_nano.a(lib_a-mbtowc_r.o)
 .data          0x00000000        0x0 c:/program files/microchip/xc32/v3.01/bin/bin/../../lib/gcc/pic32c/8.3.1/../../../../pic32c/lib/thumb/v7e-m+fp/hard\libc_nano.a(lib_a-mbtowc_r.o)
 .bss           0x00000000        0x0 c:/program files/microchip/xc32/v3.01/bin/bin/../../lib/gcc/pic32c/8.3.1/../../../../pic32c/lib/thumb/v7e-m+fp/hard\libc_nano.a(lib_a-mbtowc_r.o)
 .xc_stack_usage
                0x00000000       0x33 c:/program files/microchip/xc32/v3.01/bin/bin/../../lib/gcc/pic32c/8.3.1/../../../../pic32c/lib/thumb/v7e-m+fp/hard\libc_nano.a(lib_a-mbtowc_r.o)
 .text._mbtowc_r
                0x00000000       0x14 c:/program files/microchip/xc32/v3.01/bin/bin/../../lib/gcc/pic32c/8.3.1/../../../../pic32c/lib/thumb/v7e-m+fp/hard\libc_nano.a(lib_a-mbtowc_r.o)
 .xc_stack_usage.hdr
                0x00000000        0xe c:/program files/microchip/xc32/v3.01/bin/bin/../../lib/gcc/pic32c/8.3.1/../../../../pic32c/lib/thumb/v7e-m+fp/hard\libc_nano.a(lib_a-mbtowc_r.o)
 .data          0x00000000        0x0 c:/program files/microchip/xc32/v3.01/bin/bin/../../lib/gcc/pic32c/8.3.1/../../../../pic32c/lib/thumb/v7e-m+fp/hard\libc_nano.a(lib_a-memchr.o)
 .bss           0x00000000        0x0 c:/program files/microchip/xc32/v3.01/bin/bin/../../lib/gcc/pic32c/8.3.1/../../../../pic32c/lib/thumb/v7e-m+fp/hard\libc_nano.a(lib_a-memchr.o)
 .xc_stack_usage.hdr
                0x00000000        0xe c:/program files/microchip/xc32/v3.01/bin/bin/../../lib/gcc/pic32c/8.3.1/../../../../pic32c/lib/thumb/v7e-m+fp/hard\libc_nano.a(lib_a-memchr.o)
 .xc_stack_usage
                0x00000000       0x14 c:/program files/microchip/xc32/v3.01/bin/bin/../../lib/gcc/pic32c/8.3.1/../../../../pic32c/lib/thumb/v7e-m+fp/hard\libc_nano.a(lib_a-memchr.o)
 .text          0x00000000        0x0 c:/program files/microchip/xc32/v3.01/bin/bin/../../lib/gcc/pic32c/8.3.1/../../../../pic32c/lib/thumb/v7e-m+fp/hard\libc_nano.a(lib_a-mlock.o)
 .data          0x00000000        0x0 c:/program files/microchip/xc32/v3.01/bin/bin/../../lib/gcc/pic32c/8.3.1/../../../../pic32c/lib/thumb/v7e-m+fp/hard\libc_nano.a(lib_a-mlock.o)
 .bss           0x00000000        0x0 c:/program files/microchip/xc32/v3.01/bin/bin/../../lib/gcc/pic32c/8.3.1/../../../../pic32c/lib/thumb/v7e-m+fp/hard\libc_nano.a(lib_a-mlock.o)
 .xc_stack_usage
                0x00000000       0x38 c:/program files/microchip/xc32/v3.01/bin/bin/../../lib/gcc/pic32c/8.3.1/../../../../pic32c/lib/thumb/v7e-m+fp/hard\libc_nano.a(lib_a-mlock.o)
 .xc_stack_usage.hdr
                0x00000000        0xe c:/program files/microchip/xc32/v3.01/bin/bin/../../lib/gcc/pic32c/8.3.1/../../../../pic32c/lib/thumb/v7e-m+fp/hard\libc_nano.a(lib_a-mlock.o)
 .text          0x00000000        0x0 c:/program files/microchip/xc32/v3.01/bin/bin/../../lib/gcc/pic32c/8.3.1/../../../../pic32c/lib/thumb/v7e-m+fp/hard\libc_nano.a(lib_a-nano-vfprintf_i.o)
 .data          0x00000000        0x0 c:/program files/microchip/xc32/v3.01/bin/bin/../../lib/gcc/pic32c/8.3.1/../../../../pic32c/lib/thumb/v7e-m+fp/hard\libc_nano.a(lib_a-nano-vfprintf_i.o)
 .bss           0x00000000        0x0 c:/program files/microchip/xc32/v3.01/bin/bin/../../lib/gcc/pic32c/8.3.1/../../../../pic32c/lib/thumb/v7e-m+fp/hard\libc_nano.a(lib_a-nano-vfprintf_i.o)
 .xc_stack_usage
                0x00000000       0x33 c:/program files/microchip/xc32/v3.01/bin/bin/../../lib/gcc/pic32c/8.3.1/../../../../pic32c/lib/thumb/v7e-m+fp/hard\libc_nano.a(lib_a-nano-vfprintf_i.o)
 .text._printf_i
                0x00000000      0x228 c:/program files/microchip/xc32/v3.01/bin/bin/../../lib/gcc/pic32c/8.3.1/../../../../pic32c/lib/thumb/v7e-m+fp/hard\libc_nano.a(lib_a-nano-vfprintf_i.o)
 .rodata        0x00000000       0x22 c:/program files/microchip/xc32/v3.01/bin/bin/../../lib/gcc/pic32c/8.3.1/../../../../pic32c/lib/thumb/v7e-m+fp/hard\libc_nano.a(lib_a-nano-vfprintf_i.o)
 .xc_stack_usage.hdr
                0x00000000        0xe c:/program files/microchip/xc32/v3.01/bin/bin/../../lib/gcc/pic32c/8.3.1/../../../../pic32c/lib/thumb/v7e-m+fp/hard\libc_nano.a(lib_a-nano-vfprintf_i.o)
 .text          0x00000000        0x0 c:/program files/microchip/xc32/v3.01/bin/bin/../../lib/gcc/pic32c/8.3.1/../../../../pic32c/lib/thumb/v7e-m+fp/hard\libc_nano.a(lib_a-reent.o)
 .data          0x00000000        0x0 c:/program files/microchip/xc32/v3.01/bin/bin/../../lib/gcc/pic32c/8.3.1/../../../../pic32c/lib/thumb/v7e-m+fp/hard\libc_nano.a(lib_a-reent.o)
 .bss           0x00000000        0x0 c:/program files/microchip/xc32/v3.01/bin/bin/../../lib/gcc/pic32c/8.3.1/../../../../pic32c/lib/thumb/v7e-m+fp/hard\libc_nano.a(lib_a-reent.o)
 .xc_stack_usage
                0x00000000       0x36 c:/program files/microchip/xc32/v3.01/bin/bin/../../lib/gcc/pic32c/8.3.1/../../../../pic32c/lib/thumb/v7e-m+fp/hard\libc_nano.a(lib_a-reent.o)
 .text.cleanup_glue
                0x00000000       0x1a c:/program files/microchip/xc32/v3.01/bin/bin/../../lib/gcc/pic32c/8.3.1/../../../../pic32c/lib/thumb/v7e-m+fp/hard\libc_nano.a(lib_a-reent.o)
 .text._reclaim_reent
                0x00000000       0xb8 c:/program files/microchip/xc32/v3.01/bin/bin/../../lib/gcc/pic32c/8.3.1/../../../../pic32c/lib/thumb/v7e-m+fp/hard\libc_nano.a(lib_a-reent.o)
 .xc_stack_usage.hdr
                0x00000000        0xe c:/program files/microchip/xc32/v3.01/bin/bin/../../lib/gcc/pic32c/8.3.1/../../../../pic32c/lib/thumb/v7e-m+fp/hard\libc_nano.a(lib_a-reent.o)
 .text          0x00000000        0x0 c:/program files/microchip/xc32/v3.01/bin/bin/../../lib/gcc/pic32c/8.3.1/../../../../pic32c/lib/thumb/v7e-m+fp/hard\libc_nano.a(lib_a-stdio.o)
 .data          0x00000000        0x0 c:/program files/microchip/xc32/v3.01/bin/bin/../../lib/gcc/pic32c/8.3.1/../../../../pic32c/lib/thumb/v7e-m+fp/hard\libc_nano.a(lib_a-stdio.o)
 .bss           0x00000000        0x0 c:/program files/microchip/xc32/v3.01/bin/bin/../../lib/gcc/pic32c/8.3.1/../../../../pic32c/lib/thumb/v7e-m+fp/hard\libc_nano.a(lib_a-stdio.o)
 .xc_stack_usage
                0x00000000       0x6e c:/program files/microchip/xc32/v3.01/bin/bin/../../lib/gcc/pic32c/8.3.1/../../../../pic32c/lib/thumb/v7e-m+fp/hard\libc_nano.a(lib_a-stdio.o)
 .text.__seofread
                0x00000000        0x4 c:/program files/microchip/xc32/v3.01/bin/bin/../../lib/gcc/pic32c/8.3.1/../../../../pic32c/lib/thumb/v7e-m+fp/hard\libc_nano.a(lib_a-stdio.o)
 .xc_stack_usage.hdr
                0x00000000        0xe c:/program files/microchip/xc32/v3.01/bin/bin/../../lib/gcc/pic32c/8.3.1/../../../../pic32c/lib/thumb/v7e-m+fp/hard\libc_nano.a(lib_a-stdio.o)
 .text          0x00000000       0x14 c:/program files/microchip/xc32/v3.01/bin/bin/../../lib/gcc/pic32c/8.3.1/../../../../pic32c/lib/thumb/v7e-m+fp/hard\libc_nano.a(lib_a-strcmp.o)
 .data          0x00000000        0x0 c:/program files/microchip/xc32/v3.01/bin/bin/../../lib/gcc/pic32c/8.3.1/../../../../pic32c/lib/thumb/v7e-m+fp/hard\libc_nano.a(lib_a-strcmp.o)
 .bss           0x00000000        0x0 c:/program files/microchip/xc32/v3.01/bin/bin/../../lib/gcc/pic32c/8.3.1/../../../../pic32c/lib/thumb/v7e-m+fp/hard\libc_nano.a(lib_a-strcmp.o)
 .xc_stack_usage.hdr
                0x00000000        0xe c:/program files/microchip/xc32/v3.01/bin/bin/../../lib/gcc/pic32c/8.3.1/../../../../pic32c/lib/thumb/v7e-m+fp/hard\libc_nano.a(lib_a-strcmp.o)
 .xc_stack_usage
                0x00000000       0x14 c:/program files/microchip/xc32/v3.01/bin/bin/../../lib/gcc/pic32c/8.3.1/../../../../pic32c/lib/thumb/v7e-m+fp/hard\libc_nano.a(lib_a-strcmp.o)
 .debug_frame   0x00000000       0x20 c:/program files/microchip/xc32/v3.01/bin/bin/../../lib/gcc/pic32c/8.3.1/../../../../pic32c/lib/thumb/v7e-m+fp/hard\libc_nano.a(lib_a-strcmp.o)
 .ARM.attributes
                0x00000000       0x1c c:/program files/microchip/xc32/v3.01/bin/bin/../../lib/gcc/pic32c/8.3.1/../../../../pic32c/lib/thumb/v7e-m+fp/hard\libc_nano.a(lib_a-strcmp.o)
 .text          0x00000000        0x0 c:/program files/microchip/xc32/v3.01/bin/bin/../../lib/gcc/pic32c/8.3.1/../../../../pic32c/lib/thumb/v7e-m+fp/hard\libc_nano.a(lib_a-wbuf.o)
 .data          0x00000000        0x0 c:/program files/microchip/xc32/v3.01/bin/bin/../../lib/gcc/pic32c/8.3.1/../../../../pic32c/lib/thumb/v7e-m+fp/hard\libc_nano.a(lib_a-wbuf.o)
 .bss           0x00000000        0x0 c:/program files/microchip/xc32/v3.01/bin/bin/../../lib/gcc/pic32c/8.3.1/../../../../pic32c/lib/thumb/v7e-m+fp/hard\libc_nano.a(lib_a-wbuf.o)
 .xc_stack_usage
                0x00000000       0x2c c:/program files/microchip/xc32/v3.01/bin/bin/../../lib/gcc/pic32c/8.3.1/../../../../pic32c/lib/thumb/v7e-m+fp/hard\libc_nano.a(lib_a-wbuf.o)
 .text.__swbuf  0x00000000       0x10 c:/program files/microchip/xc32/v3.01/bin/bin/../../lib/gcc/pic32c/8.3.1/../../../../pic32c/lib/thumb/v7e-m+fp/hard\libc_nano.a(lib_a-wbuf.o)
 .xc_stack_usage.hdr
                0x00000000        0xe c:/program files/microchip/xc32/v3.01/bin/bin/../../lib/gcc/pic32c/8.3.1/../../../../pic32c/lib/thumb/v7e-m+fp/hard\libc_nano.a(lib_a-wbuf.o)
 .text          0x00000000        0x0 c:/program files/microchip/xc32/v3.01/bin/bin/../../lib/gcc/pic32c/8.3.1/../../../../pic32c/lib/thumb/v7e-m+fp/hard\libc_nano.a(lib_a-wcrtomb.o)
 .data          0x00000000        0x0 c:/program files/microchip/xc32/v3.01/bin/bin/../../lib/gcc/pic32c/8.3.1/../../../../pic32c/lib/thumb/v7e-m+fp/hard\libc_nano.a(lib_a-wcrtomb.o)
 .bss           0x00000000        0x0 c:/program files/microchip/xc32/v3.01/bin/bin/../../lib/gcc/pic32c/8.3.1/../../../../pic32c/lib/thumb/v7e-m+fp/hard\libc_nano.a(lib_a-wcrtomb.o)
 .xc_stack_usage
                0x00000000       0x2d c:/program files/microchip/xc32/v3.01/bin/bin/../../lib/gcc/pic32c/8.3.1/../../../../pic32c/lib/thumb/v7e-m+fp/hard\libc_nano.a(lib_a-wcrtomb.o)
 .text.wcrtomb  0x00000000       0x14 c:/program files/microchip/xc32/v3.01/bin/bin/../../lib/gcc/pic32c/8.3.1/../../../../pic32c/lib/thumb/v7e-m+fp/hard\libc_nano.a(lib_a-wcrtomb.o)
 .xc_stack_usage.hdr
                0x00000000        0xe c:/program files/microchip/xc32/v3.01/bin/bin/../../lib/gcc/pic32c/8.3.1/../../../../pic32c/lib/thumb/v7e-m+fp/hard\libc_nano.a(lib_a-wcrtomb.o)
 .text          0x00000000        0x0 c:/program files/microchip/xc32/v3.01/bin/bin/../../lib/gcc/pic32c/8.3.1/../../../../pic32c/lib/thumb/v7e-m+fp/hard\libc_nano.a(lib_a-wctomb_r.o)
 .data          0x00000000        0x0 c:/program files/microchip/xc32/v3.01/bin/bin/../../lib/gcc/pic32c/8.3.1/../../../../pic32c/lib/thumb/v7e-m+fp/hard\libc_nano.a(lib_a-wctomb_r.o)
 .bss           0x00000000        0x0 c:/program files/microchip/xc32/v3.01/bin/bin/../../lib/gcc/pic32c/8.3.1/../../../../pic32c/lib/thumb/v7e-m+fp/hard\libc_nano.a(lib_a-wctomb_r.o)
 .xc_stack_usage
                0x00000000       0x33 c:/program files/microchip/xc32/v3.01/bin/bin/../../lib/gcc/pic32c/8.3.1/../../../../pic32c/lib/thumb/v7e-m+fp/hard\libc_nano.a(lib_a-wctomb_r.o)
 .text._wctomb_r
                0x00000000       0x14 c:/program files/microchip/xc32/v3.01/bin/bin/../../lib/gcc/pic32c/8.3.1/../../../../pic32c/lib/thumb/v7e-m+fp/hard\libc_nano.a(lib_a-wctomb_r.o)
 .xc_stack_usage.hdr
                0x00000000        0xe c:/program files/microchip/xc32/v3.01/bin/bin/../../lib/gcc/pic32c/8.3.1/../../../../pic32c/lib/thumb/v7e-m+fp/hard\libc_nano.a(lib_a-wctomb_r.o)
 .text          0x00000000        0x0 c:/program files/microchip/xc32/v3.01/bin/bin/../../lib/gcc/pic32c/8.3.1/../../../../pic32c/lib/thumb/v7e-m+fp/hard\libc_nano.a(lib_a-writer.o)
 .data          0x00000000        0x0 c:/program files/microchip/xc32/v3.01/bin/bin/../../lib/gcc/pic32c/8.3.1/../../../../pic32c/lib/thumb/v7e-m+fp/hard\libc_nano.a(lib_a-writer.o)
 .bss           0x00000000        0x0 c:/program files/microchip/xc32/v3.01/bin/bin/../../lib/gcc/pic32c/8.3.1/../../../../pic32c/lib/thumb/v7e-m+fp/hard\libc_nano.a(lib_a-writer.o)
 .xc_stack_usage
                0x00000000       0x16 c:/program files/microchip/xc32/v3.01/bin/bin/../../lib/gcc/pic32c/8.3.1/../../../../pic32c/lib/thumb/v7e-m+fp/hard\libc_nano.a(lib_a-writer.o)
 .xc_stack_usage.hdr
                0x00000000        0xe c:/program files/microchip/xc32/v3.01/bin/bin/../../lib/gcc/pic32c/8.3.1/../../../../pic32c/lib/thumb/v7e-m+fp/hard\libc_nano.a(lib_a-writer.o)
 .text          0x00000000        0x0 c:/program files/microchip/xc32/v3.01/bin/bin/../../lib/gcc/pic32c/8.3.1/../../../../pic32c/lib/thumb/v7e-m+fp/hard\libc_nano.a(lib_a-wsetup.o)
 .data          0x00000000        0x0 c:/program files/microchip/xc32/v3.01/bin/bin/../../lib/gcc/pic32c/8.3.1/../../../../pic32c/lib/thumb/v7e-m+fp/hard\libc_nano.a(lib_a-wsetup.o)
 .bss           0x00000000        0x0 c:/program files/microchip/xc32/v3.01/bin/bin/../../lib/gcc/pic32c/8.3.1/../../../../pic32c/lib/thumb/v7e-m+fp/hard\libc_nano.a(lib_a-wsetup.o)
 .xc_stack_usage
                0x00000000       0x19 c:/program files/microchip/xc32/v3.01/bin/bin/../../lib/gcc/pic32c/8.3.1/../../../../pic32c/lib/thumb/v7e-m+fp/hard\libc_nano.a(lib_a-wsetup.o)
 .xc_stack_usage.hdr
                0x00000000        0xe c:/program files/microchip/xc32/v3.01/bin/bin/../../lib/gcc/pic32c/8.3.1/../../../../pic32c/lib/thumb/v7e-m+fp/hard\libc_nano.a(lib_a-wsetup.o)
 .text          0x00000000        0x0 c:/program files/microchip/xc32/v3.01/bin/bin/../../lib/gcc/pic32c/8.3.1/../../../../pic32c/lib/thumb/v7e-m+fp/hard\libc_nano.a(lib_a-closer.o)
 .data          0x00000000        0x0 c:/program files/microchip/xc32/v3.01/bin/bin/../../lib/gcc/pic32c/8.3.1/../../../../pic32c/lib/thumb/v7e-m+fp/hard\libc_nano.a(lib_a-closer.o)
 .bss           0x00000000        0x0 c:/program files/microchip/xc32/v3.01/bin/bin/../../lib/gcc/pic32c/8.3.1/../../../../pic32c/lib/thumb/v7e-m+fp/hard\libc_nano.a(lib_a-closer.o)
 .xc_stack_usage
                0x00000000       0x16 c:/program files/microchip/xc32/v3.01/bin/bin/../../lib/gcc/pic32c/8.3.1/../../../../pic32c/lib/thumb/v7e-m+fp/hard\libc_nano.a(lib_a-closer.o)
 .xc_stack_usage.hdr
                0x00000000        0xe c:/program files/microchip/xc32/v3.01/bin/bin/../../lib/gcc/pic32c/8.3.1/../../../../pic32c/lib/thumb/v7e-m+fp/hard\libc_nano.a(lib_a-closer.o)
 .text          0x00000000        0x0 c:/program files/microchip/xc32/v3.01/bin/bin/../../lib/gcc/pic32c/8.3.1/../../../../pic32c/lib/thumb/v7e-m+fp/hard\libc_nano.a(lib_a-ctype_.o)
 .data          0x00000000        0x0 c:/program files/microchip/xc32/v3.01/bin/bin/../../lib/gcc/pic32c/8.3.1/../../../../pic32c/lib/thumb/v7e-m+fp/hard\libc_nano.a(lib_a-ctype_.o)
 .bss           0x00000000        0x0 c:/program files/microchip/xc32/v3.01/bin/bin/../../lib/gcc/pic32c/8.3.1/../../../../pic32c/lib/thumb/v7e-m+fp/hard\libc_nano.a(lib_a-ctype_.o)
 .xc_stack_usage.hdr
                0x00000000        0xe c:/program files/microchip/xc32/v3.01/bin/bin/../../lib/gcc/pic32c/8.3.1/../../../../pic32c/lib/thumb/v7e-m+fp/hard\libc_nano.a(lib_a-ctype_.o)
 .text          0x00000000        0x0 c:/program files/microchip/xc32/v3.01/bin/bin/../../lib/gcc/pic32c/8.3.1/../../../../pic32c/lib/thumb/v7e-m+fp/hard\libc_nano.a(lib_a-fflush.o)
 .data          0x00000000        0x0 c:/program files/microchip/xc32/v3.01/bin/bin/../../lib/gcc/pic32c/8.3.1/../../../../pic32c/lib/thumb/v7e-m+fp/hard\libc_nano.a(lib_a-fflush.o)
 .bss           0x00000000        0x0 c:/program files/microchip/xc32/v3.01/bin/bin/../../lib/gcc/pic32c/8.3.1/../../../../pic32c/lib/thumb/v7e-m+fp/hard\libc_nano.a(lib_a-fflush.o)
 .xc_stack_usage
                0x00000000       0x43 c:/program files/microchip/xc32/v3.01/bin/bin/../../lib/gcc/pic32c/8.3.1/../../../../pic32c/lib/thumb/v7e-m+fp/hard\libc_nano.a(lib_a-fflush.o)
 .text.fflush   0x00000000       0x24 c:/program files/microchip/xc32/v3.01/bin/bin/../../lib/gcc/pic32c/8.3.1/../../../../pic32c/lib/thumb/v7e-m+fp/hard\libc_nano.a(lib_a-fflush.o)
 .xc_stack_usage.hdr
                0x00000000        0xe c:/program files/microchip/xc32/v3.01/bin/bin/../../lib/gcc/pic32c/8.3.1/../../../../pic32c/lib/thumb/v7e-m+fp/hard\libc_nano.a(lib_a-fflush.o)
 .text          0x00000000        0x0 c:/program files/microchip/xc32/v3.01/bin/bin/../../lib/gcc/pic32c/8.3.1/../../../../pic32c/lib/thumb/v7e-m+fp/hard\libc_nano.a(lib_a-lseekr.o)
 .data          0x00000000        0x0 c:/program files/microchip/xc32/v3.01/bin/bin/../../lib/gcc/pic32c/8.3.1/../../../../pic32c/lib/thumb/v7e-m+fp/hard\libc_nano.a(lib_a-lseekr.o)
 .bss           0x00000000        0x0 c:/program files/microchip/xc32/v3.01/bin/bin/../../lib/gcc/pic32c/8.3.1/../../../../pic32c/lib/thumb/v7e-m+fp/hard\libc_nano.a(lib_a-lseekr.o)
 .xc_stack_usage
                0x00000000       0x16 c:/program files/microchip/xc32/v3.01/bin/bin/../../lib/gcc/pic32c/8.3.1/../../../../pic32c/lib/thumb/v7e-m+fp/hard\libc_nano.a(lib_a-lseekr.o)
 .xc_stack_usage.hdr
                0x00000000        0xe c:/program files/microchip/xc32/v3.01/bin/bin/../../lib/gcc/pic32c/8.3.1/../../../../pic32c/lib/thumb/v7e-m+fp/hard\libc_nano.a(lib_a-lseekr.o)
 .text          0x00000000        0x0 c:/program files/microchip/xc32/v3.01/bin/bin/../../lib/gcc/pic32c/8.3.1/../../../../pic32c/lib/thumb/v7e-m+fp/hard\libc_nano.a(lib_a-makebuf.o)
 .data          0x00000000        0x0 c:/program files/microchip/xc32/v3.01/bin/bin/../../lib/gcc/pic32c/8.3.1/../../../../pic32c/lib/thumb/v7e-m+fp/hard\libc_nano.a(lib_a-makebuf.o)
 .bss           0x00000000        0x0 c:/program files/microchip/xc32/v3.01/bin/bin/../../lib/gcc/pic32c/8.3.1/../../../../pic32c/lib/thumb/v7e-m+fp/hard\libc_nano.a(lib_a-makebuf.o)
 .xc_stack_usage
                0x00000000       0x34 c:/program files/microchip/xc32/v3.01/bin/bin/../../lib/gcc/pic32c/8.3.1/../../../../pic32c/lib/thumb/v7e-m+fp/hard\libc_nano.a(lib_a-makebuf.o)
 .xc_stack_usage.hdr
                0x00000000        0xe c:/program files/microchip/xc32/v3.01/bin/bin/../../lib/gcc/pic32c/8.3.1/../../../../pic32c/lib/thumb/v7e-m+fp/hard\libc_nano.a(lib_a-makebuf.o)
 .text          0x00000000        0x0 c:/program files/microchip/xc32/v3.01/bin/bin/../../lib/gcc/pic32c/8.3.1/../../../../pic32c/lib/thumb/v7e-m+fp/hard\libc_nano.a(lib_a-readr.o)
 .data          0x00000000        0x0 c:/program files/microchip/xc32/v3.01/bin/bin/../../lib/gcc/pic32c/8.3.1/../../../../pic32c/lib/thumb/v7e-m+fp/hard\libc_nano.a(lib_a-readr.o)
 .bss           0x00000000        0x0 c:/program files/microchip/xc32/v3.01/bin/bin/../../lib/gcc/pic32c/8.3.1/../../../../pic32c/lib/thumb/v7e-m+fp/hard\libc_nano.a(lib_a-readr.o)
 .xc_stack_usage
                0x00000000       0x15 c:/program files/microchip/xc32/v3.01/bin/bin/../../lib/gcc/pic32c/8.3.1/../../../../pic32c/lib/thumb/v7e-m+fp/hard\libc_nano.a(lib_a-readr.o)
 .xc_stack_usage.hdr
                0x00000000        0xe c:/program files/microchip/xc32/v3.01/bin/bin/../../lib/gcc/pic32c/8.3.1/../../../../pic32c/lib/thumb/v7e-m+fp/hard\libc_nano.a(lib_a-readr.o)
 .text          0x00000000        0x0 c:/program files/microchip/xc32/v3.01/bin/bin/../../lib/gcc/pic32c/8.3.1/../../../../pic32c/lib/thumb/v7e-m+fp/hard\libc_nano.a(lib_a-fstatr.o)
 .data          0x00000000        0x0 c:/program files/microchip/xc32/v3.01/bin/bin/../../lib/gcc/pic32c/8.3.1/../../../../pic32c/lib/thumb/v7e-m+fp/hard\libc_nano.a(lib_a-fstatr.o)
 .bss           0x00000000        0x0 c:/program files/microchip/xc32/v3.01/bin/bin/../../lib/gcc/pic32c/8.3.1/../../../../pic32c/lib/thumb/v7e-m+fp/hard\libc_nano.a(lib_a-fstatr.o)
 .xc_stack_usage
                0x00000000       0x16 c:/program files/microchip/xc32/v3.01/bin/bin/../../lib/gcc/pic32c/8.3.1/../../../../pic32c/lib/thumb/v7e-m+fp/hard\libc_nano.a(lib_a-fstatr.o)
 .xc_stack_usage.hdr
                0x00000000        0xe c:/program files/microchip/xc32/v3.01/bin/bin/../../lib/gcc/pic32c/8.3.1/../../../../pic32c/lib/thumb/v7e-m+fp/hard\libc_nano.a(lib_a-fstatr.o)
 .text          0x00000000        0x0 c:/program files/microchip/xc32/v3.01/bin/bin/../../lib/gcc/pic32c/8.3.1/../../../../pic32c/lib/thumb/v7e-m+fp/hard\libc_nano.a(lib_a-isattyr.o)
 .data          0x00000000        0x0 c:/program files/microchip/xc32/v3.01/bin/bin/../../lib/gcc/pic32c/8.3.1/../../../../pic32c/lib/thumb/v7e-m+fp/hard\libc_nano.a(lib_a-isattyr.o)
 .bss           0x00000000        0x0 c:/program files/microchip/xc32/v3.01/bin/bin/../../lib/gcc/pic32c/8.3.1/../../../../pic32c/lib/thumb/v7e-m+fp/hard\libc_nano.a(lib_a-isattyr.o)
 .xc_stack_usage
                0x00000000       0x17 c:/program files/microchip/xc32/v3.01/bin/bin/../../lib/gcc/pic32c/8.3.1/../../../../pic32c/lib/thumb/v7e-m+fp/hard\libc_nano.a(lib_a-isattyr.o)
 .xc_stack_usage.hdr
                0x00000000        0xe c:/program files/microchip/xc32/v3.01/bin/bin/../../lib/gcc/pic32c/8.3.1/../../../../pic32c/lib/thumb/v7e-m+fp/hard\libc_nano.a(lib_a-isattyr.o)
 .text          0x00000000        0x0 c:/program files/microchip/xc32/v3.01/bin/bin/../../lib/gcc/pic32c/8.3.1/../../../../pic32c/lib/thumb/v7e-m+fp/hard\libpic32c.a(_close.o)
 .data          0x00000000        0x0 c:/program files/microchip/xc32/v3.01/bin/bin/../../lib/gcc/pic32c/8.3.1/../../../../pic32c/lib/thumb/v7e-m+fp/hard\libpic32c.a(_close.o)
 .bss           0x00000000        0x0 c:/program files/microchip/xc32/v3.01/bin/bin/../../lib/gcc/pic32c/8.3.1/../../../../pic32c/lib/thumb/v7e-m+fp/hard\libpic32c.a(_close.o)
 .xc_stack_usage
                0x00000000       0x14 c:/program files/microchip/xc32/v3.01/bin/bin/../../lib/gcc/pic32c/8.3.1/../../../../pic32c/lib/thumb/v7e-m+fp/hard\libpic32c.a(_close.o)
 .xc_stack_usage.hdr
                0x00000000        0xe c:/program files/microchip/xc32/v3.01/bin/bin/../../lib/gcc/pic32c/8.3.1/../../../../pic32c/lib/thumb/v7e-m+fp/hard\libpic32c.a(_close.o)
 .text          0x00000000        0x0 c:/program files/microchip/xc32/v3.01/bin/bin/../../lib/gcc/pic32c/8.3.1/../../../../pic32c/lib/thumb/v7e-m+fp/hard\libpic32c.a(_fstat.o)
 .data          0x00000000        0x0 c:/program files/microchip/xc32/v3.01/bin/bin/../../lib/gcc/pic32c/8.3.1/../../../../pic32c/lib/thumb/v7e-m+fp/hard\libpic32c.a(_fstat.o)
 .bss           0x00000000        0x0 c:/program files/microchip/xc32/v3.01/bin/bin/../../lib/gcc/pic32c/8.3.1/../../../../pic32c/lib/thumb/v7e-m+fp/hard\libpic32c.a(_fstat.o)
 .xc_stack_usage
                0x00000000       0x14 c:/program files/microchip/xc32/v3.01/bin/bin/../../lib/gcc/pic32c/8.3.1/../../../../pic32c/lib/thumb/v7e-m+fp/hard\libpic32c.a(_fstat.o)
 .xc_stack_usage.hdr
                0x00000000        0xe c:/program files/microchip/xc32/v3.01/bin/bin/../../lib/gcc/pic32c/8.3.1/../../../../pic32c/lib/thumb/v7e-m+fp/hard\libpic32c.a(_fstat.o)
 .text          0x00000000        0x0 c:/program files/microchip/xc32/v3.01/bin/bin/../../lib/gcc/pic32c/8.3.1/../../../../pic32c/lib/thumb/v7e-m+fp/hard\libpic32c.a(_isatty.o)
 .data          0x00000000        0x0 c:/program files/microchip/xc32/v3.01/bin/bin/../../lib/gcc/pic32c/8.3.1/../../../../pic32c/lib/thumb/v7e-m+fp/hard\libpic32c.a(_isatty.o)
 .bss           0x00000000        0x0 c:/program files/microchip/xc32/v3.01/bin/bin/../../lib/gcc/pic32c/8.3.1/../../../../pic32c/lib/thumb/v7e-m+fp/hard\libpic32c.a(_isatty.o)
 .xc_stack_usage
                0x00000000       0x15 c:/program files/microchip/xc32/v3.01/bin/bin/../../lib/gcc/pic32c/8.3.1/../../../../pic32c/lib/thumb/v7e-m+fp/hard\libpic32c.a(_isatty.o)
 .xc_stack_usage.hdr
                0x00000000        0xe c:/program files/microchip/xc32/v3.01/bin/bin/../../lib/gcc/pic32c/8.3.1/../../../../pic32c/lib/thumb/v7e-m+fp/hard\libpic32c.a(_isatty.o)
 .text          0x00000000        0x0 c:/program files/microchip/xc32/v3.01/bin/bin/../../lib/gcc/pic32c/8.3.1/../../../../pic32c/lib/thumb/v7e-m+fp/hard\libpic32c.a(_lseek.o)
 .data          0x00000000        0x0 c:/program files/microchip/xc32/v3.01/bin/bin/../../lib/gcc/pic32c/8.3.1/../../../../pic32c/lib/thumb/v7e-m+fp/hard\libpic32c.a(_lseek.o)
 .bss           0x00000000        0x0 c:/program files/microchip/xc32/v3.01/bin/bin/../../lib/gcc/pic32c/8.3.1/../../../../pic32c/lib/thumb/v7e-m+fp/hard\libpic32c.a(_lseek.o)
 .xc_stack_usage
                0x00000000       0x14 c:/program files/microchip/xc32/v3.01/bin/bin/../../lib/gcc/pic32c/8.3.1/../../../../pic32c/lib/thumb/v7e-m+fp/hard\libpic32c.a(_lseek.o)
 .xc_stack_usage.hdr
                0x00000000        0xe c:/program files/microchip/xc32/v3.01/bin/bin/../../lib/gcc/pic32c/8.3.1/../../../../pic32c/lib/thumb/v7e-m+fp/hard\libpic32c.a(_lseek.o)
 .text          0x00000000        0x0 c:/program files/microchip/xc32/v3.01/bin/bin/../../lib/gcc/pic32c/8.3.1/../../../../pic32c/lib/thumb/v7e-m+fp/hard\libpic32c.a(_read.o)
 .data          0x00000000        0x0 c:/program files/microchip/xc32/v3.01/bin/bin/../../lib/gcc/pic32c/8.3.1/../../../../pic32c/lib/thumb/v7e-m+fp/hard\libpic32c.a(_read.o)
 .bss           0x00000000        0x0 c:/program files/microchip/xc32/v3.01/bin/bin/../../lib/gcc/pic32c/8.3.1/../../../../pic32c/lib/thumb/v7e-m+fp/hard\libpic32c.a(_read.o)
 .xc_stack_usage
                0x00000000       0x13 c:/program files/microchip/xc32/v3.01/bin/bin/../../lib/gcc/pic32c/8.3.1/../../../../pic32c/lib/thumb/v7e-m+fp/hard\libpic32c.a(_read.o)
 .xc_stack_usage.hdr
                0x00000000        0xe c:/program files/microchip/xc32/v3.01/bin/bin/../../lib/gcc/pic32c/8.3.1/../../../../pic32c/lib/thumb/v7e-m+fp/hard\libpic32c.a(_read.o)
 .text          0x00000000        0x0 c:/program files/microchip/xc32/v3.01/bin/bin/../../lib/gcc/pic32c/8.3.1/../../../../pic32c/lib/thumb/v7e-m+fp/hard\libpic32c.a(sbrk.o)
 .data          0x00000000        0x0 c:/program files/microchip/xc32/v3.01/bin/bin/../../lib/gcc/pic32c/8.3.1/../../../../pic32c/lib/thumb/v7e-m+fp/hard\libpic32c.a(sbrk.o)
 .xc_stack_usage
                0x00000000       0x13 c:/program files/microchip/xc32/v3.01/bin/bin/../../lib/gcc/pic32c/8.3.1/../../../../pic32c/lib/thumb/v7e-m+fp/hard\libpic32c.a(sbrk.o)
 .xc_stack_usage.hdr
                0x00000000        0xe c:/program files/microchip/xc32/v3.01/bin/bin/../../lib/gcc/pic32c/8.3.1/../../../../pic32c/lib/thumb/v7e-m+fp/hard\libpic32c.a(sbrk.o)
 .text          0x00000000        0x0 c:/program files/microchip/xc32/v3.01/bin/bin/../../lib/gcc/pic32c/8.3.1/../../../../pic32c/lib/thumb/v7e-m+fp/hard\libpic32c.a(_write.o)
 .data          0x00000000        0x0 c:/program files/microchip/xc32/v3.01/bin/bin/../../lib/gcc/pic32c/8.3.1/../../../../pic32c/lib/thumb/v7e-m+fp/hard\libpic32c.a(_write.o)
 .bss           0x00000000        0x0 c:/program files/microchip/xc32/v3.01/bin/bin/../../lib/gcc/pic32c/8.3.1/../../../../pic32c/lib/thumb/v7e-m+fp/hard\libpic32c.a(_write.o)
 .xc_stack_usage
                0x00000000       0x14 c:/program files/microchip/xc32/v3.01/bin/bin/../../lib/gcc/pic32c/8.3.1/../../../../pic32c/lib/thumb/v7e-m+fp/hard\libpic32c.a(_write.o)
 .xc_stack_usage.hdr
                0x00000000        0xe c:/program files/microchip/xc32/v3.01/bin/bin/../../lib/gcc/pic32c/8.3.1/../../../../pic32c/lib/thumb/v7e-m+fp/hard\libpic32c.a(_write.o)
 .text          0x00000000        0x0 c:/program files/microchip/xc32/v3.01/bin/bin/../../lib/gcc/pic32c/8.3.1/../../../../pic32c/lib/thumb/v7e-m+fp/hard\libpic32c.a(close.o)
 .data          0x00000000        0x0 c:/program files/microchip/xc32/v3.01/bin/bin/../../lib/gcc/pic32c/8.3.1/../../../../pic32c/lib/thumb/v7e-m+fp/hard\libpic32c.a(close.o)
 .bss           0x00000000        0x0 c:/program files/microchip/xc32/v3.01/bin/bin/../../lib/gcc/pic32c/8.3.1/../../../../pic32c/lib/thumb/v7e-m+fp/hard\libpic32c.a(close.o)
 .xc_stack_usage
                0x00000000       0x13 c:/program files/microchip/xc32/v3.01/bin/bin/../../lib/gcc/pic32c/8.3.1/../../../../pic32c/lib/thumb/v7e-m+fp/hard\libpic32c.a(close.o)
 .gnu.warning.closestub
                0x00000000        0x0 c:/program files/microchip/xc32/v3.01/bin/bin/../../lib/gcc/pic32c/8.3.1/../../../../pic32c/lib/thumb/v7e-m+fp/hard\libpic32c.a(close.o)
 .xc_stack_usage.hdr
                0x00000000        0xe c:/program files/microchip/xc32/v3.01/bin/bin/../../lib/gcc/pic32c/8.3.1/../../../../pic32c/lib/thumb/v7e-m+fp/hard\libpic32c.a(close.o)
 .text          0x00000000        0x0 c:/program files/microchip/xc32/v3.01/bin/bin/../../lib/gcc/pic32c/8.3.1/../../../../pic32c/lib/thumb/v7e-m+fp/hard\libpic32c.a(fstat.o)
 .data          0x00000000        0x0 c:/program files/microchip/xc32/v3.01/bin/bin/../../lib/gcc/pic32c/8.3.1/../../../../pic32c/lib/thumb/v7e-m+fp/hard\libpic32c.a(fstat.o)
 .bss           0x00000000        0x0 c:/program files/microchip/xc32/v3.01/bin/bin/../../lib/gcc/pic32c/8.3.1/../../../../pic32c/lib/thumb/v7e-m+fp/hard\libpic32c.a(fstat.o)
 .xc_stack_usage
                0x00000000       0x13 c:/program files/microchip/xc32/v3.01/bin/bin/../../lib/gcc/pic32c/8.3.1/../../../../pic32c/lib/thumb/v7e-m+fp/hard\libpic32c.a(fstat.o)
 .xc_stack_usage.hdr
                0x00000000        0xe c:/program files/microchip/xc32/v3.01/bin/bin/../../lib/gcc/pic32c/8.3.1/../../../../pic32c/lib/thumb/v7e-m+fp/hard\libpic32c.a(fstat.o)
 .text          0x00000000        0x0 c:/program files/microchip/xc32/v3.01/bin/bin/../../lib/gcc/pic32c/8.3.1/../../../../pic32c/lib/thumb/v7e-m+fp/hard\libpic32c.a(isatty.o)
 .data          0x00000000        0x0 c:/program files/microchip/xc32/v3.01/bin/bin/../../lib/gcc/pic32c/8.3.1/../../../../pic32c/lib/thumb/v7e-m+fp/hard\libpic32c.a(isatty.o)
 .bss           0x00000000        0x0 c:/program files/microchip/xc32/v3.01/bin/bin/../../lib/gcc/pic32c/8.3.1/../../../../pic32c/lib/thumb/v7e-m+fp/hard\libpic32c.a(isatty.o)
 .xc_stack_usage
                0x00000000       0x14 c:/program files/microchip/xc32/v3.01/bin/bin/../../lib/gcc/pic32c/8.3.1/../../../../pic32c/lib/thumb/v7e-m+fp/hard\libpic32c.a(isatty.o)
 .xc_stack_usage.hdr
                0x00000000        0xe c:/program files/microchip/xc32/v3.01/bin/bin/../../lib/gcc/pic32c/8.3.1/../../../../pic32c/lib/thumb/v7e-m+fp/hard\libpic32c.a(isatty.o)
 .text          0x00000000        0x0 c:/program files/microchip/xc32/v3.01/bin/bin/../../lib/gcc/pic32c/8.3.1/../../../../pic32c/lib/thumb/v7e-m+fp/hard\libpic32c.a(lseek.o)
 .data          0x00000000        0x0 c:/program files/microchip/xc32/v3.01/bin/bin/../../lib/gcc/pic32c/8.3.1/../../../../pic32c/lib/thumb/v7e-m+fp/hard\libpic32c.a(lseek.o)
 .bss           0x00000000        0x0 c:/program files/microchip/xc32/v3.01/bin/bin/../../lib/gcc/pic32c/8.3.1/../../../../pic32c/lib/thumb/v7e-m+fp/hard\libpic32c.a(lseek.o)
 .xc_stack_usage
                0x00000000       0x13 c:/program files/microchip/xc32/v3.01/bin/bin/../../lib/gcc/pic32c/8.3.1/../../../../pic32c/lib/thumb/v7e-m+fp/hard\libpic32c.a(lseek.o)
 .xc_stack_usage.hdr
                0x00000000        0xe c:/program files/microchip/xc32/v3.01/bin/bin/../../lib/gcc/pic32c/8.3.1/../../../../pic32c/lib/thumb/v7e-m+fp/hard\libpic32c.a(lseek.o)
 .text          0x00000000        0x0 c:/program files/microchip/xc32/v3.01/bin/bin/../../lib/gcc/pic32c/8.3.1/../../../../pic32c/lib/thumb/v7e-m+fp/hard\libpic32c.a(read.o)
 .data          0x00000000        0x0 c:/program files/microchip/xc32/v3.01/bin/bin/../../lib/gcc/pic32c/8.3.1/../../../../pic32c/lib/thumb/v7e-m+fp/hard\libpic32c.a(read.o)
 .bss           0x00000000        0x0 c:/program files/microchip/xc32/v3.01/bin/bin/../../lib/gcc/pic32c/8.3.1/../../../../pic32c/lib/thumb/v7e-m+fp/hard\libpic32c.a(read.o)
 .xc_stack_usage
                0x00000000       0x12 c:/program files/microchip/xc32/v3.01/bin/bin/../../lib/gcc/pic32c/8.3.1/../../../../pic32c/lib/thumb/v7e-m+fp/hard\libpic32c.a(read.o)
 .xc_stack_usage.hdr
                0x00000000        0xe c:/program files/microchip/xc32/v3.01/bin/bin/../../lib/gcc/pic32c/8.3.1/../../../../pic32c/lib/thumb/v7e-m+fp/hard\libpic32c.a(read.o)
 .text          0x00000000        0x0 c:/program files/microchip/xc32/v3.01/bin/bin/../../lib/gcc/pic32c/8.3.1/../../../../pic32c/lib/thumb/v7e-m+fp/hard\libpic32c.a(write.o)
 .data          0x00000000        0x0 c:/program files/microchip/xc32/v3.01/bin/bin/../../lib/gcc/pic32c/8.3.1/../../../../pic32c/lib/thumb/v7e-m+fp/hard\libpic32c.a(write.o)
 .bss           0x00000000        0x0 c:/program files/microchip/xc32/v3.01/bin/bin/../../lib/gcc/pic32c/8.3.1/../../../../pic32c/lib/thumb/v7e-m+fp/hard\libpic32c.a(write.o)
 .xc_stack_usage
                0x00000000       0x13 c:/program files/microchip/xc32/v3.01/bin/bin/../../lib/gcc/pic32c/8.3.1/../../../../pic32c/lib/thumb/v7e-m+fp/hard\libpic32c.a(write.o)
 .xc_stack_usage.hdr
                0x00000000        0xe c:/program files/microchip/xc32/v3.01/bin/bin/../../lib/gcc/pic32c/8.3.1/../../../../pic32c/lib/thumb/v7e-m+fp/hard\libpic32c.a(write.o)
 .text          0x00000000        0x0 c:/program files/microchip/xc32/v3.01/bin/bin/../../lib/gcc/pic32c/8.3.1/thumb/v7e-m+fp/hard/crtend.o
 .data          0x00000000        0x0 c:/program files/microchip/xc32/v3.01/bin/bin/../../lib/gcc/pic32c/8.3.1/thumb/v7e-m+fp/hard/crtend.o
 .bss           0x00000000        0x0 c:/program files/microchip/xc32/v3.01/bin/bin/../../lib/gcc/pic32c/8.3.1/thumb/v7e-m+fp/hard/crtend.o
 .eh_frame      0x00000000        0x4 c:/program files/microchip/xc32/v3.01/bin/bin/../../lib/gcc/pic32c/8.3.1/thumb/v7e-m+fp/hard/crtend.o
 .xc_stack_usage.hdr
                0x00000000        0xe c:/program files/microchip/xc32/v3.01/bin/bin/../../lib/gcc/pic32c/8.3.1/thumb/v7e-m+fp/hard/crtend.o
 .comment       0x00000000       0x54 c:/program files/microchip/xc32/v3.01/bin/bin/../../lib/gcc/pic32c/8.3.1/thumb/v7e-m+fp/hard/crtend.o
 .ARM.attributes
                0x00000000       0x32 c:/program files/microchip/xc32/v3.01/bin/bin/../../lib/gcc/pic32c/8.3.1/thumb/v7e-m+fp/hard/crtend.o
 .text          0x00000000        0x0 c:/program files/microchip/xc32/v3.01/bin/bin/../../lib/gcc/pic32c/8.3.1/thumb/v7e-m+fp/hard/crtn.o
 .data          0x00000000        0x0 c:/program files/microchip/xc32/v3.01/bin/bin/../../lib/gcc/pic32c/8.3.1/thumb/v7e-m+fp/hard/crtn.o
 .bss           0x00000000        0x0 c:/program files/microchip/xc32/v3.01/bin/bin/../../lib/gcc/pic32c/8.3.1/thumb/v7e-m+fp/hard/crtn.o
 .xc_stack_usage.hdr
                0x00000000        0xe c:/program files/microchip/xc32/v3.01/bin/bin/../../lib/gcc/pic32c/8.3.1/thumb/v7e-m+fp/hard/crtn.o

Memory Configuration

Name             Origin             Length             Attributes
rom              0x00000000         0x00100000         xrl
ram              0x20000000         0x00040000         xw !r
tcm              0x03000000         0x00000000         xw
config_D0800080  0xd0800080         0x00000004
config_D0800100  0xd0800100         0x00000004
config_D0800084  0xd0800084         0x00000004
config_D0804000  0xd0804000         0x00000004
config_D0800108  0xd0800108         0x00000004
config_D0804008  0xd0804008         0x00000004
config_D0800104  0xd0800104         0x00000004
config_D0804004  0xd0804004         0x00000004
*default*        0x00000000         0xffffffff

Linker script and memory map

LOAD c:/program files/microchip/xc32/v3.01/bin/bin/../../lib/gcc/pic32c/8.3.1/thumb/v7e-m+fp/hard/crti.o
LOAD c:/program files/microchip/xc32/v3.01/bin/bin/../../lib/gcc/pic32c/8.3.1/thumb/v7e-m+fp/hard/crtbegin.o
LOAD build/LAN9255_SQI_DIRECT_MODE/production/_ext/1984496892/plib_clock.o
LOAD build/LAN9255_SQI_DIRECT_MODE/production/_ext/1865131932/plib_cmcc.o
LOAD build/LAN9255_SQI_DIRECT_MODE/production/_ext/60167341/plib_eic.o
LOAD build/LAN9255_SQI_DIRECT_MODE/production/_ext/1986646378/plib_evsys.o
LOAD build/LAN9255_SQI_DIRECT_MODE/production/_ext/1865468468/plib_nvic.o
LOAD build/LAN9255_SQI_DIRECT_MODE/production/_ext/1593096446/plib_nvmctrl.o
LOAD build/LAN9255_SQI_DIRECT_MODE/production/_ext/1865488526/oledc_driver.o
LOAD build/LAN9255_SQI_DIRECT_MODE/production/_ext/1865521619/plib_port.o
LOAD build/LAN9255_SQI_DIRECT_MODE/production/_ext/1865555181/plib_qspi.o
LOAD build/LAN9255_SQI_DIRECT_MODE/production/_ext/1865555181/plib_qspi_spi.o
LOAD build/LAN9255_SQI_DIRECT_MODE/production/_ext/17022449/plib_sercom4_spi_master.o
LOAD build/LAN9255_SQI_DIRECT_MODE/production/_ext/504274921/plib_sercom0_usart.o
LOAD build/LAN9255_SQI_DIRECT_MODE/production/_ext/1827571544/plib_systick.o
LOAD build/LAN9255_SQI_DIRECT_MODE/production/_ext/163028504/xc32_monitor.o
LOAD build/LAN9255_SQI_DIRECT_MODE/production/_ext/1881668453/sys_int.o
LOAD build/LAN9255_SQI_DIRECT_MODE/production/_ext/1171490990/exceptions.o
LOAD build/LAN9255_SQI_DIRECT_MODE/production/_ext/1171490990/initialization.o
LOAD build/LAN9255_SQI_DIRECT_MODE/production/_ext/1171490990/interrupts.o
LOAD build/LAN9255_SQI_DIRECT_MODE/production/_ext/1171490990/libc_syscalls.o
LOAD build/LAN9255_SQI_DIRECT_MODE/production/_ext/1171490990/startup_xc32.o
LOAD build/LAN9255_SQI_DIRECT_MODE/production/_ext/1171490990/tasks.o
LOAD build/LAN9255_SQI_DIRECT_MODE/production/_ext/1671622016/Drivers.o
LOAD build/LAN9255_SQI_DIRECT_MODE/production/_ext/108147519/ESC_Utils.o
LOAD build/LAN9255_SQI_DIRECT_MODE/production/_ext/108147519/LAN925x.o
LOAD build/LAN9255_SQI_DIRECT_MODE/production/_ext/108134065/bootmode.o
LOAD build/LAN9255_SQI_DIRECT_MODE/production/_ext/108134065/coeappl.o
LOAD build/LAN9255_SQI_DIRECT_MODE/production/_ext/108134065/ecatappl.o
LOAD build/LAN9255_SQI_DIRECT_MODE/production/_ext/108134065/ecatcoe.o
LOAD build/LAN9255_SQI_DIRECT_MODE/production/_ext/108134065/ecatfoe.o
LOAD build/LAN9255_SQI_DIRECT_MODE/production/_ext/108134065/ecatslv.o
LOAD build/LAN9255_SQI_DIRECT_MODE/production/_ext/108134065/emcy.o
LOAD build/LAN9255_SQI_DIRECT_MODE/production/_ext/108134065/foeappl.o
LOAD build/LAN9255_SQI_DIRECT_MODE/production/_ext/108134065/mailbox.o
LOAD build/LAN9255_SQI_DIRECT_MODE/production/_ext/108134065/objdef.o
LOAD build/LAN9255_SQI_DIRECT_MODE/production/_ext/108134065/sample_app.o
LOAD build/LAN9255_SQI_DIRECT_MODE/production/_ext/108134065/sdoserv.o
LOAD build/LAN9255_SQI_DIRECT_MODE/production/_ext/1360937237/main.o
LOAD build/LAN9255_SQI_DIRECT_MODE/production/_ext/1360937237/app.o
LOAD build/LAN9255_SQI_DIRECT_MODE/production/_ext/1360937237/Developer_Test.o
                0x00000001                __MPLAB_BUILD = 0x1
                0x00000800                _min_heap_size = 0x800
START GROUP
LOAD c:/program files/microchip/xc32/v3.01/bin/bin/../../lib/gcc/pic32c/8.3.1/../../../../pic32c/lib/thumb/v7e-m+fp/hard\libpic32c.a
LOAD c:/program files/microchip/xc32/v3.01/bin/bin/../../lib/gcc/pic32c/8.3.1/thumb/v7e-m+fp/hard\libgcc.a
LOAD c:/program files/microchip/xc32/v3.01/bin/bin/../../lib/gcc/pic32c/8.3.1/../../../../pic32c/lib/thumb/v7e-m+fp/hard\libm_nano.a
LOAD c:/program files/microchip/xc32/v3.01/bin/bin/../../lib/gcc/pic32c/8.3.1/../../../../pic32c/lib/thumb/v7e-m+fp/hard\libc_nano.a
END GROUP
LOAD c:/program files/microchip/xc32/v3.01/bin/bin/../../lib/gcc/pic32c/8.3.1/thumb/v7e-m+fp/hard/crtend.o
LOAD c:/program files/microchip/xc32/v3.01/bin/bin/../../lib/gcc/pic32c/8.3.1/thumb/v7e-m+fp/hard/crtn.o
                0x00100000                __rom_end = (ORIGIN (rom) + LENGTH (rom))
                0x20040000                __ram_end = (ORIGIN (ram) + LENGTH (ram))

.config_D0800080
 *(.config_D0800080)

.config_D0800100
 *(.config_D0800100)

.config_D0800084
 *(.config_D0800084)

.config_D0804000
 *(.config_D0804000)

.config_D0800108
 *(.config_D0800108)

.config_D0804008
 *(.config_D0804008)

.config_D0800104
 *(.config_D0800104)

.config_D0804004
 *(.config_D0804004)

.vectors        0x00000000      0x260
                0x00000000                . = ALIGN (0x4)
                0x00000000                _sfixed = .
 *(.vectors .vectors.* .vectors_default .vectors_default.*)
 .vectors       0x00000000      0x260 build/LAN9255_SQI_DIRECT_MODE/production/_ext/1171490990/interrupts.o
                0x00000000                exception_table
 *(.isr_vector)
 *(.reset*)
 *(.after_vectors)

.text           0x00000260       0x20
                0x00000260                . = ALIGN (0x4)
 *(.glue_7t)
 .glue_7t       0x00000260        0x0 linker stubs
 *(.glue_7)
 .glue_7        0x00000260        0x0 linker stubs
 *(.gnu.linkonce.r.*)
 *(.ARM.extab* .gnu.linkonce.armextab.*)
                0x00000260                . = ALIGN (0x4)
 *(.init)
 .init          0x00000260        0x4 c:/program files/microchip/xc32/v3.01/bin/bin/../../lib/gcc/pic32c/8.3.1/thumb/v7e-m+fp/hard/crti.o
                0x00000260                _init
 .init          0x00000264        0x8 c:/program files/microchip/xc32/v3.01/bin/bin/../../lib/gcc/pic32c/8.3.1/thumb/v7e-m+fp/hard/crtn.o
                0x0000026c                . = ALIGN (0x4)
                0x0000026c                __preinit_array_start = .
 *(.preinit_array)
                0x0000026c                __preinit_array_end = .
                0x0000026c                . = ALIGN (0x4)
                0x0000026c                __init_array_start = .
 *(SORT_BY_NAME(.init_array.*))
 *(.init_array)
 .init_array    0x0000026c        0x4 c:/program files/microchip/xc32/v3.01/bin/bin/../../lib/gcc/pic32c/8.3.1/thumb/v7e-m+fp/hard/crtbegin.o
                0x00000270                __init_array_end = .
                0x00000270                . = ALIGN (0x4)
 *crtbegin.o(.ctors)
 *(EXCLUDE_FILE(*crtend.o) .ctors)
 *(SORT_BY_NAME(.ctors.*))
 *crtend.o(.ctors)
                0x00000270                . = ALIGN (0x4)
 *(.fini)
 .fini          0x00000270        0x4 c:/program files/microchip/xc32/v3.01/bin/bin/../../lib/gcc/pic32c/8.3.1/thumb/v7e-m+fp/hard/crti.o
                0x00000270                _fini
 .fini          0x00000274        0x8 c:/program files/microchip/xc32/v3.01/bin/bin/../../lib/gcc/pic32c/8.3.1/thumb/v7e-m+fp/hard/crtn.o
                0x0000027c                . = ALIGN (0x4)
                0x0000027c                __fini_array_start = .
 *(.fini_array)
 .fini_array    0x0000027c        0x4 c:/program files/microchip/xc32/v3.01/bin/bin/../../lib/gcc/pic32c/8.3.1/thumb/v7e-m+fp/hard/crtbegin.o
 *(SORT_BY_NAME(.fini_array.*))
                0x00000280                __fini_array_end = .
 *crtbegin.o(.dtors)
 *(EXCLUDE_FILE(*crtend.o) .dtors)
 *(SORT_BY_NAME(.dtors.*))
 *crtend.o(.dtors)
                0x00000280                . = ALIGN (0x4)
                0x00000280                _efixed = .
                [!provide]                PROVIDE (__exidx_start = .)

.ARM.exidx      0x00000280        0x8
 *(.ARM.exidx* .gnu.linkonce.armexidx.*)
 .ARM.exidx     0x00000280        0x8 c:/program files/microchip/xc32/v3.01/bin/bin/../../lib/gcc/pic32c/8.3.1/thumb/v7e-m+fp/hard\libgcc.a(_udivmoddi4.o)
                [!provide]                PROVIDE (__exidx_end = .)
                0x00000288                . = ALIGN (0x4)
                0x00000288                _etext = .

.bss            0x20000000     0x243c
                0x20000000                . = ALIGN (0x4)
                0x20000000                __bss_start__ = .
                0x20000000                _sbss = .
                0x20000000                _szero = .
 *(COMMON)
 COMMON         0x20000000       0xc0 build/LAN9255_SQI_DIRECT_MODE/production/_ext/60167341/plib_eic.o
                0x20000000                eicCallbackObject
 COMMON         0x200000c0       0x2c build/LAN9255_SQI_DIRECT_MODE/production/_ext/17022449/plib_sercom4_spi_master.o
                0x200000c0                sercom4SPIObj
 COMMON         0x200000ec       0x30 build/LAN9255_SQI_DIRECT_MODE/production/_ext/504274921/plib_sercom0_usart.o
                0x200000ec                sercom0USARTObj
 COMMON         0x2000011c        0xc build/LAN9255_SQI_DIRECT_MODE/production/_ext/1827571544/plib_systick.o
                0x2000011c                systick
 COMMON         0x20000128        0x8 build/LAN9255_SQI_DIRECT_MODE/production/_ext/108134065/coeappl.o
                0x20000128                u32LastDc32Value
                0x2000012c                u32CheckForDcOverrunCnt
 COMMON         0x20000130       0xe0 build/LAN9255_SQI_DIRECT_MODE/production/_ext/108134065/ecatappl.o
                0x20000130                pAPPL_EEPROM_Store
                0x20000134                bMinCycleTimeMeasurementStarted
                0x20000138                u32CycleTimeStartValue
                0x2000013c                pAPPL_EEPROM_Read
                0x20000140                pAPPL_EEPROM_Write
                0x20000144                bRunApplication
                0x20000148                u32SystemTimeReadFailure
                0x2000014c                bEcatWaitForInputUpdate
                0x20000150                u32MinCycleTimeValue
                0x20000154                aPdOutputData
                0x20000198                pAPPL_FoeError
                0x2000019c                u16EepromStoreTimeoutCounter
                0x2000019e                EepromReadSize
                0x200001a0                pAPPL_FoeReadData
                0x200001a4                pAPPL_MainLoop
                0x200001a8                bEtherCATErrorLed
                0x200001ac                u32MinCycleTimeStartValue
                0x200001b0                aPdInputData
                0x200001f4                pEEPROM
                0x200001f8                bEtherCATRunLed
                0x200001fc                pAPPL_FoeWriteData
                0x20000200                pAPPL_EEPROM_Reload
                0x20000204                pAPPL_FoeRead
                0x20000208                u16EepromStoreTimeoutValue
                0x2000020c                pAPPL_FoeWrite
 COMMON         0x20000210        0x4 build/LAN9255_SQI_DIRECT_MODE/production/_ext/108134065/ecatcoe.o
                0x20000210                pCoeSendStored
 COMMON         0x20000214       0x16 build/LAN9255_SQI_DIRECT_MODE/production/_ext/108134065/ecatfoe.o
                0x20000214                u32FileOffset
                0x20000218                u16FileAccessState
                0x2000021c                u32PacketNo
                0x20000220                pFoeSendStored
                0x20000224                u32LastFileOffset
                0x20000228                u16FoeMaxSendBlockSize
 *fill*         0x2000022a        0x2 
 COMMON         0x2000022c       0x52 build/LAN9255_SQI_DIRECT_MODE/production/_ext/108134065/ecatslv.o
                0x2000022c                b3BufferMode
                0x2000022e                nEcatStateTrans
                0x20000230                EcatWdCounter
                0x20000232                bApplEsmPending
                0x20000233                nAlStatus
                0x20000234                nPdOutputSize
                0x20000236                u16LocalErrorCode
                0x20000238                Sync0WdCounter
                0x2000023a                bLocalErrorFlag
                0x2000023c                LatchInputSync0Counter
                0x2000023e                i16WaitForPllRunningCnt
                0x20000240                nEscAddrOutputData
                0x20000242                Sync0WdValue
                0x20000244                u8EcatRunLed
                0x20000246                i16WaitForPllRunningTimeout
                0x20000248                Sync1WdValue
                0x2000024a                u16ALEventMask
                0x2000024c                bDcRunning
                0x20000250                u32dummy
                0x20000254                SyncManInfo
                0x2000025c                b32BitDc
                0x2000025e                LatchInputSync0Value
                0x20000260                bEcatWaitForAlControlRes
                0x20000262                nPdInputSize
                0x20000264                u16SmSync0Value
                0x20000266                nMaxEscAddress
                0x20000268                bEcatFirstOutputsReceived
                0x20000269                bSmSyncSequenceValid
                0x2000026a                EsmTimeoutCounter
                0x2000026c                bBootMode
                0x2000026d                bDcSyncActive
                0x2000026e                bEcatOutputUpdateRunning
                0x20000270                Sync1WdCounter
                0x20000272                EcatWdValue
                0x20000274                bEcatInputUpdateRunning
                0x20000275                bEscIntEnabled
                0x20000276                bWdTrigger
                0x20000278                u16SmSync0Counter
                0x2000027a                nMaxSyncMan
                0x2000027b                u8EcatErrorLed
                0x2000027c                nEscAddrInputData
 *fill*         0x2000027e        0x2 
 COMMON         0x20000280       0x28 build/LAN9255_SQI_DIRECT_MODE/production/_ext/108134065/emcy.o
                0x20000280                sSendEmcyQueue
                0x20000290                asEmcy
                0x20000298                sEmptyEmcyQueue
 COMMON         0x200002a8       0x94 build/LAN9255_SQI_DIRECT_MODE/production/_ext/108134065/mailbox.o
                0x200002a8                u8MbxReadCounter
                0x200002ac                sMbxSendQueue
                0x200002e0                sMbxReceiveQueue
                0x20000314                bNoMbxMemoryAvailable
                0x20000315                bSendMbxIsFull
                0x20000316                bMbxRunning
                0x20000318                u16EscAddrReceiveMbx
                0x2000031c                psStoreMbx
                0x20000320                u16SendMbxSize
                0x20000324                psReadMbx
                0x20000328                bReceiveMbxIsLocked
                0x2000032a                u16EscAddrSendMbx
                0x2000032c                psWriteMbx
                0x20000330                u8MbxWriteCounter
                0x20000331                u8MailboxSendReqStored
                0x20000332                u16ReceiveMbxSize
                0x20000334                bMbxRepeatToggle
                0x20000338                psRepeatMbx
 COMMON         0x2000033c       0x8e build/LAN9255_SQI_DIRECT_MODE/production/_ext/108134065/objdef.o
                0x2000033c                sSyncManInPar
                0x20000380                sSyncManOutPar
                0x200003c4                bSyncSetByUser
                0x200003c8                sCycleDiag
 *fill*         0x200003ca        0x2 
 COMMON         0x200003cc     0x2016 build/LAN9255_SQI_DIRECT_MODE/production/_ext/108134065/sample_app.o
                0x200003cc                aFileData
                0x200023cc                aFileName
 *fill*         0x200023e2        0x2 
 COMMON         0x200023e4       0x4d build/LAN9255_SQI_DIRECT_MODE/production/_ext/108134065/sdoserv.o
                0x200023e4                nSdoInfoIndex
                0x200023e8                pStoreData
                0x200023ec                nSdoSegBytesToHandle
                0x200023f0                bSdoSegAccess
                0x200023f1                bSdoSegFollows
                0x200023f4                nSdoSegCompleteSize
                0x200023f8                pSdoPendFunc
                0x200023fc                u8PendingSdo
                0x200023fd                bStoreCompleteAccess
                0x200023fe                bSdoSegLastToggle
                0x200023ff                nSdoSegService
                0x20002400                pSdoInfoObjEntry
                0x20002404                nSdoInfoFragmentsLeft
                0x20002408                pSdoResStored
                0x2000240c                u32StoreDataSize
                0x20002410                pSdoSegData
                0x20002414                nSdoSegIndex
                0x20002418                aSdoInfoHeader
                0x20002428                pSdoSegObjEntry
                0x2000242c                nSdoSegSubindex
                0x2000242e                u16StoreIndex
                0x20002430                u8StoreSubindex
 *fill*         0x20002431        0x3 
 COMMON         0x20002434        0x2 build/LAN9255_SQI_DIRECT_MODE/production/_ext/1360937237/app.o
                0x20002434                appData
                0x20002435                u8readData
 *fill*         0x20002436        0x2 
 COMMON         0x20002438        0x4 c:/program files/microchip/xc32/v3.01/bin/bin/../../lib/gcc/pic32c/8.3.1/../../../../pic32c/lib/thumb/v7e-m+fp/hard\libc_nano.a(lib_a-reent.o)
                0x20002438                errno
                0x2000243c                . = ALIGN (0x4)
                0x2000243c                __bss_end__ = .
                0x2000243c                _ebss = .
                0x2000243c                _ezero = .
                0x2000243c                . = ALIGN (0x4)
                0x2000243c                _end = .
                0x2003ffff                _ram_end_ = ((ORIGIN (ram) + LENGTH (ram)) - 0x1)
OUTPUT(dist/LAN9255_SQI_DIRECT_MODE/production/EVB_LAN9255_Counter_FoE.X.production.elf elf32-littlearm)
LOAD stack
LOAD data_init

.ARM.attributes
                0x00000000       0x30
 .ARM.attributes
                0x00000000       0x1e c:/program files/microchip/xc32/v3.01/bin/bin/../../lib/gcc/pic32c/8.3.1/thumb/v7e-m+fp/hard/crti.o
 .ARM.attributes
                0x0000001e       0x34 c:/program files/microchip/xc32/v3.01/bin/bin/../../lib/gcc/pic32c/8.3.1/thumb/v7e-m+fp/hard/crtbegin.o
 .ARM.attributes
                0x00000052       0x34 build/LAN9255_SQI_DIRECT_MODE/production/_ext/1984496892/plib_clock.o
 .ARM.attributes
                0x00000086       0x34 build/LAN9255_SQI_DIRECT_MODE/production/_ext/60167341/plib_eic.o
 .ARM.attributes
                0x000000ba       0x34 build/LAN9255_SQI_DIRECT_MODE/production/_ext/1986646378/plib_evsys.o
 .ARM.attributes
                0x000000ee       0x34 build/LAN9255_SQI_DIRECT_MODE/production/_ext/1865468468/plib_nvic.o
 .ARM.attributes
                0x00000122       0x34 build/LAN9255_SQI_DIRECT_MODE/production/_ext/1593096446/plib_nvmctrl.o
 .ARM.attributes
                0x00000156       0x34 build/LAN9255_SQI_DIRECT_MODE/production/_ext/1865488526/oledc_driver.o
 .ARM.attributes
                0x0000018a       0x34 build/LAN9255_SQI_DIRECT_MODE/production/_ext/1865521619/plib_port.o
 .ARM.attributes
                0x000001be       0x34 build/LAN9255_SQI_DIRECT_MODE/production/_ext/1865555181/plib_qspi.o
 .ARM.attributes
                0x000001f2       0x34 build/LAN9255_SQI_DIRECT_MODE/production/_ext/17022449/plib_sercom4_spi_master.o
 .ARM.attributes
                0x00000226       0x34 build/LAN9255_SQI_DIRECT_MODE/production/_ext/504274921/plib_sercom0_usart.o
 .ARM.attributes
                0x0000025a       0x34 build/LAN9255_SQI_DIRECT_MODE/production/_ext/1827571544/plib_systick.o
 .ARM.attributes
                0x0000028e       0x34 build/LAN9255_SQI_DIRECT_MODE/production/_ext/163028504/xc32_monitor.o
 .ARM.attributes
                0x000002c2       0x34 build/LAN9255_SQI_DIRECT_MODE/production/_ext/1171490990/exceptions.o
 .ARM.attributes
                0x000002f6       0x34 build/LAN9255_SQI_DIRECT_MODE/production/_ext/1171490990/initialization.o
 .ARM.attributes
                0x0000032a       0x34 build/LAN9255_SQI_DIRECT_MODE/production/_ext/1171490990/interrupts.o
 .ARM.attributes
                0x0000035e       0x34 build/LAN9255_SQI_DIRECT_MODE/production/_ext/1171490990/startup_xc32.o
 .ARM.attributes
                0x00000392       0x34 build/LAN9255_SQI_DIRECT_MODE/production/_ext/1171490990/tasks.o
 .ARM.attributes
                0x000003c6       0x34 build/LAN9255_SQI_DIRECT_MODE/production/_ext/1671622016/Drivers.o
 .ARM.attributes
                0x000003fa       0x34 build/LAN9255_SQI_DIRECT_MODE/production/_ext/108147519/ESC_Utils.o
 .ARM.attributes
                0x0000042e       0x34 build/LAN9255_SQI_DIRECT_MODE/production/_ext/108147519/LAN925x.o
 .ARM.attributes
                0x00000462       0x34 build/LAN9255_SQI_DIRECT_MODE/production/_ext/108134065/bootmode.o
 .ARM.attributes
                0x00000496       0x34 build/LAN9255_SQI_DIRECT_MODE/production/_ext/108134065/coeappl.o
 .ARM.attributes
                0x000004ca       0x34 build/LAN9255_SQI_DIRECT_MODE/production/_ext/108134065/ecatappl.o
 .ARM.attributes
                0x000004fe       0x34 build/LAN9255_SQI_DIRECT_MODE/production/_ext/108134065/ecatcoe.o
 .ARM.attributes
                0x00000532       0x34 build/LAN9255_SQI_DIRECT_MODE/production/_ext/108134065/ecatfoe.o
 .ARM.attributes
                0x00000566       0x34 build/LAN9255_SQI_DIRECT_MODE/production/_ext/108134065/ecatslv.o
 .ARM.attributes
                0x0000059a       0x34 build/LAN9255_SQI_DIRECT_MODE/production/_ext/108134065/emcy.o
 .ARM.attributes
                0x000005ce       0x34 build/LAN9255_SQI_DIRECT_MODE/production/_ext/108134065/foeappl.o
 .ARM.attributes
                0x00000602       0x34 build/LAN9255_SQI_DIRECT_MODE/production/_ext/108134065/mailbox.o
 .ARM.attributes
                0x00000636       0x34 build/LAN9255_SQI_DIRECT_MODE/production/_ext/108134065/objdef.o
 .ARM.attributes
                0x0000066a       0x34 build/LAN9255_SQI_DIRECT_MODE/production/_ext/108134065/sample_app.o
 .ARM.attributes
                0x0000069e       0x34 build/LAN9255_SQI_DIRECT_MODE/production/_ext/108134065/sdoserv.o
 .ARM.attributes
                0x000006d2       0x34 build/LAN9255_SQI_DIRECT_MODE/production/_ext/1360937237/main.o
 .ARM.attributes
                0x00000706       0x34 build/LAN9255_SQI_DIRECT_MODE/production/_ext/1360937237/app.o
 .ARM.attributes
                0x0000073a       0x34 c:/program files/microchip/xc32/v3.01/bin/bin/../../lib/gcc/pic32c/8.3.1/../../../../pic32c/lib/thumb/v7e-m+fp/hard\libpic32c.a(data_init.o)
 .ARM.attributes
                0x0000076e       0x1e c:/program files/microchip/xc32/v3.01/bin/bin/../../lib/gcc/pic32c/8.3.1/thumb/v7e-m+fp/hard\libgcc.a(_aeabi_uldivmod.o)
 .ARM.attributes
                0x0000078c       0x34 c:/program files/microchip/xc32/v3.01/bin/bin/../../lib/gcc/pic32c/8.3.1/thumb/v7e-m+fp/hard\libgcc.a(_udivmoddi4.o)
 .ARM.attributes
                0x000007c0       0x1e c:/program files/microchip/xc32/v3.01/bin/bin/../../lib/gcc/pic32c/8.3.1/thumb/v7e-m+fp/hard\libgcc.a(_dvmd_tls.o)
 .ARM.attributes
                0x000007de       0x34 c:/program files/microchip/xc32/v3.01/bin/bin/../../lib/gcc/pic32c/8.3.1/../../../../pic32c/lib/thumb/v7e-m+fp/hard\libc_nano.a(_lib_a-sprintf.cdnopuxX.o)
 .ARM.attributes
                0x00000812       0x34 c:/program files/microchip/xc32/v3.01/bin/bin/../../lib/gcc/pic32c/8.3.1/../../../../pic32c/lib/thumb/v7e-m+fp/hard\libc_nano.a(lib_a-init.o)
 .ARM.attributes
                0x00000846       0x34 c:/program files/microchip/xc32/v3.01/bin/bin/../../lib/gcc/pic32c/8.3.1/../../../../pic32c/lib/thumb/v7e-m+fp/hard\libc_nano.a(lib_a-malloc.o)
 .ARM.attributes
                0x0000087a       0x34 c:/program files/microchip/xc32/v3.01/bin/bin/../../lib/gcc/pic32c/8.3.1/../../../../pic32c/lib/thumb/v7e-m+fp/hard\libc_nano.a(lib_a-memcpy-stub.o)
 .ARM.attributes
                0x000008ae       0x34 c:/program files/microchip/xc32/v3.01/bin/bin/../../lib/gcc/pic32c/8.3.1/../../../../pic32c/lib/thumb/v7e-m+fp/hard\libc_nano.a(lib_a-memset.o)
 .ARM.attributes
                0x000008e2       0x34 c:/program files/microchip/xc32/v3.01/bin/bin/../../lib/gcc/pic32c/8.3.1/../../../../pic32c/lib/thumb/v7e-m+fp/hard\libc_nano.a(lib_a-nano-freer.o)
 .ARM.attributes
                0x00000916       0x34 c:/program files/microchip/xc32/v3.01/bin/bin/../../lib/gcc/pic32c/8.3.1/../../../../pic32c/lib/thumb/v7e-m+fp/hard\libc_nano.a(lib_a-nano-mallocr.o)
 .ARM.attributes
                0x0000094a       0x34 c:/program files/microchip/xc32/v3.01/bin/bin/../../lib/gcc/pic32c/8.3.1/../../../../pic32c/lib/thumb/v7e-m+fp/hard\libc_nano.a(lib_a-sbrkr.o)
 .ARM.attributes
                0x0000097e       0x17 c:/program files/microchip/xc32/v3.01/bin/bin/../../lib/gcc/pic32c/8.3.1/../../../../pic32c/lib/thumb/v7e-m+fp/hard\libc_nano.a(lib_a-strlen.o)
 .ARM.attributes
                0x00000995       0x34 c:/program files/microchip/xc32/v3.01/bin/bin/../../lib/gcc/pic32c/8.3.1/../../../../pic32c/lib/thumb/v7e-m+fp/hard\libc_nano.a(_lib_a-nano-vfprintf.cdnopuxX.o)
 .ARM.attributes
                0x000009c9       0x34 c:/program files/microchip/xc32/v3.01/bin/bin/../../lib/gcc/pic32c/8.3.1/../../../../pic32c/lib/thumb/v7e-m+fp/hard\libc_nano.a(lib_a-__ssfputs.o)
 .ARM.attributes
                0x000009fd       0x34 c:/program files/microchip/xc32/v3.01/bin/bin/../../lib/gcc/pic32c/8.3.1/../../../../pic32c/lib/thumb/v7e-m+fp/hard\libc_nano.a(lib_a-findfp.o)
 .ARM.attributes
                0x00000a31       0x34 c:/program files/microchip/xc32/v3.01/bin/bin/../../lib/gcc/pic32c/8.3.1/../../../../pic32c/lib/thumb/v7e-m+fp/hard\libc_nano.a(lib_a-fputwc.o)
 .ARM.attributes
                0x00000a65       0x34 c:/program files/microchip/xc32/v3.01/bin/bin/../../lib/gcc/pic32c/8.3.1/../../../../pic32c/lib/thumb/v7e-m+fp/hard\libc_nano.a(lib_a-fwalk.o)
 .ARM.attributes
                0x00000a99       0x32 c:/program files/microchip/xc32/v3.01/bin/bin/../../lib/gcc/pic32c/8.3.1/../../../../pic32c/lib/thumb/v7e-m+fp/hard\libc_nano.a(lib_a-impure.o)
 .ARM.attributes
                0x00000acb       0x34 c:/program files/microchip/xc32/v3.01/bin/bin/../../lib/gcc/pic32c/8.3.1/../../../../pic32c/lib/thumb/v7e-m+fp/hard\libc_nano.a(lib_a-locale.o)
 .ARM.attributes
                0x00000aff       0x34 c:/program files/microchip/xc32/v3.01/bin/bin/../../lib/gcc/pic32c/8.3.1/../../../../pic32c/lib/thumb/v7e-m+fp/hard\libc_nano.a(lib_a-mbtowc_r.o)
 .ARM.attributes
                0x00000b33       0x1c c:/program files/microchip/xc32/v3.01/bin/bin/../../lib/gcc/pic32c/8.3.1/../../../../pic32c/lib/thumb/v7e-m+fp/hard\libc_nano.a(lib_a-memchr.o)
 .ARM.attributes
                0x00000b4f       0x34 c:/program files/microchip/xc32/v3.01/bin/bin/../../lib/gcc/pic32c/8.3.1/../../../../pic32c/lib/thumb/v7e-m+fp/hard\libc_nano.a(lib_a-mlock.o)
 .ARM.attributes
                0x00000b83       0x34 c:/program files/microchip/xc32/v3.01/bin/bin/../../lib/gcc/pic32c/8.3.1/../../../../pic32c/lib/thumb/v7e-m+fp/hard\libc_nano.a(lib_a-nano-vfprintf_i.o)
 .ARM.attributes
                0x00000bb7       0x34 c:/program files/microchip/xc32/v3.01/bin/bin/../../lib/gcc/pic32c/8.3.1/../../../../pic32c/lib/thumb/v7e-m+fp/hard\libc_nano.a(lib_a-reent.o)
 .ARM.attributes
                0x00000beb       0x34 c:/program files/microchip/xc32/v3.01/bin/bin/../../lib/gcc/pic32c/8.3.1/../../../../pic32c/lib/thumb/v7e-m+fp/hard\libc_nano.a(lib_a-stdio.o)
 .ARM.attributes
                0x00000c1f       0x34 c:/program files/microchip/xc32/v3.01/bin/bin/../../lib/gcc/pic32c/8.3.1/../../../../pic32c/lib/thumb/v7e-m+fp/hard\libc_nano.a(lib_a-wbuf.o)
 .ARM.attributes
                0x00000c53       0x34 c:/program files/microchip/xc32/v3.01/bin/bin/../../lib/gcc/pic32c/8.3.1/../../../../pic32c/lib/thumb/v7e-m+fp/hard\libc_nano.a(lib_a-wcrtomb.o)
 .ARM.attributes
                0x00000c87       0x34 c:/program files/microchip/xc32/v3.01/bin/bin/../../lib/gcc/pic32c/8.3.1/../../../../pic32c/lib/thumb/v7e-m+fp/hard\libc_nano.a(lib_a-wctomb_r.o)
 .ARM.attributes
                0x00000cbb       0x34 c:/program files/microchip/xc32/v3.01/bin/bin/../../lib/gcc/pic32c/8.3.1/../../../../pic32c/lib/thumb/v7e-m+fp/hard\libc_nano.a(lib_a-writer.o)
 .ARM.attributes
                0x00000cef       0x34 c:/program files/microchip/xc32/v3.01/bin/bin/../../lib/gcc/pic32c/8.3.1/../../../../pic32c/lib/thumb/v7e-m+fp/hard\libc_nano.a(lib_a-wsetup.o)
 .ARM.attributes
                0x00000d23       0x34 c:/program files/microchip/xc32/v3.01/bin/bin/../../lib/gcc/pic32c/8.3.1/../../../../pic32c/lib/thumb/v7e-m+fp/hard\libc_nano.a(lib_a-closer.o)
 .ARM.attributes
                0x00000d57       0x32 c:/program files/microchip/xc32/v3.01/bin/bin/../../lib/gcc/pic32c/8.3.1/../../../../pic32c/lib/thumb/v7e-m+fp/hard\libc_nano.a(lib_a-ctype_.o)
 .ARM.attributes
                0x00000d89       0x34 c:/program files/microchip/xc32/v3.01/bin/bin/../../lib/gcc/pic32c/8.3.1/../../../../pic32c/lib/thumb/v7e-m+fp/hard\libc_nano.a(lib_a-fflush.o)
 .ARM.attributes
                0x00000dbd       0x34 c:/program files/microchip/xc32/v3.01/bin/bin/../../lib/gcc/pic32c/8.3.1/../../../../pic32c/lib/thumb/v7e-m+fp/hard\libc_nano.a(lib_a-lseekr.o)
 .ARM.attributes
                0x00000df1       0x34 c:/program files/microchip/xc32/v3.01/bin/bin/../../lib/gcc/pic32c/8.3.1/../../../../pic32c/lib/thumb/v7e-m+fp/hard\libc_nano.a(lib_a-makebuf.o)
 .ARM.attributes
                0x00000e25       0x34 c:/program files/microchip/xc32/v3.01/bin/bin/../../lib/gcc/pic32c/8.3.1/../../../../pic32c/lib/thumb/v7e-m+fp/hard\libc_nano.a(lib_a-readr.o)
 .ARM.attributes
                0x00000e59       0x34 c:/program files/microchip/xc32/v3.01/bin/bin/../../lib/gcc/pic32c/8.3.1/../../../../pic32c/lib/thumb/v7e-m+fp/hard\libc_nano.a(lib_a-fstatr.o)
 .ARM.attributes
                0x00000e8d       0x34 c:/program files/microchip/xc32/v3.01/bin/bin/../../lib/gcc/pic32c/8.3.1/../../../../pic32c/lib/thumb/v7e-m+fp/hard\libc_nano.a(lib_a-isattyr.o)
 .ARM.attributes
                0x00000ec1       0x34 c:/program files/microchip/xc32/v3.01/bin/bin/../../lib/gcc/pic32c/8.3.1/../../../../pic32c/lib/thumb/v7e-m+fp/hard\libpic32c.a(_close.o)
 .ARM.attributes
                0x00000ef5       0x34 c:/program files/microchip/xc32/v3.01/bin/bin/../../lib/gcc/pic32c/8.3.1/../../../../pic32c/lib/thumb/v7e-m+fp/hard\libpic32c.a(_fstat.o)
 .ARM.attributes
                0x00000f29       0x34 c:/program files/microchip/xc32/v3.01/bin/bin/../../lib/gcc/pic32c/8.3.1/../../../../pic32c/lib/thumb/v7e-m+fp/hard\libpic32c.a(_isatty.o)
 .ARM.attributes
                0x00000f5d       0x34 c:/program files/microchip/xc32/v3.01/bin/bin/../../lib/gcc/pic32c/8.3.1/../../../../pic32c/lib/thumb/v7e-m+fp/hard\libpic32c.a(_lseek.o)
 .ARM.attributes
                0x00000f91       0x34 c:/program files/microchip/xc32/v3.01/bin/bin/../../lib/gcc/pic32c/8.3.1/../../../../pic32c/lib/thumb/v7e-m+fp/hard\libpic32c.a(_read.o)
 .ARM.attributes
                0x00000fc5       0x34 c:/program files/microchip/xc32/v3.01/bin/bin/../../lib/gcc/pic32c/8.3.1/../../../../pic32c/lib/thumb/v7e-m+fp/hard\libpic32c.a(sbrk.o)
 .ARM.attributes
                0x00000ff9       0x34 c:/program files/microchip/xc32/v3.01/bin/bin/../../lib/gcc/pic32c/8.3.1/../../../../pic32c/lib/thumb/v7e-m+fp/hard\libpic32c.a(_write.o)
 .ARM.attributes
                0x0000102d       0x34 c:/program files/microchip/xc32/v3.01/bin/bin/../../lib/gcc/pic32c/8.3.1/../../../../pic32c/lib/thumb/v7e-m+fp/hard\libpic32c.a(close.o)
 .ARM.attributes
                0x00001061       0x34 c:/program files/microchip/xc32/v3.01/bin/bin/../../lib/gcc/pic32c/8.3.1/../../../../pic32c/lib/thumb/v7e-m+fp/hard\libpic32c.a(fstat.o)
 .ARM.attributes
                0x00001095       0x34 c:/program files/microchip/xc32/v3.01/bin/bin/../../lib/gcc/pic32c/8.3.1/../../../../pic32c/lib/thumb/v7e-m+fp/hard\libpic32c.a(isatty.o)
 .ARM.attributes
                0x000010c9       0x34 c:/program files/microchip/xc32/v3.01/bin/bin/../../lib/gcc/pic32c/8.3.1/../../../../pic32c/lib/thumb/v7e-m+fp/hard\libpic32c.a(lseek.o)
 .ARM.attributes
                0x000010fd       0x34 c:/program files/microchip/xc32/v3.01/bin/bin/../../lib/gcc/pic32c/8.3.1/../../../../pic32c/lib/thumb/v7e-m+fp/hard\libpic32c.a(read.o)
 .ARM.attributes
                0x00001131       0x34 c:/program files/microchip/xc32/v3.01/bin/bin/../../lib/gcc/pic32c/8.3.1/../../../../pic32c/lib/thumb/v7e-m+fp/hard\libpic32c.a(write.o)
 .ARM.attributes
                0x00001165       0x1e c:/program files/microchip/xc32/v3.01/bin/bin/../../lib/gcc/pic32c/8.3.1/thumb/v7e-m+fp/hard/crtn.o

.comment        0x00000000       0x53
 .comment       0x00000000       0x53 c:/program files/microchip/xc32/v3.01/bin/bin/../../lib/gcc/pic32c/8.3.1/thumb/v7e-m+fp/hard/crtbegin.o
                                 0x54 (size before relaxing)
 .comment       0x00000053       0x54 build/LAN9255_SQI_DIRECT_MODE/production/_ext/1984496892/plib_clock.o
 .comment       0x00000053       0x54 build/LAN9255_SQI_DIRECT_MODE/production/_ext/60167341/plib_eic.o
 .comment       0x00000053       0x54 build/LAN9255_SQI_DIRECT_MODE/production/_ext/1986646378/plib_evsys.o
 .comment       0x00000053       0x54 build/LAN9255_SQI_DIRECT_MODE/production/_ext/1865468468/plib_nvic.o
 .comment       0x00000053       0x54 build/LAN9255_SQI_DIRECT_MODE/production/_ext/1593096446/plib_nvmctrl.o
 .comment       0x00000053       0x54 build/LAN9255_SQI_DIRECT_MODE/production/_ext/1865488526/oledc_driver.o
 .comment       0x00000053       0x54 build/LAN9255_SQI_DIRECT_MODE/production/_ext/1865521619/plib_port.o
 .comment       0x00000053       0x54 build/LAN9255_SQI_DIRECT_MODE/production/_ext/1865555181/plib_qspi.o
 .comment       0x00000053       0x54 build/LAN9255_SQI_DIRECT_MODE/production/_ext/17022449/plib_sercom4_spi_master.o
 .comment       0x00000053       0x54 build/LAN9255_SQI_DIRECT_MODE/production/_ext/504274921/plib_sercom0_usart.o
 .comment       0x00000053       0x54 build/LAN9255_SQI_DIRECT_MODE/production/_ext/1827571544/plib_systick.o
 .comment       0x00000053       0x54 build/LAN9255_SQI_DIRECT_MODE/production/_ext/163028504/xc32_monitor.o
 .comment       0x00000053       0x54 build/LAN9255_SQI_DIRECT_MODE/production/_ext/1171490990/exceptions.o
 .comment       0x00000053       0x54 build/LAN9255_SQI_DIRECT_MODE/production/_ext/1171490990/initialization.o
 .comment       0x00000053       0x54 build/LAN9255_SQI_DIRECT_MODE/production/_ext/1171490990/interrupts.o
 .comment       0x00000053       0x54 build/LAN9255_SQI_DIRECT_MODE/production/_ext/1171490990/startup_xc32.o
 .comment       0x00000053       0x54 build/LAN9255_SQI_DIRECT_MODE/production/_ext/1171490990/tasks.o
 .comment       0x00000053       0x54 build/LAN9255_SQI_DIRECT_MODE/production/_ext/1671622016/Drivers.o
 .comment       0x00000053       0x54 build/LAN9255_SQI_DIRECT_MODE/production/_ext/108147519/ESC_Utils.o
 .comment       0x00000053       0x54 build/LAN9255_SQI_DIRECT_MODE/production/_ext/108147519/LAN925x.o
 .comment       0x00000053       0x54 build/LAN9255_SQI_DIRECT_MODE/production/_ext/108134065/bootmode.o
 .comment       0x00000053       0x54 build/LAN9255_SQI_DIRECT_MODE/production/_ext/108134065/coeappl.o
 .comment       0x00000053       0x54 build/LAN9255_SQI_DIRECT_MODE/production/_ext/108134065/ecatappl.o
 .comment       0x00000053       0x54 build/LAN9255_SQI_DIRECT_MODE/production/_ext/108134065/ecatcoe.o
 .comment       0x00000053       0x54 build/LAN9255_SQI_DIRECT_MODE/production/_ext/108134065/ecatfoe.o
 .comment       0x00000053       0x54 build/LAN9255_SQI_DIRECT_MODE/production/_ext/108134065/ecatslv.o
 .comment       0x00000053       0x54 build/LAN9255_SQI_DIRECT_MODE/production/_ext/108134065/emcy.o
 .comment       0x00000053       0x54 build/LAN9255_SQI_DIRECT_MODE/production/_ext/108134065/foeappl.o
 .comment       0x00000053       0x54 build/LAN9255_SQI_DIRECT_MODE/production/_ext/108134065/mailbox.o
 .comment       0x00000053       0x54 build/LAN9255_SQI_DIRECT_MODE/production/_ext/108134065/objdef.o
 .comment       0x00000053       0x54 build/LAN9255_SQI_DIRECT_MODE/production/_ext/108134065/sample_app.o
 .comment       0x00000053       0x54 build/LAN9255_SQI_DIRECT_MODE/production/_ext/108134065/sdoserv.o
 .comment       0x00000053       0x54 build/LAN9255_SQI_DIRECT_MODE/production/_ext/1360937237/main.o
 .comment       0x00000053       0x54 build/LAN9255_SQI_DIRECT_MODE/production/_ext/1360937237/app.o
 .comment       0x00000053       0x54 c:/program files/microchip/xc32/v3.01/bin/bin/../../lib/gcc/pic32c/8.3.1/../../../../pic32c/lib/thumb/v7e-m+fp/hard\libpic32c.a(data_init.o)
 .comment       0x00000053       0x54 c:/program files/microchip/xc32/v3.01/bin/bin/../../lib/gcc/pic32c/8.3.1/thumb/v7e-m+fp/hard\libgcc.a(_udivmoddi4.o)
 .comment       0x00000053       0x54 c:/program files/microchip/xc32/v3.01/bin/bin/../../lib/gcc/pic32c/8.3.1/../../../../pic32c/lib/thumb/v7e-m+fp/hard\libc_nano.a(_lib_a-sprintf.cdnopuxX.o)
 .comment       0x00000053       0x54 c:/program files/microchip/xc32/v3.01/bin/bin/../../lib/gcc/pic32c/8.3.1/../../../../pic32c/lib/thumb/v7e-m+fp/hard\libc_nano.a(lib_a-init.o)
 .comment       0x00000053       0x54 c:/program files/microchip/xc32/v3.01/bin/bin/../../lib/gcc/pic32c/8.3.1/../../../../pic32c/lib/thumb/v7e-m+fp/hard\libc_nano.a(lib_a-malloc.o)
 .comment       0x00000053       0x54 c:/program files/microchip/xc32/v3.01/bin/bin/../../lib/gcc/pic32c/8.3.1/../../../../pic32c/lib/thumb/v7e-m+fp/hard\libc_nano.a(lib_a-memcpy-stub.o)
 .comment       0x00000053       0x54 c:/program files/microchip/xc32/v3.01/bin/bin/../../lib/gcc/pic32c/8.3.1/../../../../pic32c/lib/thumb/v7e-m+fp/hard\libc_nano.a(lib_a-memset.o)
 .comment       0x00000053       0x54 c:/program files/microchip/xc32/v3.01/bin/bin/../../lib/gcc/pic32c/8.3.1/../../../../pic32c/lib/thumb/v7e-m+fp/hard\libc_nano.a(lib_a-nano-freer.o)
 .comment       0x00000053       0x54 c:/program files/microchip/xc32/v3.01/bin/bin/../../lib/gcc/pic32c/8.3.1/../../../../pic32c/lib/thumb/v7e-m+fp/hard\libc_nano.a(lib_a-nano-mallocr.o)
 .comment       0x00000053       0x54 c:/program files/microchip/xc32/v3.01/bin/bin/../../lib/gcc/pic32c/8.3.1/../../../../pic32c/lib/thumb/v7e-m+fp/hard\libc_nano.a(lib_a-sbrkr.o)
 .comment       0x00000053       0x54 c:/program files/microchip/xc32/v3.01/bin/bin/../../lib/gcc/pic32c/8.3.1/../../../../pic32c/lib/thumb/v7e-m+fp/hard\libc_nano.a(_lib_a-nano-vfprintf.cdnopuxX.o)
 .comment       0x00000053       0x54 c:/program files/microchip/xc32/v3.01/bin/bin/../../lib/gcc/pic32c/8.3.1/../../../../pic32c/lib/thumb/v7e-m+fp/hard\libc_nano.a(lib_a-__ssfputs.o)
 .comment       0x00000053       0x54 c:/program files/microchip/xc32/v3.01/bin/bin/../../lib/gcc/pic32c/8.3.1/../../../../pic32c/lib/thumb/v7e-m+fp/hard\libc_nano.a(lib_a-findfp.o)
 .comment       0x00000053       0x54 c:/program files/microchip/xc32/v3.01/bin/bin/../../lib/gcc/pic32c/8.3.1/../../../../pic32c/lib/thumb/v7e-m+fp/hard\libc_nano.a(lib_a-fputwc.o)
 .comment       0x00000053       0x54 c:/program files/microchip/xc32/v3.01/bin/bin/../../lib/gcc/pic32c/8.3.1/../../../../pic32c/lib/thumb/v7e-m+fp/hard\libc_nano.a(lib_a-fwalk.o)
 .comment       0x00000053       0x54 c:/program files/microchip/xc32/v3.01/bin/bin/../../lib/gcc/pic32c/8.3.1/../../../../pic32c/lib/thumb/v7e-m+fp/hard\libc_nano.a(lib_a-impure.o)
 .comment       0x00000053       0x54 c:/program files/microchip/xc32/v3.01/bin/bin/../../lib/gcc/pic32c/8.3.1/../../../../pic32c/lib/thumb/v7e-m+fp/hard\libc_nano.a(lib_a-locale.o)
 .comment       0x00000053       0x54 c:/program files/microchip/xc32/v3.01/bin/bin/../../lib/gcc/pic32c/8.3.1/../../../../pic32c/lib/thumb/v7e-m+fp/hard\libc_nano.a(lib_a-mbtowc_r.o)
 .comment       0x00000053       0x54 c:/program files/microchip/xc32/v3.01/bin/bin/../../lib/gcc/pic32c/8.3.1/../../../../pic32c/lib/thumb/v7e-m+fp/hard\libc_nano.a(lib_a-mlock.o)
 .comment       0x00000053       0x54 c:/program files/microchip/xc32/v3.01/bin/bin/../../lib/gcc/pic32c/8.3.1/../../../../pic32c/lib/thumb/v7e-m+fp/hard\libc_nano.a(lib_a-nano-vfprintf_i.o)
 .comment       0x00000053       0x54 c:/program files/microchip/xc32/v3.01/bin/bin/../../lib/gcc/pic32c/8.3.1/../../../../pic32c/lib/thumb/v7e-m+fp/hard\libc_nano.a(lib_a-reent.o)
 .comment       0x00000053       0x54 c:/program files/microchip/xc32/v3.01/bin/bin/../../lib/gcc/pic32c/8.3.1/../../../../pic32c/lib/thumb/v7e-m+fp/hard\libc_nano.a(lib_a-stdio.o)
 .comment       0x00000053       0x54 c:/program files/microchip/xc32/v3.01/bin/bin/../../lib/gcc/pic32c/8.3.1/../../../../pic32c/lib/thumb/v7e-m+fp/hard\libc_nano.a(lib_a-wbuf.o)
 .comment       0x00000053       0x54 c:/program files/microchip/xc32/v3.01/bin/bin/../../lib/gcc/pic32c/8.3.1/../../../../pic32c/lib/thumb/v7e-m+fp/hard\libc_nano.a(lib_a-wcrtomb.o)
 .comment       0x00000053       0x54 c:/program files/microchip/xc32/v3.01/bin/bin/../../lib/gcc/pic32c/8.3.1/../../../../pic32c/lib/thumb/v7e-m+fp/hard\libc_nano.a(lib_a-wctomb_r.o)
 .comment       0x00000053       0x54 c:/program files/microchip/xc32/v3.01/bin/bin/../../lib/gcc/pic32c/8.3.1/../../../../pic32c/lib/thumb/v7e-m+fp/hard\libc_nano.a(lib_a-writer.o)
 .comment       0x00000053       0x54 c:/program files/microchip/xc32/v3.01/bin/bin/../../lib/gcc/pic32c/8.3.1/../../../../pic32c/lib/thumb/v7e-m+fp/hard\libc_nano.a(lib_a-wsetup.o)
 .comment       0x00000053       0x54 c:/program files/microchip/xc32/v3.01/bin/bin/../../lib/gcc/pic32c/8.3.1/../../../../pic32c/lib/thumb/v7e-m+fp/hard\libc_nano.a(lib_a-closer.o)
 .comment       0x00000053       0x54 c:/program files/microchip/xc32/v3.01/bin/bin/../../lib/gcc/pic32c/8.3.1/../../../../pic32c/lib/thumb/v7e-m+fp/hard\libc_nano.a(lib_a-ctype_.o)
 .comment       0x00000053       0x54 c:/program files/microchip/xc32/v3.01/bin/bin/../../lib/gcc/pic32c/8.3.1/../../../../pic32c/lib/thumb/v7e-m+fp/hard\libc_nano.a(lib_a-fflush.o)
 .comment       0x00000053       0x54 c:/program files/microchip/xc32/v3.01/bin/bin/../../lib/gcc/pic32c/8.3.1/../../../../pic32c/lib/thumb/v7e-m+fp/hard\libc_nano.a(lib_a-lseekr.o)
 .comment       0x00000053       0x54 c:/program files/microchip/xc32/v3.01/bin/bin/../../lib/gcc/pic32c/8.3.1/../../../../pic32c/lib/thumb/v7e-m+fp/hard\libc_nano.a(lib_a-makebuf.o)
 .comment       0x00000053       0x54 c:/program files/microchip/xc32/v3.01/bin/bin/../../lib/gcc/pic32c/8.3.1/../../../../pic32c/lib/thumb/v7e-m+fp/hard\libc_nano.a(lib_a-readr.o)
 .comment       0x00000053       0x54 c:/program files/microchip/xc32/v3.01/bin/bin/../../lib/gcc/pic32c/8.3.1/../../../../pic32c/lib/thumb/v7e-m+fp/hard\libc_nano.a(lib_a-fstatr.o)
 .comment       0x00000053       0x54 c:/program files/microchip/xc32/v3.01/bin/bin/../../lib/gcc/pic32c/8.3.1/../../../../pic32c/lib/thumb/v7e-m+fp/hard\libc_nano.a(lib_a-isattyr.o)
 .comment       0x00000053       0x54 c:/program files/microchip/xc32/v3.01/bin/bin/../../lib/gcc/pic32c/8.3.1/../../../../pic32c/lib/thumb/v7e-m+fp/hard\libpic32c.a(_close.o)
 .comment       0x00000053       0x54 c:/program files/microchip/xc32/v3.01/bin/bin/../../lib/gcc/pic32c/8.3.1/../../../../pic32c/lib/thumb/v7e-m+fp/hard\libpic32c.a(_fstat.o)
 .comment       0x00000053       0x54 c:/program files/microchip/xc32/v3.01/bin/bin/../../lib/gcc/pic32c/8.3.1/../../../../pic32c/lib/thumb/v7e-m+fp/hard\libpic32c.a(_isatty.o)
 .comment       0x00000053       0x54 c:/program files/microchip/xc32/v3.01/bin/bin/../../lib/gcc/pic32c/8.3.1/../../../../pic32c/lib/thumb/v7e-m+fp/hard\libpic32c.a(_lseek.o)
 .comment       0x00000053       0x54 c:/program files/microchip/xc32/v3.01/bin/bin/../../lib/gcc/pic32c/8.3.1/../../../../pic32c/lib/thumb/v7e-m+fp/hard\libpic32c.a(_read.o)
 .comment       0x00000053       0x54 c:/program files/microchip/xc32/v3.01/bin/bin/../../lib/gcc/pic32c/8.3.1/../../../../pic32c/lib/thumb/v7e-m+fp/hard\libpic32c.a(sbrk.o)
 .comment       0x00000053       0x54 c:/program files/microchip/xc32/v3.01/bin/bin/../../lib/gcc/pic32c/8.3.1/../../../../pic32c/lib/thumb/v7e-m+fp/hard\libpic32c.a(_write.o)
 .comment       0x00000053       0x54 c:/program files/microchip/xc32/v3.01/bin/bin/../../lib/gcc/pic32c/8.3.1/../../../../pic32c/lib/thumb/v7e-m+fp/hard\libpic32c.a(close.o)
 .comment       0x00000053       0x54 c:/program files/microchip/xc32/v3.01/bin/bin/../../lib/gcc/pic32c/8.3.1/../../../../pic32c/lib/thumb/v7e-m+fp/hard\libpic32c.a(fstat.o)
 .comment       0x00000053       0x54 c:/program files/microchip/xc32/v3.01/bin/bin/../../lib/gcc/pic32c/8.3.1/../../../../pic32c/lib/thumb/v7e-m+fp/hard\libpic32c.a(isatty.o)
 .comment       0x00000053       0x54 c:/program files/microchip/xc32/v3.01/bin/bin/../../lib/gcc/pic32c/8.3.1/../../../../pic32c/lib/thumb/v7e-m+fp/hard\libpic32c.a(lseek.o)
 .comment       0x00000053       0x54 c:/program files/microchip/xc32/v3.01/bin/bin/../../lib/gcc/pic32c/8.3.1/../../../../pic32c/lib/thumb/v7e-m+fp/hard\libpic32c.a(read.o)
 .comment       0x00000053       0x54 c:/program files/microchip/xc32/v3.01/bin/bin/../../lib/gcc/pic32c/8.3.1/../../../../pic32c/lib/thumb/v7e-m+fp/hard\libpic32c.a(write.o)

.debug_info     0x00000000    0x3b281
 .debug_info    0x00000000      0xc3c build/LAN9255_SQI_DIRECT_MODE/production/_ext/1984496892/plib_clock.o
 .debug_info    0x00000c3c      0x846 build/LAN9255_SQI_DIRECT_MODE/production/_ext/60167341/plib_eic.o
 .debug_info    0x00001482      0x394 build/LAN9255_SQI_DIRECT_MODE/production/_ext/1986646378/plib_evsys.o
 .debug_info    0x00001816     0x116d build/LAN9255_SQI_DIRECT_MODE/production/_ext/1865468468/plib_nvic.o
 .debug_info    0x00002983     0x17be build/LAN9255_SQI_DIRECT_MODE/production/_ext/1593096446/plib_nvmctrl.o
 .debug_info    0x00004141     0x1b02 build/LAN9255_SQI_DIRECT_MODE/production/_ext/1865488526/oledc_driver.o
 .debug_info    0x00005c43      0x882 build/LAN9255_SQI_DIRECT_MODE/production/_ext/1865521619/plib_port.o
 .debug_info    0x000064c5      0xd22 build/LAN9255_SQI_DIRECT_MODE/production/_ext/1865555181/plib_qspi.o
 .debug_info    0x000071e7     0x1486 build/LAN9255_SQI_DIRECT_MODE/production/_ext/17022449/plib_sercom4_spi_master.o
 .debug_info    0x0000866d     0x1856 build/LAN9255_SQI_DIRECT_MODE/production/_ext/504274921/plib_sercom0_usart.o
 .debug_info    0x00009ec3      0x710 build/LAN9255_SQI_DIRECT_MODE/production/_ext/1827571544/plib_systick.o
 .debug_info    0x0000a5d3      0x2e3 build/LAN9255_SQI_DIRECT_MODE/production/_ext/163028504/xc32_monitor.o
 .debug_info    0x0000a8b6     0x10a5 build/LAN9255_SQI_DIRECT_MODE/production/_ext/1171490990/exceptions.o
 .debug_info    0x0000b95b      0xff7 build/LAN9255_SQI_DIRECT_MODE/production/_ext/1171490990/initialization.o
 .debug_info    0x0000c952     0x2380 build/LAN9255_SQI_DIRECT_MODE/production/_ext/1171490990/interrupts.o
 .debug_info    0x0000ecd2     0x14db build/LAN9255_SQI_DIRECT_MODE/production/_ext/1171490990/startup_xc32.o
 .debug_info    0x000101ad      0xfca build/LAN9255_SQI_DIRECT_MODE/production/_ext/1171490990/tasks.o
 .debug_info    0x00011177     0x31fa build/LAN9255_SQI_DIRECT_MODE/production/_ext/1671622016/Drivers.o
 .debug_info    0x00014371     0x1346 build/LAN9255_SQI_DIRECT_MODE/production/_ext/108147519/ESC_Utils.o
 .debug_info    0x000156b7     0x201d build/LAN9255_SQI_DIRECT_MODE/production/_ext/108147519/LAN925x.o
 .debug_info    0x000176d4     0x1331 build/LAN9255_SQI_DIRECT_MODE/production/_ext/108134065/bootmode.o
 .debug_info    0x00018a05     0x30dd build/LAN9255_SQI_DIRECT_MODE/production/_ext/108134065/coeappl.o
 .debug_info    0x0001bae2     0x2a4d build/LAN9255_SQI_DIRECT_MODE/production/_ext/108134065/ecatappl.o
 .debug_info    0x0001e52f     0x1782 build/LAN9255_SQI_DIRECT_MODE/production/_ext/108134065/ecatcoe.o
 .debug_info    0x0001fcb1     0x1b7d build/LAN9255_SQI_DIRECT_MODE/production/_ext/108134065/ecatfoe.o
 .debug_info    0x0002182e     0x2e54 build/LAN9255_SQI_DIRECT_MODE/production/_ext/108134065/ecatslv.o
 .debug_info    0x00024682     0x1c07 build/LAN9255_SQI_DIRECT_MODE/production/_ext/108134065/emcy.o
 .debug_info    0x00026289     0x2157 build/LAN9255_SQI_DIRECT_MODE/production/_ext/108134065/foeappl.o
 .debug_info    0x000283e0     0x230a build/LAN9255_SQI_DIRECT_MODE/production/_ext/108134065/mailbox.o
 .debug_info    0x0002a6ea     0x2962 build/LAN9255_SQI_DIRECT_MODE/production/_ext/108134065/objdef.o
 .debug_info    0x0002d04c     0x3221 build/LAN9255_SQI_DIRECT_MODE/production/_ext/108134065/sample_app.o
 .debug_info    0x0003026d     0x2c97 build/LAN9255_SQI_DIRECT_MODE/production/_ext/108134065/sdoserv.o
 .debug_info    0x00032f04      0xfb9 build/LAN9255_SQI_DIRECT_MODE/production/_ext/1360937237/main.o
 .debug_info    0x00033ebd     0x2dcb build/LAN9255_SQI_DIRECT_MODE/production/_ext/1360937237/app.o
 .debug_info    0x00036c88      0x2cd c:/program files/microchip/xc32/v3.01/bin/bin/../../lib/gcc/pic32c/8.3.1/../../../../pic32c/lib/thumb/v7e-m+fp/hard\libpic32c.a(data_init.o)
 .debug_info    0x00036f55       0x26 c:/program files/microchip/xc32/v3.01/bin/bin/../../lib/gcc/pic32c/8.3.1/thumb/v7e-m+fp/hard\libgcc.a(_aeabi_uldivmod.o)
 .debug_info    0x00036f7b     0x1fdc c:/program files/microchip/xc32/v3.01/bin/bin/../../lib/gcc/pic32c/8.3.1/thumb/v7e-m+fp/hard\libgcc.a(_udivmoddi4.o)
 .debug_info    0x00038f57       0x26 c:/program files/microchip/xc32/v3.01/bin/bin/../../lib/gcc/pic32c/8.3.1/thumb/v7e-m+fp/hard\libgcc.a(_dvmd_tls.o)
 .debug_info    0x00038f7d      0x2b2 c:/program files/microchip/xc32/v3.01/bin/bin/../../lib/gcc/pic32c/8.3.1/../../../../pic32c/lib/thumb/v7e-m+fp/hard\libpic32c.a(_close.o)
 .debug_info    0x0003922f      0x2b2 c:/program files/microchip/xc32/v3.01/bin/bin/../../lib/gcc/pic32c/8.3.1/../../../../pic32c/lib/thumb/v7e-m+fp/hard\libpic32c.a(_fstat.o)
 .debug_info    0x000394e1      0x2b4 c:/program files/microchip/xc32/v3.01/bin/bin/../../lib/gcc/pic32c/8.3.1/../../../../pic32c/lib/thumb/v7e-m+fp/hard\libpic32c.a(_isatty.o)
 .debug_info    0x00039795      0x2b2 c:/program files/microchip/xc32/v3.01/bin/bin/../../lib/gcc/pic32c/8.3.1/../../../../pic32c/lib/thumb/v7e-m+fp/hard\libpic32c.a(_lseek.o)
 .debug_info    0x00039a47      0x2b0 c:/program files/microchip/xc32/v3.01/bin/bin/../../lib/gcc/pic32c/8.3.1/../../../../pic32c/lib/thumb/v7e-m+fp/hard\libpic32c.a(_read.o)
 .debug_info    0x00039cf7      0x2b0 c:/program files/microchip/xc32/v3.01/bin/bin/../../lib/gcc/pic32c/8.3.1/../../../../pic32c/lib/thumb/v7e-m+fp/hard\libpic32c.a(sbrk.o)
 .debug_info    0x00039fa7      0x2b2 c:/program files/microchip/xc32/v3.01/bin/bin/../../lib/gcc/pic32c/8.3.1/../../../../pic32c/lib/thumb/v7e-m+fp/hard\libpic32c.a(_write.o)
 .debug_info    0x0003a259      0x2b1 c:/program files/microchip/xc32/v3.01/bin/bin/../../lib/gcc/pic32c/8.3.1/../../../../pic32c/lib/thumb/v7e-m+fp/hard\libpic32c.a(close.o)
 .debug_info    0x0003a50a      0x2b1 c:/program files/microchip/xc32/v3.01/bin/bin/../../lib/gcc/pic32c/8.3.1/../../../../pic32c/lib/thumb/v7e-m+fp/hard\libpic32c.a(fstat.o)
 .debug_info    0x0003a7bb      0x2b3 c:/program files/microchip/xc32/v3.01/bin/bin/../../lib/gcc/pic32c/8.3.1/../../../../pic32c/lib/thumb/v7e-m+fp/hard\libpic32c.a(isatty.o)
 .debug_info    0x0003aa6e      0x2b1 c:/program files/microchip/xc32/v3.01/bin/bin/../../lib/gcc/pic32c/8.3.1/../../../../pic32c/lib/thumb/v7e-m+fp/hard\libpic32c.a(lseek.o)
 .debug_info    0x0003ad1f      0x2b0 c:/program files/microchip/xc32/v3.01/bin/bin/../../lib/gcc/pic32c/8.3.1/../../../../pic32c/lib/thumb/v7e-m+fp/hard\libpic32c.a(read.o)
 .debug_info    0x0003afcf      0x2b2 c:/program files/microchip/xc32/v3.01/bin/bin/../../lib/gcc/pic32c/8.3.1/../../../../pic32c/lib/thumb/v7e-m+fp/hard\libpic32c.a(write.o)

.debug_abbrev   0x00000000     0x5439
 .debug_abbrev  0x00000000      0x115 build/LAN9255_SQI_DIRECT_MODE/production/_ext/1984496892/plib_clock.o
 .debug_abbrev  0x00000115      0x17d build/LAN9255_SQI_DIRECT_MODE/production/_ext/60167341/plib_eic.o
 .debug_abbrev  0x00000292       0x64 build/LAN9255_SQI_DIRECT_MODE/production/_ext/1986646378/plib_evsys.o
 .debug_abbrev  0x000002f6      0x16d build/LAN9255_SQI_DIRECT_MODE/production/_ext/1865468468/plib_nvic.o
 .debug_abbrev  0x00000463      0x297 build/LAN9255_SQI_DIRECT_MODE/production/_ext/1593096446/plib_nvmctrl.o
 .debug_abbrev  0x000006fa      0x2cf build/LAN9255_SQI_DIRECT_MODE/production/_ext/1865488526/oledc_driver.o
 .debug_abbrev  0x000009c9      0x171 build/LAN9255_SQI_DIRECT_MODE/production/_ext/1865521619/plib_port.o
 .debug_abbrev  0x00000b3a      0x25d build/LAN9255_SQI_DIRECT_MODE/production/_ext/1865555181/plib_qspi.o
 .debug_abbrev  0x00000d97      0x267 build/LAN9255_SQI_DIRECT_MODE/production/_ext/17022449/plib_sercom4_spi_master.o
 .debug_abbrev  0x00000ffe      0x2ff build/LAN9255_SQI_DIRECT_MODE/production/_ext/504274921/plib_sercom0_usart.o
 .debug_abbrev  0x000012fd      0x17c build/LAN9255_SQI_DIRECT_MODE/production/_ext/1827571544/plib_systick.o
 .debug_abbrev  0x00001479       0x6c build/LAN9255_SQI_DIRECT_MODE/production/_ext/163028504/xc32_monitor.o
 .debug_abbrev  0x000014e5      0x1bf build/LAN9255_SQI_DIRECT_MODE/production/_ext/1171490990/exceptions.o
 .debug_abbrev  0x000016a4      0x1dc build/LAN9255_SQI_DIRECT_MODE/production/_ext/1171490990/initialization.o
 .debug_abbrev  0x00001880      0x1d2 build/LAN9255_SQI_DIRECT_MODE/production/_ext/1171490990/interrupts.o
 .debug_abbrev  0x00001a52      0x2af build/LAN9255_SQI_DIRECT_MODE/production/_ext/1171490990/startup_xc32.o
 .debug_abbrev  0x00001d01      0x1bc build/LAN9255_SQI_DIRECT_MODE/production/_ext/1171490990/tasks.o
 .debug_abbrev  0x00001ebd      0x3f9 build/LAN9255_SQI_DIRECT_MODE/production/_ext/1671622016/Drivers.o
 .debug_abbrev  0x000022b6      0x245 build/LAN9255_SQI_DIRECT_MODE/production/_ext/108147519/ESC_Utils.o
 .debug_abbrev  0x000024fb      0x2fd build/LAN9255_SQI_DIRECT_MODE/production/_ext/108147519/LAN925x.o
 .debug_abbrev  0x000027f8      0x229 build/LAN9255_SQI_DIRECT_MODE/production/_ext/108134065/bootmode.o
 .debug_abbrev  0x00002a21      0x319 build/LAN9255_SQI_DIRECT_MODE/production/_ext/108134065/coeappl.o
 .debug_abbrev  0x00002d3a      0x2d7 build/LAN9255_SQI_DIRECT_MODE/production/_ext/108134065/ecatappl.o
 .debug_abbrev  0x00003011      0x21e build/LAN9255_SQI_DIRECT_MODE/production/_ext/108134065/ecatcoe.o
 .debug_abbrev  0x0000322f      0x291 build/LAN9255_SQI_DIRECT_MODE/production/_ext/108134065/ecatfoe.o
 .debug_abbrev  0x000034c0      0x31f build/LAN9255_SQI_DIRECT_MODE/production/_ext/108134065/ecatslv.o
 .debug_abbrev  0x000037df      0x2dd build/LAN9255_SQI_DIRECT_MODE/production/_ext/108134065/emcy.o
 .debug_abbrev  0x00003abc      0x298 build/LAN9255_SQI_DIRECT_MODE/production/_ext/108134065/foeappl.o
 .debug_abbrev  0x00003d54      0x2ce build/LAN9255_SQI_DIRECT_MODE/production/_ext/108134065/mailbox.o
 .debug_abbrev  0x00004022      0x304 build/LAN9255_SQI_DIRECT_MODE/production/_ext/108134065/objdef.o
 .debug_abbrev  0x00004326      0x41d build/LAN9255_SQI_DIRECT_MODE/production/_ext/108134065/sample_app.o
 .debug_abbrev  0x00004743      0x327 build/LAN9255_SQI_DIRECT_MODE/production/_ext/108134065/sdoserv.o
 .debug_abbrev  0x00004a6a      0x1be build/LAN9255_SQI_DIRECT_MODE/production/_ext/1360937237/main.o
 .debug_abbrev  0x00004c28      0x3e5 build/LAN9255_SQI_DIRECT_MODE/production/_ext/1360937237/app.o
 .debug_abbrev  0x0000500d       0x2e c:/program files/microchip/xc32/v3.01/bin/bin/../../lib/gcc/pic32c/8.3.1/../../../../pic32c/lib/thumb/v7e-m+fp/hard\libpic32c.a(data_init.o)
 .debug_abbrev  0x0000503b       0x14 c:/program files/microchip/xc32/v3.01/bin/bin/../../lib/gcc/pic32c/8.3.1/thumb/v7e-m+fp/hard\libgcc.a(_aeabi_uldivmod.o)
 .debug_abbrev  0x0000504f      0x192 c:/program files/microchip/xc32/v3.01/bin/bin/../../lib/gcc/pic32c/8.3.1/thumb/v7e-m+fp/hard\libgcc.a(_udivmoddi4.o)
 .debug_abbrev  0x000051e1       0x14 c:/program files/microchip/xc32/v3.01/bin/bin/../../lib/gcc/pic32c/8.3.1/thumb/v7e-m+fp/hard\libgcc.a(_dvmd_tls.o)
 .debug_abbrev  0x000051f5       0x2b c:/program files/microchip/xc32/v3.01/bin/bin/../../lib/gcc/pic32c/8.3.1/../../../../pic32c/lib/thumb/v7e-m+fp/hard\libpic32c.a(_close.o)
 .debug_abbrev  0x00005220       0x2b c:/program files/microchip/xc32/v3.01/bin/bin/../../lib/gcc/pic32c/8.3.1/../../../../pic32c/lib/thumb/v7e-m+fp/hard\libpic32c.a(_fstat.o)
 .debug_abbrev  0x0000524b       0x2b c:/program files/microchip/xc32/v3.01/bin/bin/../../lib/gcc/pic32c/8.3.1/../../../../pic32c/lib/thumb/v7e-m+fp/hard\libpic32c.a(_isatty.o)
 .debug_abbrev  0x00005276       0x2b c:/program files/microchip/xc32/v3.01/bin/bin/../../lib/gcc/pic32c/8.3.1/../../../../pic32c/lib/thumb/v7e-m+fp/hard\libpic32c.a(_lseek.o)
 .debug_abbrev  0x000052a1       0x2b c:/program files/microchip/xc32/v3.01/bin/bin/../../lib/gcc/pic32c/8.3.1/../../../../pic32c/lib/thumb/v7e-m+fp/hard\libpic32c.a(_read.o)
 .debug_abbrev  0x000052cc       0x2e c:/program files/microchip/xc32/v3.01/bin/bin/../../lib/gcc/pic32c/8.3.1/../../../../pic32c/lib/thumb/v7e-m+fp/hard\libpic32c.a(sbrk.o)
 .debug_abbrev  0x000052fa       0x2b c:/program files/microchip/xc32/v3.01/bin/bin/../../lib/gcc/pic32c/8.3.1/../../../../pic32c/lib/thumb/v7e-m+fp/hard\libpic32c.a(_write.o)
 .debug_abbrev  0x00005325       0x2e c:/program files/microchip/xc32/v3.01/bin/bin/../../lib/gcc/pic32c/8.3.1/../../../../pic32c/lib/thumb/v7e-m+fp/hard\libpic32c.a(close.o)
 .debug_abbrev  0x00005353       0x2e c:/program files/microchip/xc32/v3.01/bin/bin/../../lib/gcc/pic32c/8.3.1/../../../../pic32c/lib/thumb/v7e-m+fp/hard\libpic32c.a(fstat.o)
 .debug_abbrev  0x00005381       0x2e c:/program files/microchip/xc32/v3.01/bin/bin/../../lib/gcc/pic32c/8.3.1/../../../../pic32c/lib/thumb/v7e-m+fp/hard\libpic32c.a(isatty.o)
 .debug_abbrev  0x000053af       0x2e c:/program files/microchip/xc32/v3.01/bin/bin/../../lib/gcc/pic32c/8.3.1/../../../../pic32c/lib/thumb/v7e-m+fp/hard\libpic32c.a(lseek.o)
 .debug_abbrev  0x000053dd       0x2e c:/program files/microchip/xc32/v3.01/bin/bin/../../lib/gcc/pic32c/8.3.1/../../../../pic32c/lib/thumb/v7e-m+fp/hard\libpic32c.a(read.o)
 .debug_abbrev  0x0000540b       0x2e c:/program files/microchip/xc32/v3.01/bin/bin/../../lib/gcc/pic32c/8.3.1/../../../../pic32c/lib/thumb/v7e-m+fp/hard\libpic32c.a(write.o)

.debug_loc      0x00000000     0x6dcf
 .debug_loc     0x00000000      0x290 build/LAN9255_SQI_DIRECT_MODE/production/_ext/1984496892/plib_clock.o
 .debug_loc     0x00000290      0x1dc build/LAN9255_SQI_DIRECT_MODE/production/_ext/60167341/plib_eic.o
 .debug_loc     0x0000046c       0x44 build/LAN9255_SQI_DIRECT_MODE/production/_ext/1986646378/plib_evsys.o
 .debug_loc     0x000004b0      0x140 build/LAN9255_SQI_DIRECT_MODE/production/_ext/1865468468/plib_nvic.o
 .debug_loc     0x000005f0      0x5c0 build/LAN9255_SQI_DIRECT_MODE/production/_ext/1593096446/plib_nvmctrl.o
 .debug_loc     0x00000bb0      0x480 build/LAN9255_SQI_DIRECT_MODE/production/_ext/1865488526/oledc_driver.o
 .debug_loc     0x00001030      0x324 build/LAN9255_SQI_DIRECT_MODE/production/_ext/1865521619/plib_port.o
 .debug_loc     0x00001354      0x338 build/LAN9255_SQI_DIRECT_MODE/production/_ext/1865555181/plib_qspi.o
 .debug_loc     0x0000168c      0x28c build/LAN9255_SQI_DIRECT_MODE/production/_ext/17022449/plib_sercom4_spi_master.o
 .debug_loc     0x00001918      0x644 build/LAN9255_SQI_DIRECT_MODE/production/_ext/504274921/plib_sercom0_usart.o
 .debug_loc     0x00001f5c      0x31c build/LAN9255_SQI_DIRECT_MODE/production/_ext/1827571544/plib_systick.o
 .debug_loc     0x00002278       0xb8 build/LAN9255_SQI_DIRECT_MODE/production/_ext/163028504/xc32_monitor.o
 .debug_loc     0x00002330      0x108 build/LAN9255_SQI_DIRECT_MODE/production/_ext/1171490990/exceptions.o
 .debug_loc     0x00002438       0x50 build/LAN9255_SQI_DIRECT_MODE/production/_ext/1171490990/initialization.o
 .debug_loc     0x00002488      0x11c build/LAN9255_SQI_DIRECT_MODE/production/_ext/1171490990/startup_xc32.o
 .debug_loc     0x000025a4       0x2c build/LAN9255_SQI_DIRECT_MODE/production/_ext/1171490990/tasks.o
 .debug_loc     0x000025d0      0x758 build/LAN9255_SQI_DIRECT_MODE/production/_ext/1671622016/Drivers.o
 .debug_loc     0x00002d28      0x130 build/LAN9255_SQI_DIRECT_MODE/production/_ext/108147519/ESC_Utils.o
 .debug_loc     0x00002e58      0x4b0 build/LAN9255_SQI_DIRECT_MODE/production/_ext/108147519/LAN925x.o
 .debug_loc     0x00003308      0x158 build/LAN9255_SQI_DIRECT_MODE/production/_ext/108134065/bootmode.o
 .debug_loc     0x00003460      0x370 build/LAN9255_SQI_DIRECT_MODE/production/_ext/108134065/coeappl.o
 .debug_loc     0x000037d0      0x330 build/LAN9255_SQI_DIRECT_MODE/production/_ext/108134065/ecatappl.o
 .debug_loc     0x00003b00       0xe4 build/LAN9255_SQI_DIRECT_MODE/production/_ext/108134065/ecatcoe.o
 .debug_loc     0x00003be4       0xe4 build/LAN9255_SQI_DIRECT_MODE/production/_ext/108134065/ecatfoe.o
 .debug_loc     0x00003cc8      0x682 build/LAN9255_SQI_DIRECT_MODE/production/_ext/108134065/ecatslv.o
 .debug_loc     0x0000434a      0x2f4 build/LAN9255_SQI_DIRECT_MODE/production/_ext/108134065/emcy.o
 .debug_loc     0x0000463e      0x1e0 build/LAN9255_SQI_DIRECT_MODE/production/_ext/108134065/foeappl.o
 .debug_loc     0x0000481e      0x428 build/LAN9255_SQI_DIRECT_MODE/production/_ext/108134065/mailbox.o
 .debug_loc     0x00004c46      0x40e build/LAN9255_SQI_DIRECT_MODE/production/_ext/108134065/objdef.o
 .debug_loc     0x00005054      0x6d2 build/LAN9255_SQI_DIRECT_MODE/production/_ext/108134065/sample_app.o
 .debug_loc     0x00005726      0x210 build/LAN9255_SQI_DIRECT_MODE/production/_ext/108134065/sdoserv.o
 .debug_loc     0x00005936       0x2c build/LAN9255_SQI_DIRECT_MODE/production/_ext/1360937237/main.o
 .debug_loc     0x00005962      0x3f0 build/LAN9255_SQI_DIRECT_MODE/production/_ext/1360937237/app.o
 .debug_loc     0x00005d52       0x14 c:/program files/microchip/xc32/v3.01/bin/bin/../../lib/gcc/pic32c/8.3.1/../../../../pic32c/lib/thumb/v7e-m+fp/hard\libpic32c.a(data_init.o)
 .debug_loc     0x00005d66     0x1041 c:/program files/microchip/xc32/v3.01/bin/bin/../../lib/gcc/pic32c/8.3.1/thumb/v7e-m+fp/hard\libgcc.a(_udivmoddi4.o)
 .debug_loc     0x00006da7       0x14 c:/program files/microchip/xc32/v3.01/bin/bin/../../lib/gcc/pic32c/8.3.1/../../../../pic32c/lib/thumb/v7e-m+fp/hard\libpic32c.a(read.o)
 .debug_loc     0x00006dbb       0x14 c:/program files/microchip/xc32/v3.01/bin/bin/../../lib/gcc/pic32c/8.3.1/../../../../pic32c/lib/thumb/v7e-m+fp/hard\libpic32c.a(write.o)

.debug_aranges  0x00000000      0xf20
 .debug_aranges
                0x00000000       0x68 build/LAN9255_SQI_DIRECT_MODE/production/_ext/1984496892/plib_clock.o
 .debug_aranges
                0x00000068       0x50 build/LAN9255_SQI_DIRECT_MODE/production/_ext/60167341/plib_eic.o
 .debug_aranges
                0x000000b8       0x20 build/LAN9255_SQI_DIRECT_MODE/production/_ext/1986646378/plib_evsys.o
 .debug_aranges
                0x000000d8       0x38 build/LAN9255_SQI_DIRECT_MODE/production/_ext/1865468468/plib_nvic.o
 .debug_aranges
                0x00000110       0xb0 build/LAN9255_SQI_DIRECT_MODE/production/_ext/1593096446/plib_nvmctrl.o
 .debug_aranges
                0x000001c0       0x90 build/LAN9255_SQI_DIRECT_MODE/production/_ext/1865488526/oledc_driver.o
 .debug_aranges
                0x00000250       0x60 build/LAN9255_SQI_DIRECT_MODE/production/_ext/1865521619/plib_port.o
 .debug_aranges
                0x000002b0       0x68 build/LAN9255_SQI_DIRECT_MODE/production/_ext/1865555181/plib_qspi.o
 .debug_aranges
                0x00000318       0x58 build/LAN9255_SQI_DIRECT_MODE/production/_ext/17022449/plib_sercom4_spi_master.o
 .debug_aranges
                0x00000370       0xc8 build/LAN9255_SQI_DIRECT_MODE/production/_ext/504274921/plib_sercom0_usart.o
 .debug_aranges
                0x00000438       0x70 build/LAN9255_SQI_DIRECT_MODE/production/_ext/1827571544/plib_systick.o
 .debug_aranges
                0x000004a8       0x28 build/LAN9255_SQI_DIRECT_MODE/production/_ext/163028504/xc32_monitor.o
 .debug_aranges
                0x000004d0       0x48 build/LAN9255_SQI_DIRECT_MODE/production/_ext/1171490990/exceptions.o
 .debug_aranges
                0x00000518       0x20 build/LAN9255_SQI_DIRECT_MODE/production/_ext/1171490990/initialization.o
 .debug_aranges
                0x00000538       0x20 build/LAN9255_SQI_DIRECT_MODE/production/_ext/1171490990/interrupts.o
 .debug_aranges
                0x00000558       0x38 build/LAN9255_SQI_DIRECT_MODE/production/_ext/1171490990/startup_xc32.o
 .debug_aranges
                0x00000590       0x20 build/LAN9255_SQI_DIRECT_MODE/production/_ext/1171490990/tasks.o
 .debug_aranges
                0x000005b0       0xe0 build/LAN9255_SQI_DIRECT_MODE/production/_ext/1671622016/Drivers.o
 .debug_aranges
                0x00000690       0x40 build/LAN9255_SQI_DIRECT_MODE/production/_ext/108147519/ESC_Utils.o
 .debug_aranges
                0x000006d0       0x90 build/LAN9255_SQI_DIRECT_MODE/production/_ext/108147519/LAN925x.o
 .debug_aranges
                0x00000760       0x38 build/LAN9255_SQI_DIRECT_MODE/production/_ext/108134065/bootmode.o
 .debug_aranges
                0x00000798       0x70 build/LAN9255_SQI_DIRECT_MODE/production/_ext/108134065/coeappl.o
 .debug_aranges
                0x00000808       0x78 build/LAN9255_SQI_DIRECT_MODE/production/_ext/108134065/ecatappl.o
 .debug_aranges
                0x00000880       0x30 build/LAN9255_SQI_DIRECT_MODE/production/_ext/108134065/ecatcoe.o
 .debug_aranges
                0x000008b0       0x30 build/LAN9255_SQI_DIRECT_MODE/production/_ext/108134065/ecatfoe.o
 .debug_aranges
                0x000008e0       0xc8 build/LAN9255_SQI_DIRECT_MODE/production/_ext/108134065/ecatslv.o
 .debug_aranges
                0x000009a8       0x60 build/LAN9255_SQI_DIRECT_MODE/production/_ext/108134065/emcy.o
 .debug_aranges
                0x00000a08       0x48 build/LAN9255_SQI_DIRECT_MODE/production/_ext/108134065/foeappl.o
 .debug_aranges
                0x00000a50       0x80 build/LAN9255_SQI_DIRECT_MODE/production/_ext/108134065/mailbox.o
 .debug_aranges
                0x00000ad0       0x78 build/LAN9255_SQI_DIRECT_MODE/production/_ext/108134065/objdef.o
 .debug_aranges
                0x00000b48       0xd0 build/LAN9255_SQI_DIRECT_MODE/production/_ext/108134065/sample_app.o
 .debug_aranges
                0x00000c18       0x50 build/LAN9255_SQI_DIRECT_MODE/production/_ext/108134065/sdoserv.o
 .debug_aranges
                0x00000c68       0x20 build/LAN9255_SQI_DIRECT_MODE/production/_ext/1360937237/main.o
 .debug_aranges
                0x00000c88       0x78 build/LAN9255_SQI_DIRECT_MODE/production/_ext/1360937237/app.o
 .debug_aranges
                0x00000d00       0x20 c:/program files/microchip/xc32/v3.01/bin/bin/../../lib/gcc/pic32c/8.3.1/../../../../pic32c/lib/thumb/v7e-m+fp/hard\libpic32c.a(data_init.o)
 .debug_aranges
                0x00000d20       0x20 c:/program files/microchip/xc32/v3.01/bin/bin/../../lib/gcc/pic32c/8.3.1/thumb/v7e-m+fp/hard\libgcc.a(_aeabi_uldivmod.o)
 .debug_aranges
                0x00000d40       0x20 c:/program files/microchip/xc32/v3.01/bin/bin/../../lib/gcc/pic32c/8.3.1/thumb/v7e-m+fp/hard\libgcc.a(_udivmoddi4.o)
 .debug_aranges
                0x00000d60       0x20 c:/program files/microchip/xc32/v3.01/bin/bin/../../lib/gcc/pic32c/8.3.1/thumb/v7e-m+fp/hard\libgcc.a(_dvmd_tls.o)
 .debug_aranges
                0x00000d80       0x20 c:/program files/microchip/xc32/v3.01/bin/bin/../../lib/gcc/pic32c/8.3.1/../../../../pic32c/lib/thumb/v7e-m+fp/hard\libpic32c.a(_close.o)
 .debug_aranges
                0x00000da0       0x20 c:/program files/microchip/xc32/v3.01/bin/bin/../../lib/gcc/pic32c/8.3.1/../../../../pic32c/lib/thumb/v7e-m+fp/hard\libpic32c.a(_fstat.o)
 .debug_aranges
                0x00000dc0       0x20 c:/program files/microchip/xc32/v3.01/bin/bin/../../lib/gcc/pic32c/8.3.1/../../../../pic32c/lib/thumb/v7e-m+fp/hard\libpic32c.a(_isatty.o)
 .debug_aranges
                0x00000de0       0x20 c:/program files/microchip/xc32/v3.01/bin/bin/../../lib/gcc/pic32c/8.3.1/../../../../pic32c/lib/thumb/v7e-m+fp/hard\libpic32c.a(_lseek.o)
 .debug_aranges
                0x00000e00       0x20 c:/program files/microchip/xc32/v3.01/bin/bin/../../lib/gcc/pic32c/8.3.1/../../../../pic32c/lib/thumb/v7e-m+fp/hard\libpic32c.a(_read.o)
 .debug_aranges
                0x00000e20       0x20 c:/program files/microchip/xc32/v3.01/bin/bin/../../lib/gcc/pic32c/8.3.1/../../../../pic32c/lib/thumb/v7e-m+fp/hard\libpic32c.a(sbrk.o)
 .debug_aranges
                0x00000e40       0x20 c:/program files/microchip/xc32/v3.01/bin/bin/../../lib/gcc/pic32c/8.3.1/../../../../pic32c/lib/thumb/v7e-m+fp/hard\libpic32c.a(_write.o)
 .debug_aranges
                0x00000e60       0x20 c:/program files/microchip/xc32/v3.01/bin/bin/../../lib/gcc/pic32c/8.3.1/../../../../pic32c/lib/thumb/v7e-m+fp/hard\libpic32c.a(close.o)
 .debug_aranges
                0x00000e80       0x20 c:/program files/microchip/xc32/v3.01/bin/bin/../../lib/gcc/pic32c/8.3.1/../../../../pic32c/lib/thumb/v7e-m+fp/hard\libpic32c.a(fstat.o)
 .debug_aranges
                0x00000ea0       0x20 c:/program files/microchip/xc32/v3.01/bin/bin/../../lib/gcc/pic32c/8.3.1/../../../../pic32c/lib/thumb/v7e-m+fp/hard\libpic32c.a(isatty.o)
 .debug_aranges
                0x00000ec0       0x20 c:/program files/microchip/xc32/v3.01/bin/bin/../../lib/gcc/pic32c/8.3.1/../../../../pic32c/lib/thumb/v7e-m+fp/hard\libpic32c.a(lseek.o)
 .debug_aranges
                0x00000ee0       0x20 c:/program files/microchip/xc32/v3.01/bin/bin/../../lib/gcc/pic32c/8.3.1/../../../../pic32c/lib/thumb/v7e-m+fp/hard\libpic32c.a(read.o)
 .debug_aranges
                0x00000f00       0x20 c:/program files/microchip/xc32/v3.01/bin/bin/../../lib/gcc/pic32c/8.3.1/../../../../pic32c/lib/thumb/v7e-m+fp/hard\libpic32c.a(write.o)

.debug_ranges   0x00000000      0xd68
 .debug_ranges  0x00000000       0x58 build/LAN9255_SQI_DIRECT_MODE/production/_ext/1984496892/plib_clock.o
 .debug_ranges  0x00000058       0x40 build/LAN9255_SQI_DIRECT_MODE/production/_ext/60167341/plib_eic.o
 .debug_ranges  0x00000098       0x10 build/LAN9255_SQI_DIRECT_MODE/production/_ext/1986646378/plib_evsys.o
 .debug_ranges  0x000000a8       0x28 build/LAN9255_SQI_DIRECT_MODE/production/_ext/1865468468/plib_nvic.o
 .debug_ranges  0x000000d0       0xa0 build/LAN9255_SQI_DIRECT_MODE/production/_ext/1593096446/plib_nvmctrl.o
 .debug_ranges  0x00000170       0x80 build/LAN9255_SQI_DIRECT_MODE/production/_ext/1865488526/oledc_driver.o
 .debug_ranges  0x000001f0       0x50 build/LAN9255_SQI_DIRECT_MODE/production/_ext/1865521619/plib_port.o
 .debug_ranges  0x00000240       0x58 build/LAN9255_SQI_DIRECT_MODE/production/_ext/1865555181/plib_qspi.o
 .debug_ranges  0x00000298       0x48 build/LAN9255_SQI_DIRECT_MODE/production/_ext/17022449/plib_sercom4_spi_master.o
 .debug_ranges  0x000002e0       0xb8 build/LAN9255_SQI_DIRECT_MODE/production/_ext/504274921/plib_sercom0_usart.o
 .debug_ranges  0x00000398       0x60 build/LAN9255_SQI_DIRECT_MODE/production/_ext/1827571544/plib_systick.o
 .debug_ranges  0x000003f8       0x18 build/LAN9255_SQI_DIRECT_MODE/production/_ext/163028504/xc32_monitor.o
 .debug_ranges  0x00000410       0x38 build/LAN9255_SQI_DIRECT_MODE/production/_ext/1171490990/exceptions.o
 .debug_ranges  0x00000448       0x10 build/LAN9255_SQI_DIRECT_MODE/production/_ext/1171490990/initialization.o
 .debug_ranges  0x00000458       0x10 build/LAN9255_SQI_DIRECT_MODE/production/_ext/1171490990/interrupts.o
 .debug_ranges  0x00000468       0x28 build/LAN9255_SQI_DIRECT_MODE/production/_ext/1171490990/startup_xc32.o
 .debug_ranges  0x00000490       0x10 build/LAN9255_SQI_DIRECT_MODE/production/_ext/1171490990/tasks.o
 .debug_ranges  0x000004a0       0xd0 build/LAN9255_SQI_DIRECT_MODE/production/_ext/1671622016/Drivers.o
 .debug_ranges  0x00000570       0x30 build/LAN9255_SQI_DIRECT_MODE/production/_ext/108147519/ESC_Utils.o
 .debug_ranges  0x000005a0       0x80 build/LAN9255_SQI_DIRECT_MODE/production/_ext/108147519/LAN925x.o
 .debug_ranges  0x00000620       0x28 build/LAN9255_SQI_DIRECT_MODE/production/_ext/108134065/bootmode.o
 .debug_ranges  0x00000648       0x78 build/LAN9255_SQI_DIRECT_MODE/production/_ext/108134065/coeappl.o
 .debug_ranges  0x000006c0       0x80 build/LAN9255_SQI_DIRECT_MODE/production/_ext/108134065/ecatappl.o
 .debug_ranges  0x00000740       0x20 build/LAN9255_SQI_DIRECT_MODE/production/_ext/108134065/ecatcoe.o
 .debug_ranges  0x00000760       0x80 build/LAN9255_SQI_DIRECT_MODE/production/_ext/108134065/ecatfoe.o
 .debug_ranges  0x000007e0       0xb8 build/LAN9255_SQI_DIRECT_MODE/production/_ext/108134065/ecatslv.o
 .debug_ranges  0x00000898       0x50 build/LAN9255_SQI_DIRECT_MODE/production/_ext/108134065/emcy.o
 .debug_ranges  0x000008e8       0x38 build/LAN9255_SQI_DIRECT_MODE/production/_ext/108134065/foeappl.o
 .debug_ranges  0x00000920       0x70 build/LAN9255_SQI_DIRECT_MODE/production/_ext/108134065/mailbox.o
 .debug_ranges  0x00000990       0x80 build/LAN9255_SQI_DIRECT_MODE/production/_ext/108134065/objdef.o
 .debug_ranges  0x00000a10       0xc0 build/LAN9255_SQI_DIRECT_MODE/production/_ext/108134065/sample_app.o
 .debug_ranges  0x00000ad0       0x68 build/LAN9255_SQI_DIRECT_MODE/production/_ext/108134065/sdoserv.o
 .debug_ranges  0x00000b38       0x10 build/LAN9255_SQI_DIRECT_MODE/production/_ext/1360937237/main.o
 .debug_ranges  0x00000b48       0x68 build/LAN9255_SQI_DIRECT_MODE/production/_ext/1360937237/app.o
 .debug_ranges  0x00000bb0       0x10 c:/program files/microchip/xc32/v3.01/bin/bin/../../lib/gcc/pic32c/8.3.1/../../../../pic32c/lib/thumb/v7e-m+fp/hard\libpic32c.a(data_init.o)
 .debug_ranges  0x00000bc0       0xd8 c:/program files/microchip/xc32/v3.01/bin/bin/../../lib/gcc/pic32c/8.3.1/thumb/v7e-m+fp/hard\libgcc.a(_udivmoddi4.o)
 .debug_ranges  0x00000c98       0x10 c:/program files/microchip/xc32/v3.01/bin/bin/../../lib/gcc/pic32c/8.3.1/../../../../pic32c/lib/thumb/v7e-m+fp/hard\libpic32c.a(_close.o)
 .debug_ranges  0x00000ca8       0x10 c:/program files/microchip/xc32/v3.01/bin/bin/../../lib/gcc/pic32c/8.3.1/../../../../pic32c/lib/thumb/v7e-m+fp/hard\libpic32c.a(_fstat.o)
 .debug_ranges  0x00000cb8       0x10 c:/program files/microchip/xc32/v3.01/bin/bin/../../lib/gcc/pic32c/8.3.1/../../../../pic32c/lib/thumb/v7e-m+fp/hard\libpic32c.a(_isatty.o)
 .debug_ranges  0x00000cc8       0x10 c:/program files/microchip/xc32/v3.01/bin/bin/../../lib/gcc/pic32c/8.3.1/../../../../pic32c/lib/thumb/v7e-m+fp/hard\libpic32c.a(_lseek.o)
 .debug_ranges  0x00000cd8       0x10 c:/program files/microchip/xc32/v3.01/bin/bin/../../lib/gcc/pic32c/8.3.1/../../../../pic32c/lib/thumb/v7e-m+fp/hard\libpic32c.a(_read.o)
 .debug_ranges  0x00000ce8       0x10 c:/program files/microchip/xc32/v3.01/bin/bin/../../lib/gcc/pic32c/8.3.1/../../../../pic32c/lib/thumb/v7e-m+fp/hard\libpic32c.a(sbrk.o)
 .debug_ranges  0x00000cf8       0x10 c:/program files/microchip/xc32/v3.01/bin/bin/../../lib/gcc/pic32c/8.3.1/../../../../pic32c/lib/thumb/v7e-m+fp/hard\libpic32c.a(_write.o)
 .debug_ranges  0x00000d08       0x10 c:/program files/microchip/xc32/v3.01/bin/bin/../../lib/gcc/pic32c/8.3.1/../../../../pic32c/lib/thumb/v7e-m+fp/hard\libpic32c.a(close.o)
 .debug_ranges  0x00000d18       0x10 c:/program files/microchip/xc32/v3.01/bin/bin/../../lib/gcc/pic32c/8.3.1/../../../../pic32c/lib/thumb/v7e-m+fp/hard\libpic32c.a(fstat.o)
 .debug_ranges  0x00000d28       0x10 c:/program files/microchip/xc32/v3.01/bin/bin/../../lib/gcc/pic32c/8.3.1/../../../../pic32c/lib/thumb/v7e-m+fp/hard\libpic32c.a(isatty.o)
 .debug_ranges  0x00000d38       0x10 c:/program files/microchip/xc32/v3.01/bin/bin/../../lib/gcc/pic32c/8.3.1/../../../../pic32c/lib/thumb/v7e-m+fp/hard\libpic32c.a(lseek.o)
 .debug_ranges  0x00000d48       0x10 c:/program files/microchip/xc32/v3.01/bin/bin/../../lib/gcc/pic32c/8.3.1/../../../../pic32c/lib/thumb/v7e-m+fp/hard\libpic32c.a(read.o)
 .debug_ranges  0x00000d58       0x10 c:/program files/microchip/xc32/v3.01/bin/bin/../../lib/gcc/pic32c/8.3.1/../../../../pic32c/lib/thumb/v7e-m+fp/hard\libpic32c.a(write.o)

.debug_line     0x00000000     0xba10
 .debug_line    0x00000000      0x363 build/LAN9255_SQI_DIRECT_MODE/production/_ext/1984496892/plib_clock.o
 .debug_line    0x00000363      0x297 build/LAN9255_SQI_DIRECT_MODE/production/_ext/60167341/plib_eic.o
 .debug_line    0x000005fa      0x131 build/LAN9255_SQI_DIRECT_MODE/production/_ext/1986646378/plib_evsys.o
 .debug_line    0x0000072b      0x23d build/LAN9255_SQI_DIRECT_MODE/production/_ext/1865468468/plib_nvic.o
 .debug_line    0x00000968      0x4b5 build/LAN9255_SQI_DIRECT_MODE/production/_ext/1593096446/plib_nvmctrl.o
 .debug_line    0x00000e1d      0x637 build/LAN9255_SQI_DIRECT_MODE/production/_ext/1865488526/oledc_driver.o
 .debug_line    0x00001454      0x2f5 build/LAN9255_SQI_DIRECT_MODE/production/_ext/1865521619/plib_port.o
 .debug_line    0x00001749      0x473 build/LAN9255_SQI_DIRECT_MODE/production/_ext/1865555181/plib_qspi.o
 .debug_line    0x00001bbc      0x598 build/LAN9255_SQI_DIRECT_MODE/production/_ext/17022449/plib_sercom4_spi_master.o
 .debug_line    0x00002154      0x734 build/LAN9255_SQI_DIRECT_MODE/production/_ext/504274921/plib_sercom0_usart.o
 .debug_line    0x00002888      0x298 build/LAN9255_SQI_DIRECT_MODE/production/_ext/1827571544/plib_systick.o
 .debug_line    0x00002b20       0x74 build/LAN9255_SQI_DIRECT_MODE/production/_ext/163028504/xc32_monitor.o
 .debug_line    0x00002b94      0x25d build/LAN9255_SQI_DIRECT_MODE/production/_ext/1171490990/exceptions.o
 .debug_line    0x00002df1      0x20a build/LAN9255_SQI_DIRECT_MODE/production/_ext/1171490990/initialization.o
 .debug_line    0x00002ffb      0x222 build/LAN9255_SQI_DIRECT_MODE/production/_ext/1171490990/interrupts.o
 .debug_line    0x0000321d      0x302 build/LAN9255_SQI_DIRECT_MODE/production/_ext/1171490990/startup_xc32.o
 .debug_line    0x0000351f      0x1f5 build/LAN9255_SQI_DIRECT_MODE/production/_ext/1171490990/tasks.o
 .debug_line    0x00003714      0x73c build/LAN9255_SQI_DIRECT_MODE/production/_ext/1671622016/Drivers.o
 .debug_line    0x00003e50      0x366 build/LAN9255_SQI_DIRECT_MODE/production/_ext/108147519/ESC_Utils.o
 .debug_line    0x000041b6      0x6b4 build/LAN9255_SQI_DIRECT_MODE/production/_ext/108147519/LAN925x.o
 .debug_line    0x0000486a      0x195 build/LAN9255_SQI_DIRECT_MODE/production/_ext/108134065/bootmode.o
 .debug_line    0x000049ff      0x5b9 build/LAN9255_SQI_DIRECT_MODE/production/_ext/108134065/coeappl.o
 .debug_line    0x00004fb8      0x876 build/LAN9255_SQI_DIRECT_MODE/production/_ext/108134065/ecatappl.o
 .debug_line    0x0000582e      0x1dd build/LAN9255_SQI_DIRECT_MODE/production/_ext/108134065/ecatcoe.o
 .debug_line    0x00005a0b      0x48c build/LAN9255_SQI_DIRECT_MODE/production/_ext/108134065/ecatfoe.o
 .debug_line    0x00005e97     0x12b7 build/LAN9255_SQI_DIRECT_MODE/production/_ext/108134065/ecatslv.o
 .debug_line    0x0000714e      0x437 build/LAN9255_SQI_DIRECT_MODE/production/_ext/108134065/emcy.o
 .debug_line    0x00007585      0x361 build/LAN9255_SQI_DIRECT_MODE/production/_ext/108134065/foeappl.o
 .debug_line    0x000078e6      0x797 build/LAN9255_SQI_DIRECT_MODE/production/_ext/108134065/mailbox.o
 .debug_line    0x0000807d      0xd23 build/LAN9255_SQI_DIRECT_MODE/production/_ext/108134065/objdef.o
 .debug_line    0x00008da0      0x8f0 build/LAN9255_SQI_DIRECT_MODE/production/_ext/108134065/sample_app.o
 .debug_line    0x00009690      0xaf9 build/LAN9255_SQI_DIRECT_MODE/production/_ext/108134065/sdoserv.o
 .debug_line    0x0000a189      0x1f1 build/LAN9255_SQI_DIRECT_MODE/production/_ext/1360937237/main.o
 .debug_line    0x0000a37a      0x5f2 build/LAN9255_SQI_DIRECT_MODE/production/_ext/1360937237/app.o
 .debug_line    0x0000a96c      0x110 c:/program files/microchip/xc32/v3.01/bin/bin/../../lib/gcc/pic32c/8.3.1/../../../../pic32c/lib/thumb/v7e-m+fp/hard\libpic32c.a(data_init.o)
 .debug_line    0x0000aa7c       0x9c c:/program files/microchip/xc32/v3.01/bin/bin/../../lib/gcc/pic32c/8.3.1/thumb/v7e-m+fp/hard\libgcc.a(_aeabi_uldivmod.o)
 .debug_line    0x0000ab18      0x57e c:/program files/microchip/xc32/v3.01/bin/bin/../../lib/gcc/pic32c/8.3.1/thumb/v7e-m+fp/hard\libgcc.a(_udivmoddi4.o)
 .debug_line    0x0000b096       0x9c c:/program files/microchip/xc32/v3.01/bin/bin/../../lib/gcc/pic32c/8.3.1/thumb/v7e-m+fp/hard\libgcc.a(_dvmd_tls.o)
 .debug_line    0x0000b132       0x9f c:/program files/microchip/xc32/v3.01/bin/bin/../../lib/gcc/pic32c/8.3.1/../../../../pic32c/lib/thumb/v7e-m+fp/hard\libpic32c.a(_close.o)
 .debug_line    0x0000b1d1       0x9f c:/program files/microchip/xc32/v3.01/bin/bin/../../lib/gcc/pic32c/8.3.1/../../../../pic32c/lib/thumb/v7e-m+fp/hard\libpic32c.a(_fstat.o)
 .debug_line    0x0000b270       0xa0 c:/program files/microchip/xc32/v3.01/bin/bin/../../lib/gcc/pic32c/8.3.1/../../../../pic32c/lib/thumb/v7e-m+fp/hard\libpic32c.a(_isatty.o)
 .debug_line    0x0000b310       0x9f c:/program files/microchip/xc32/v3.01/bin/bin/../../lib/gcc/pic32c/8.3.1/../../../../pic32c/lib/thumb/v7e-m+fp/hard\libpic32c.a(_lseek.o)
 .debug_line    0x0000b3af       0x9e c:/program files/microchip/xc32/v3.01/bin/bin/../../lib/gcc/pic32c/8.3.1/../../../../pic32c/lib/thumb/v7e-m+fp/hard\libpic32c.a(_read.o)
 .debug_line    0x0000b44d       0xb5 c:/program files/microchip/xc32/v3.01/bin/bin/../../lib/gcc/pic32c/8.3.1/../../../../pic32c/lib/thumb/v7e-m+fp/hard\libpic32c.a(sbrk.o)
 .debug_line    0x0000b502       0x9f c:/program files/microchip/xc32/v3.01/bin/bin/../../lib/gcc/pic32c/8.3.1/../../../../pic32c/lib/thumb/v7e-m+fp/hard\libpic32c.a(_write.o)
 .debug_line    0x0000b5a1       0x9e c:/program files/microchip/xc32/v3.01/bin/bin/../../lib/gcc/pic32c/8.3.1/../../../../pic32c/lib/thumb/v7e-m+fp/hard\libpic32c.a(close.o)
 .debug_line    0x0000b63f      0x106 c:/program files/microchip/xc32/v3.01/bin/bin/../../lib/gcc/pic32c/8.3.1/../../../../pic32c/lib/thumb/v7e-m+fp/hard\libpic32c.a(fstat.o)
 .debug_line    0x0000b745       0x9d c:/program files/microchip/xc32/v3.01/bin/bin/../../lib/gcc/pic32c/8.3.1/../../../../pic32c/lib/thumb/v7e-m+fp/hard\libpic32c.a(isatty.o)
 .debug_line    0x0000b7e2       0x9e c:/program files/microchip/xc32/v3.01/bin/bin/../../lib/gcc/pic32c/8.3.1/../../../../pic32c/lib/thumb/v7e-m+fp/hard\libpic32c.a(lseek.o)
 .debug_line    0x0000b880       0xc0 c:/program files/microchip/xc32/v3.01/bin/bin/../../lib/gcc/pic32c/8.3.1/../../../../pic32c/lib/thumb/v7e-m+fp/hard\libpic32c.a(read.o)
 .debug_line    0x0000b940       0xd0 c:/program files/microchip/xc32/v3.01/bin/bin/../../lib/gcc/pic32c/8.3.1/../../../../pic32c/lib/thumb/v7e-m+fp/hard\libpic32c.a(write.o)

.debug_str      0x00000000      0xaba
 .debug_str     0x00000000       0x1e build/LAN9255_SQI_DIRECT_MODE/production/_ext/1984496892/plib_clock.o
 .debug_str     0x0000001e        0x9 build/LAN9255_SQI_DIRECT_MODE/production/_ext/60167341/plib_eic.o
 .debug_str     0x00000027        0x0 build/LAN9255_SQI_DIRECT_MODE/production/_ext/1986646378/plib_evsys.o
 .debug_str     0x00000027        0xa build/LAN9255_SQI_DIRECT_MODE/production/_ext/1865468468/plib_nvic.o
 .debug_str     0x00000031       0x29 build/LAN9255_SQI_DIRECT_MODE/production/_ext/1593096446/plib_nvmctrl.o
 .debug_str     0x0000005a       0x28 build/LAN9255_SQI_DIRECT_MODE/production/_ext/1865488526/oledc_driver.o
 .debug_str     0x00000082        0xb build/LAN9255_SQI_DIRECT_MODE/production/_ext/1865521619/plib_port.o
 .debug_str     0x0000008d       0x9a build/LAN9255_SQI_DIRECT_MODE/production/_ext/1865555181/plib_qspi.o
 .debug_str     0x00000127      0x149 build/LAN9255_SQI_DIRECT_MODE/production/_ext/17022449/plib_sercom4_spi_master.o
 .debug_str     0x00000270      0x12c build/LAN9255_SQI_DIRECT_MODE/production/_ext/504274921/plib_sercom0_usart.o
 .debug_str     0x0000039c        0x9 build/LAN9255_SQI_DIRECT_MODE/production/_ext/1827571544/plib_systick.o
 .debug_str     0x000003a5        0x0 build/LAN9255_SQI_DIRECT_MODE/production/_ext/163028504/xc32_monitor.o
 .debug_str     0x000003a5        0xe build/LAN9255_SQI_DIRECT_MODE/production/_ext/1171490990/exceptions.o
 .debug_str     0x000003b3        0xe build/LAN9255_SQI_DIRECT_MODE/production/_ext/1171490990/initialization.o
 .debug_str     0x000003c1        0xe build/LAN9255_SQI_DIRECT_MODE/production/_ext/1171490990/interrupts.o
 .debug_str     0x000003cf        0xe build/LAN9255_SQI_DIRECT_MODE/production/_ext/1171490990/startup_xc32.o
 .debug_str     0x000003dd        0xe build/LAN9255_SQI_DIRECT_MODE/production/_ext/1171490990/tasks.o
 .debug_str     0x000003eb       0x6d build/LAN9255_SQI_DIRECT_MODE/production/_ext/1671622016/Drivers.o
 .debug_str     0x00000458        0xe build/LAN9255_SQI_DIRECT_MODE/production/_ext/108147519/ESC_Utils.o
 .debug_str     0x00000466       0x4b build/LAN9255_SQI_DIRECT_MODE/production/_ext/108147519/LAN925x.o
 .debug_str     0x000004b1        0xe build/LAN9255_SQI_DIRECT_MODE/production/_ext/108134065/bootmode.o
 .debug_str     0x000004bf       0x48 build/LAN9255_SQI_DIRECT_MODE/production/_ext/108134065/coeappl.o
 .debug_str     0x00000507       0x4a build/LAN9255_SQI_DIRECT_MODE/production/_ext/108134065/ecatappl.o
 .debug_str     0x00000551       0x35 build/LAN9255_SQI_DIRECT_MODE/production/_ext/108134065/ecatcoe.o
 .debug_str     0x00000586       0x24 build/LAN9255_SQI_DIRECT_MODE/production/_ext/108134065/ecatfoe.o
 .debug_str     0x000005aa       0x6b build/LAN9255_SQI_DIRECT_MODE/production/_ext/108134065/ecatslv.o
 .debug_str     0x00000615       0x2d build/LAN9255_SQI_DIRECT_MODE/production/_ext/108134065/emcy.o
 .debug_str     0x00000642       0x31 build/LAN9255_SQI_DIRECT_MODE/production/_ext/108134065/foeappl.o
 .debug_str     0x00000673       0x50 build/LAN9255_SQI_DIRECT_MODE/production/_ext/108134065/mailbox.o
 .debug_str     0x000006c3       0xa5 build/LAN9255_SQI_DIRECT_MODE/production/_ext/108134065/objdef.o
 .debug_str     0x00000768       0x66 build/LAN9255_SQI_DIRECT_MODE/production/_ext/108134065/sample_app.o
 .debug_str     0x000007ce       0xa8 build/LAN9255_SQI_DIRECT_MODE/production/_ext/108134065/sdoserv.o
 .debug_str     0x00000876        0xe build/LAN9255_SQI_DIRECT_MODE/production/_ext/1360937237/main.o
 .debug_str     0x00000884       0x56 build/LAN9255_SQI_DIRECT_MODE/production/_ext/1360937237/app.o
 .debug_str     0x000008da        0x0 c:/program files/microchip/xc32/v3.01/bin/bin/../../lib/gcc/pic32c/8.3.1/../../../../pic32c/lib/thumb/v7e-m+fp/hard\libpic32c.a(data_init.o)
 .debug_str     0x000008da       0xee c:/program files/microchip/xc32/v3.01/bin/bin/../../lib/gcc/pic32c/8.3.1/thumb/v7e-m+fp/hard\libgcc.a(_aeabi_uldivmod.o)
 .debug_str     0x000009c8        0x0 c:/program files/microchip/xc32/v3.01/bin/bin/../../lib/gcc/pic32c/8.3.1/thumb/v7e-m+fp/hard\libgcc.a(_udivmoddi4.o)
 .debug_str     0x000009c8       0xf2 c:/program files/microchip/xc32/v3.01/bin/bin/../../lib/gcc/pic32c/8.3.1/thumb/v7e-m+fp/hard\libgcc.a(_dvmd_tls.o)
 .debug_str     0x00000aba        0x0 c:/program files/microchip/xc32/v3.01/bin/bin/../../lib/gcc/pic32c/8.3.1/../../../../pic32c/lib/thumb/v7e-m+fp/hard\libpic32c.a(_close.o)
 .debug_str     0x00000aba        0x0 c:/program files/microchip/xc32/v3.01/bin/bin/../../lib/gcc/pic32c/8.3.1/../../../../pic32c/lib/thumb/v7e-m+fp/hard\libpic32c.a(_fstat.o)
 .debug_str     0x00000aba        0x0 c:/program files/microchip/xc32/v3.01/bin/bin/../../lib/gcc/pic32c/8.3.1/../../../../pic32c/lib/thumb/v7e-m+fp/hard\libpic32c.a(_isatty.o)
 .debug_str     0x00000aba        0x0 c:/program files/microchip/xc32/v3.01/bin/bin/../../lib/gcc/pic32c/8.3.1/../../../../pic32c/lib/thumb/v7e-m+fp/hard\libpic32c.a(_lseek.o)
 .debug_str     0x00000aba        0x0 c:/program files/microchip/xc32/v3.01/bin/bin/../../lib/gcc/pic32c/8.3.1/../../../../pic32c/lib/thumb/v7e-m+fp/hard\libpic32c.a(_read.o)
 .debug_str     0x00000aba        0x0 c:/program files/microchip/xc32/v3.01/bin/bin/../../lib/gcc/pic32c/8.3.1/../../../../pic32c/lib/thumb/v7e-m+fp/hard\libpic32c.a(sbrk.o)
 .debug_str     0x00000aba        0x0 c:/program files/microchip/xc32/v3.01/bin/bin/../../lib/gcc/pic32c/8.3.1/../../../../pic32c/lib/thumb/v7e-m+fp/hard\libpic32c.a(_write.o)
 .debug_str     0x00000aba        0x0 c:/program files/microchip/xc32/v3.01/bin/bin/../../lib/gcc/pic32c/8.3.1/../../../../pic32c/lib/thumb/v7e-m+fp/hard\libpic32c.a(close.o)
 .debug_str     0x00000aba        0x0 c:/program files/microchip/xc32/v3.01/bin/bin/../../lib/gcc/pic32c/8.3.1/../../../../pic32c/lib/thumb/v7e-m+fp/hard\libpic32c.a(fstat.o)
 .debug_str     0x00000aba        0x0 c:/program files/microchip/xc32/v3.01/bin/bin/../../lib/gcc/pic32c/8.3.1/../../../../pic32c/lib/thumb/v7e-m+fp/hard\libpic32c.a(isatty.o)
 .debug_str     0x00000aba        0x0 c:/program files/microchip/xc32/v3.01/bin/bin/../../lib/gcc/pic32c/8.3.1/../../../../pic32c/lib/thumb/v7e-m+fp/hard\libpic32c.a(lseek.o)
 .debug_str     0x00000aba        0x0 c:/program files/microchip/xc32/v3.01/bin/bin/../../lib/gcc/pic32c/8.3.1/../../../../pic32c/lib/thumb/v7e-m+fp/hard\libpic32c.a(read.o)
 .debug_str     0x00000aba        0x0 c:/program files/microchip/xc32/v3.01/bin/bin/../../lib/gcc/pic32c/8.3.1/../../../../pic32c/lib/thumb/v7e-m+fp/hard\libpic32c.a(write.o)

.debug_frame    0x00000000     0x300c
 .debug_frame   0x00000000      0x14c build/LAN9255_SQI_DIRECT_MODE/production/_ext/1984496892/plib_clock.o
 .debug_frame   0x0000014c       0xfc build/LAN9255_SQI_DIRECT_MODE/production/_ext/60167341/plib_eic.o
 .debug_frame   0x00000248       0x30 build/LAN9255_SQI_DIRECT_MODE/production/_ext/1986646378/plib_evsys.o
 .debug_frame   0x00000278       0xa4 build/LAN9255_SQI_DIRECT_MODE/production/_ext/1865468468/plib_nvic.o
 .debug_frame   0x0000031c      0x2ac build/LAN9255_SQI_DIRECT_MODE/production/_ext/1593096446/plib_nvmctrl.o
 .debug_frame   0x000005c8      0x238 build/LAN9255_SQI_DIRECT_MODE/production/_ext/1865488526/oledc_driver.o
 .debug_frame   0x00000800      0x170 build/LAN9255_SQI_DIRECT_MODE/production/_ext/1865521619/plib_port.o
 .debug_frame   0x00000970      0x180 build/LAN9255_SQI_DIRECT_MODE/production/_ext/1865555181/plib_qspi.o
 .debug_frame   0x00000af0      0x134 build/LAN9255_SQI_DIRECT_MODE/production/_ext/17022449/plib_sercom4_spi_master.o
 .debug_frame   0x00000c24      0x304 build/LAN9255_SQI_DIRECT_MODE/production/_ext/504274921/plib_sercom0_usart.o
 .debug_frame   0x00000f28      0x184 build/LAN9255_SQI_DIRECT_MODE/production/_ext/1827571544/plib_systick.o
 .debug_frame   0x000010ac       0x60 build/LAN9255_SQI_DIRECT_MODE/production/_ext/163028504/xc32_monitor.o
 .debug_frame   0x0000110c       0xa0 build/LAN9255_SQI_DIRECT_MODE/production/_ext/1171490990/exceptions.o
 .debug_frame   0x000011ac       0x34 build/LAN9255_SQI_DIRECT_MODE/production/_ext/1171490990/initialization.o
 .debug_frame   0x000011e0       0x20 build/LAN9255_SQI_DIRECT_MODE/production/_ext/1171490990/interrupts.o
 .debug_frame   0x00001200       0x98 build/LAN9255_SQI_DIRECT_MODE/production/_ext/1171490990/startup_xc32.o
 .debug_frame   0x00001298       0x2c build/LAN9255_SQI_DIRECT_MODE/production/_ext/1171490990/tasks.o
 .debug_frame   0x000012c4      0x37c build/LAN9255_SQI_DIRECT_MODE/production/_ext/1671622016/Drivers.o
 .debug_frame   0x00001640       0xb4 build/LAN9255_SQI_DIRECT_MODE/production/_ext/108147519/ESC_Utils.o
 .debug_frame   0x000016f4      0x22c build/LAN9255_SQI_DIRECT_MODE/production/_ext/108147519/LAN925x.o
 .debug_frame   0x00001920       0xa8 build/LAN9255_SQI_DIRECT_MODE/production/_ext/108134065/bootmode.o
 .debug_frame   0x000019c8      0x1b0 build/LAN9255_SQI_DIRECT_MODE/production/_ext/108134065/coeappl.o
 .debug_frame   0x00001b78      0x1b0 build/LAN9255_SQI_DIRECT_MODE/production/_ext/108134065/ecatappl.o
 .debug_frame   0x00001d28       0x78 build/LAN9255_SQI_DIRECT_MODE/production/_ext/108134065/ecatcoe.o
 .debug_frame   0x00001da0       0x7c build/LAN9255_SQI_DIRECT_MODE/production/_ext/108134065/ecatfoe.o
 .debug_frame   0x00001e1c      0x320 build/LAN9255_SQI_DIRECT_MODE/production/_ext/108134065/ecatslv.o
 .debug_frame   0x0000213c      0x160 build/LAN9255_SQI_DIRECT_MODE/production/_ext/108134065/emcy.o
 .debug_frame   0x0000229c       0xec build/LAN9255_SQI_DIRECT_MODE/production/_ext/108134065/foeappl.o
 .debug_frame   0x00002388      0x1ec build/LAN9255_SQI_DIRECT_MODE/production/_ext/108134065/mailbox.o
 .debug_frame   0x00002574      0x1e4 build/LAN9255_SQI_DIRECT_MODE/production/_ext/108134065/objdef.o
 .debug_frame   0x00002758      0x338 build/LAN9255_SQI_DIRECT_MODE/production/_ext/108134065/sample_app.o
 .debug_frame   0x00002a90      0x120 build/LAN9255_SQI_DIRECT_MODE/production/_ext/108134065/sdoserv.o
 .debug_frame   0x00002bb0       0x2c build/LAN9255_SQI_DIRECT_MODE/production/_ext/1360937237/main.o
 .debug_frame   0x00002bdc      0x1e0 build/LAN9255_SQI_DIRECT_MODE/production/_ext/1360937237/app.o
 .debug_frame   0x00002dbc       0x38 c:/program files/microchip/xc32/v3.01/bin/bin/../../lib/gcc/pic32c/8.3.1/../../../../pic32c/lib/thumb/v7e-m+fp/hard\libpic32c.a(data_init.o)
 .debug_frame   0x00002df4       0x2c c:/program files/microchip/xc32/v3.01/bin/bin/../../lib/gcc/pic32c/8.3.1/thumb/v7e-m+fp/hard\libgcc.a(_aeabi_uldivmod.o)
 .debug_frame   0x00002e20       0x34 c:/program files/microchip/xc32/v3.01/bin/bin/../../lib/gcc/pic32c/8.3.1/thumb/v7e-m+fp/hard\libgcc.a(_udivmoddi4.o)
 .debug_frame   0x00002e54       0x20 c:/program files/microchip/xc32/v3.01/bin/bin/../../lib/gcc/pic32c/8.3.1/../../../../pic32c/lib/thumb/v7e-m+fp/hard\libpic32c.a(_close.o)
 .debug_frame   0x00002e74       0x20 c:/program files/microchip/xc32/v3.01/bin/bin/../../lib/gcc/pic32c/8.3.1/../../../../pic32c/lib/thumb/v7e-m+fp/hard\libpic32c.a(_fstat.o)
 .debug_frame   0x00002e94       0x20 c:/program files/microchip/xc32/v3.01/bin/bin/../../lib/gcc/pic32c/8.3.1/../../../../pic32c/lib/thumb/v7e-m+fp/hard\libpic32c.a(_isatty.o)
 .debug_frame   0x00002eb4       0x20 c:/program files/microchip/xc32/v3.01/bin/bin/../../lib/gcc/pic32c/8.3.1/../../../../pic32c/lib/thumb/v7e-m+fp/hard\libpic32c.a(_lseek.o)
 .debug_frame   0x00002ed4       0x20 c:/program files/microchip/xc32/v3.01/bin/bin/../../lib/gcc/pic32c/8.3.1/../../../../pic32c/lib/thumb/v7e-m+fp/hard\libpic32c.a(_read.o)
 .debug_frame   0x00002ef4       0x20 c:/program files/microchip/xc32/v3.01/bin/bin/../../lib/gcc/pic32c/8.3.1/../../../../pic32c/lib/thumb/v7e-m+fp/hard\libpic32c.a(sbrk.o)
 .debug_frame   0x00002f14       0x20 c:/program files/microchip/xc32/v3.01/bin/bin/../../lib/gcc/pic32c/8.3.1/../../../../pic32c/lib/thumb/v7e-m+fp/hard\libpic32c.a(_write.o)
 .debug_frame   0x00002f34       0x20 c:/program files/microchip/xc32/v3.01/bin/bin/../../lib/gcc/pic32c/8.3.1/../../../../pic32c/lib/thumb/v7e-m+fp/hard\libpic32c.a(close.o)
 .debug_frame   0x00002f54       0x20 c:/program files/microchip/xc32/v3.01/bin/bin/../../lib/gcc/pic32c/8.3.1/../../../../pic32c/lib/thumb/v7e-m+fp/hard\libpic32c.a(fstat.o)
 .debug_frame   0x00002f74       0x20 c:/program files/microchip/xc32/v3.01/bin/bin/../../lib/gcc/pic32c/8.3.1/../../../../pic32c/lib/thumb/v7e-m+fp/hard\libpic32c.a(isatty.o)
 .debug_frame   0x00002f94       0x20 c:/program files/microchip/xc32/v3.01/bin/bin/../../lib/gcc/pic32c/8.3.1/../../../../pic32c/lib/thumb/v7e-m+fp/hard\libpic32c.a(lseek.o)
 .debug_frame   0x00002fb4       0x2c c:/program files/microchip/xc32/v3.01/bin/bin/../../lib/gcc/pic32c/8.3.1/../../../../pic32c/lib/thumb/v7e-m+fp/hard\libpic32c.a(read.o)
 .debug_frame   0x00002fe0       0x2c c:/program files/microchip/xc32/v3.01/bin/bin/../../lib/gcc/pic32c/8.3.1/../../../../pic32c/lib/thumb/v7e-m+fp/hard\libpic32c.a(write.o)

.stack          0x20003458      0x100
 .stack         0x20003458      0x100 stack

.data.GenObjDic%1
                0x2000243c      0x1e0
 .data.GenObjDic
                0x2000243c      0x1e0 build/LAN9255_SQI_DIRECT_MODE/production/_ext/108134065/coeappl.o
                0x2000243c                GenObjDic

.data.ApplicationObjDic%2
                0x2000261c      0x1b8
 .data.ApplicationObjDic
                0x2000261c      0x1b8 build/LAN9255_SQI_DIRECT_MODE/production/_ext/108134065/coeappl.o
                0x2000261c                ApplicationObjDic

.data.__global_locale%3
                0x200027d4      0x16c
 .data.__global_locale
                0x200027d4      0x16c c:/program files/microchip/xc32/v3.01/bin/bin/../../lib/gcc/pic32c/8.3.1/../../../../pic32c/lib/thumb/v7e-m+fp/hard\libc_nano.a(lib_a-locale.o)
                0x200027d4                __global_locale

.bss.gau8rx_data%4
                0x20002940       0x80
 .bss.gau8rx_data
                0x20002940       0x80 build/LAN9255_SQI_DIRECT_MODE/production/_ext/1671622016/Drivers.o

.data.impure_data%5
                0x200029c0       0x60
 .data.impure_data
                0x200029c0       0x60 c:/program files/microchip/xc32/v3.01/bin/bin/../../lib/gcc/pic32c/8.3.1/../../../../pic32c/lib/thumb/v7e-m+fp/hard\libc_nano.a(lib_a-impure.o)

.data.gau8DummyCntArr%6
                0x20002a20       0x27
 .data.gau8DummyCntArr
                0x20002a20       0x27 build/LAN9255_SQI_DIRECT_MODE/production/_ext/108147519/LAN925x.o
                0x20002a20                gau8DummyCntArr

.data.Configure_uartProcessDataMapping0x1600%7
                0x20002a48       0x20
 .data.Configure_uartProcessDataMapping0x1600
                0x20002a48       0x20 build/LAN9255_SQI_DIRECT_MODE/production/_ext/108134065/sample_app.o
                0x20002a48                Configure_uartProcessDataMapping0x1600

.bss.__sf_fake_stderr%8
                0x20002a68       0x20
 .bss.__sf_fake_stderr
                0x20002a68       0x20 c:/program files/microchip/xc32/v3.01/bin/bin/../../lib/gcc/pic32c/8.3.1/../../../../pic32c/lib/thumb/v7e-m+fp/hard\libc_nano.a(lib_a-findfp.o)
                0x20002a68                __sf_fake_stderr

.bss.__sf_fake_stdin%9
                0x20002a88       0x20
 .bss.__sf_fake_stdin
                0x20002a88       0x20 c:/program files/microchip/xc32/v3.01/bin/bin/../../lib/gcc/pic32c/8.3.1/../../../../pic32c/lib/thumb/v7e-m+fp/hard\libc_nano.a(lib_a-findfp.o)
                0x20002a88                __sf_fake_stdin

.bss.__sf_fake_stdout%10
                0x20002aa8       0x20
 .bss.__sf_fake_stdout
                0x20002aa8       0x20 c:/program files/microchip/xc32/v3.01/bin/bin/../../lib/gcc/pic32c/8.3.1/../../../../pic32c/lib/thumb/v7e-m+fp/hard\libc_nano.a(lib_a-findfp.o)
                0x20002aa8                __sf_fake_stdout

.bss%11         0x20002ac8       0x1c
 .bss           0x20002ac8       0x1c c:/program files/microchip/xc32/v3.01/bin/bin/../../lib/gcc/pic32c/8.3.1/thumb/v7e-m+fp/hard/crtbegin.o

.data.acDevicename%12
                0x20002ae4       0x16
 .data.acDevicename
                0x20002ae4       0x16 build/LAN9255_SQI_DIRECT_MODE/production/_ext/108134065/coeappl.o
                0x20002ae4                acDevicename

.data.sIdentity%13
                0x20002afc       0x14
 .data.sIdentity
                0x20002afc       0x14 build/LAN9255_SQI_DIRECT_MODE/production/_ext/108134065/coeappl.o
                0x20002afc                sIdentity

.data.OutputsProcessDataMapping0x1601%14
                0x20002b10       0x14
 .data.OutputsProcessDataMapping0x1601
                0x20002b10       0x14 build/LAN9255_SQI_DIRECT_MODE/production/_ext/108134065/sample_app.o
                0x20002b10                OutputsProcessDataMapping0x1601

.data.text2%15  0x20002b24       0x11
 .data.text2    0x20002b24       0x11 build/LAN9255_SQI_DIRECT_MODE/production/_ext/1360937237/app.o
                0x20002b24                text2

.data.text3%16  0x20002b38       0x11
 .data.text3    0x20002b38       0x11 build/LAN9255_SQI_DIRECT_MODE/production/_ext/1360937237/app.o
                0x20002b38                text3

.data.aSubindexDesc%17
                0x20002b4c        0xd
 .data.aSubindexDesc
                0x20002b4c        0xd build/LAN9255_SQI_DIRECT_MODE/production/_ext/108134065/objdef.o
                0x20002b4c                aSubindexDesc

.data.sErrorSettings%18
                0x20002b5c        0xc
 .data.sErrorSettings
                0x20002b5c        0xc build/LAN9255_SQI_DIRECT_MODE/production/_ext/108134065/objdef.o
                0x20002b5c                sErrorSettings

.data.InputsProcessDataMapping0x1A00%19
                0x20002b68        0xc
 .data.InputsProcessDataMapping0x1A00
                0x20002b68        0xc build/LAN9255_SQI_DIRECT_MODE/production/_ext/108134065/sample_app.o
                0x20002b68                InputsProcessDataMapping0x1A00

.data.Inputs0x6000%20
                0x20002b74        0xc
 .data.Inputs0x6000
                0x20002b74        0xc build/LAN9255_SQI_DIRECT_MODE/production/_ext/108134065/sample_app.o
                0x20002b74                Inputs0x6000

.data.Outputs0x7010%21
                0x20002b80        0xc
 .data.Outputs0x7010
                0x20002b80        0xc build/LAN9255_SQI_DIRECT_MODE/production/_ext/108134065/sample_app.o
                0x20002b80                Outputs0x7010

.data.Configure_uart0x8000%22
                0x20002b8c        0xc
 .data.Configure_uart0x8000
                0x20002b8c        0xc build/LAN9255_SQI_DIRECT_MODE/production/_ext/108134065/sample_app.o
                0x20002b8c                Configure_uart0x8000

.bss.u64Timestamp%23
                0x20002b98        0x8
 .bss.u64Timestamp
                0x20002b98        0x8 build/LAN9255_SQI_DIRECT_MODE/production/_ext/108134065/coeappl.o
                0x20002b98                u64Timestamp

.data.Uart_statusProcessDataMapping0x1A02%24
                0x20002ba0        0x8
 .data.Uart_statusProcessDataMapping0x1A02
                0x20002ba0        0x8 build/LAN9255_SQI_DIRECT_MODE/production/_ext/108134065/sample_app.o
                0x20002ba0                Uart_statusProcessDataMapping0x1A02

.data.Uart_status0x6021%25
                0x20002ba8        0x8
 .data.Uart_status0x6021
                0x20002ba8        0x8 build/LAN9255_SQI_DIRECT_MODE/production/_ext/108134065/sample_app.o
                0x20002ba8                Uart_status0x6021

.data.uart_config%26
                0x20002bb0        0x8
 .data.uart_config
                0x20002bb0        0x8 build/LAN9255_SQI_DIRECT_MODE/production/_ext/108134065/sample_app.o

.data.text1%27  0x20002bb8        0x7
 .data.text1    0x20002bb8        0x7 build/LAN9255_SQI_DIRECT_MODE/production/_ext/1360937237/app.o
                0x20002bb8                text1

.data.sSyncmanagertype%28
                0x20002bc0        0x6
 .data.sSyncmanagertype
                0x20002bc0        0x6 build/LAN9255_SQI_DIRECT_MODE/production/_ext/108134065/coeappl.o
                0x20002bc0                sSyncmanagertype

.data.sRxPDOassign%29
                0x20002bc8        0x6
 .data.sRxPDOassign
                0x20002bc8        0x6 build/LAN9255_SQI_DIRECT_MODE/production/_ext/108134065/sample_app.o
                0x20002bc8                sRxPDOassign

.data.sTxPDOassign%30
                0x20002bd0        0x6
 .data.sTxPDOassign
                0x20002bd0        0x6 build/LAN9255_SQI_DIRECT_MODE/production/_ext/108134065/sample_app.o
                0x20002bd0                sTxPDOassign

.bss._font%31   0x20002bd8        0x4
 .bss._font     0x20002bd8        0x4 build/LAN9255_SQI_DIRECT_MODE/production/_ext/1865488526/oledc_driver.o

.data.u32Devicetype%32
                0x20002bdc        0x4
 .data.u32Devicetype
                0x20002bdc        0x4 build/LAN9255_SQI_DIRECT_MODE/production/_ext/108134065/coeappl.o
                0x20002bdc                u32Devicetype

.data.acHardwareversion%33
                0x20002be0        0x4
 .data.acHardwareversion
                0x20002be0        0x4 build/LAN9255_SQI_DIRECT_MODE/production/_ext/108134065/coeappl.o
                0x20002be0                acHardwareversion

.data.acSoftwareversion%34
                0x20002be4        0x4
 .data.acSoftwareversion
                0x20002be4        0x4 build/LAN9255_SQI_DIRECT_MODE/production/_ext/108134065/coeappl.o
                0x20002be4                acSoftwareversion

.bss.ObjDicList%35
                0x20002be8        0x4
 .bss.ObjDicList
                0x20002be8        0x4 build/LAN9255_SQI_DIRECT_MODE/production/_ext/108134065/coeappl.o
                0x20002be8                ObjDicList

.bss.SMActivate%36
                0x20002bec        0x4
 .bss.SMActivate
                0x20002bec        0x4 build/LAN9255_SQI_DIRECT_MODE/production/_ext/108134065/ecatslv.o
                0x20002bec                SMActivate

.bss.gTriggerCounterValMeasure%37
                0x20002bf0        0x4
 .bss.gTriggerCounterValMeasure
                0x20002bf0        0x4 build/LAN9255_SQI_DIRECT_MODE/production/_ext/108134065/sample_app.o
                0x20002bf0                gTriggerCounterValMeasure

.data.gFOETestFrameSize%38
                0x20002bf4        0x4
 .data.gFOETestFrameSize
                0x20002bf4        0x4 build/LAN9255_SQI_DIRECT_MODE/production/_ext/108134065/sample_app.o
                0x20002bf4                gFOETestFrameSize

.data.uart_rd_status%39
                0x20002bf8        0x4
 .data.uart_rd_status
                0x20002bf8        0x4 build/LAN9255_SQI_DIRECT_MODE/production/_ext/108134065/sample_app.o
                0x20002bf8                uart_rd_status

.bss.nFileWriteOffset%40
                0x20002bfc        0x4
 .bss.nFileWriteOffset
                0x20002bfc        0x4 build/LAN9255_SQI_DIRECT_MODE/production/_ext/108134065/sample_app.o
                0x20002bfc                nFileWriteOffset

.bss.nFileTotalLengthOffset%41
                0x20002c00        0x4
 .bss.nFileTotalLengthOffset
                0x20002c00        0x4 build/LAN9255_SQI_DIRECT_MODE/production/_ext/108134065/sample_app.o
                0x20002c00                nFileTotalLengthOffset

.bss.nFileStartWriteAddress%42
                0x20002c04        0x4
 .bss.nFileStartWriteAddress
                0x20002c04        0x4 build/LAN9255_SQI_DIRECT_MODE/production/_ext/108134065/sample_app.o
                0x20002c04                nFileStartWriteAddress

.bss.u32FileSize%43
                0x20002c08        0x4
 .bss.u32FileSize
                0x20002c08        0x4 build/LAN9255_SQI_DIRECT_MODE/production/_ext/108134065/sample_app.o
                0x20002c08                u32FileSize

.bss%44         0x20002c0c        0x4
 .bss           0x20002c0c        0x4 c:/program files/microchip/xc32/v3.01/bin/bin/../../lib/gcc/pic32c/8.3.1/../../../../pic32c/lib/thumb/v7e-m+fp/hard\libpic32c.a(data_init.o)

.bss.__malloc_free_list%45
                0x20002c10        0x4
 .bss.__malloc_free_list
                0x20002c10        0x4 c:/program files/microchip/xc32/v3.01/bin/bin/../../lib/gcc/pic32c/8.3.1/../../../../pic32c/lib/thumb/v7e-m+fp/hard\libc_nano.a(lib_a-nano-mallocr.o)
                0x20002c10                __malloc_free_list

.bss.__malloc_sbrk_start%46
                0x20002c14        0x4
 .bss.__malloc_sbrk_start
                0x20002c14        0x4 c:/program files/microchip/xc32/v3.01/bin/bin/../../lib/gcc/pic32c/8.3.1/../../../../pic32c/lib/thumb/v7e-m+fp/hard\libc_nano.a(lib_a-nano-mallocr.o)
                0x20002c14                __malloc_sbrk_start

.data._impure_ptr%47
                0x20002c18        0x4
 .data._impure_ptr
                0x20002c18        0x4 c:/program files/microchip/xc32/v3.01/bin/bin/../../lib/gcc/pic32c/8.3.1/../../../../pic32c/lib/thumb/v7e-m+fp/hard\libc_nano.a(lib_a-impure.o)
                0x20002c18                _impure_ptr

.bss%48         0x20002c1c        0x4
 .bss           0x20002c1c        0x4 c:/program files/microchip/xc32/v3.01/bin/bin/../../lib/gcc/pic32c/8.3.1/../../../../pic32c/lib/thumb/v7e-m+fp/hard\libpic32c.a(sbrk.o)

.data._OLEDC_DEFAULT_CONTRAST%49
                0x20002c20        0x3
 .data._OLEDC_DEFAULT_CONTRAST
                0x20002c20        0x3 build/LAN9255_SQI_DIRECT_MODE/production/_ext/1865488526/oledc_driver.o

.data._OLEDC_DEFAULT_VSL%50
                0x20002c24        0x3
 .data._OLEDC_DEFAULT_VSL
                0x20002c24        0x3 build/LAN9255_SQI_DIRECT_MODE/production/_ext/1865488526/oledc_driver.o

.data.rows%51   0x20002c28        0x2
 .data.rows     0x20002c28        0x2 build/LAN9255_SQI_DIRECT_MODE/production/_ext/1865488526/oledc_driver.o

.data.cols%52   0x20002c2c        0x2
 .data.cols     0x20002c2c        0x2 build/LAN9255_SQI_DIRECT_MODE/production/_ext/1865488526/oledc_driver.o

.bss.nvm_error%53
                0x20002afa        0x2
 .bss.nvm_error
                0x20002afa        0x2 build/LAN9255_SQI_DIRECT_MODE/production/_ext/1593096446/plib_nvmctrl.o

.bss.nvm_status%54
                0x20002bc6        0x2
 .bss.nvm_status
                0x20002bc6        0x2 build/LAN9255_SQI_DIRECT_MODE/production/_ext/1593096446/plib_nvmctrl.o

.bss._font_color%55
                0x20002bce        0x2
 .bss._font_color
                0x20002bce        0x2 build/LAN9255_SQI_DIRECT_MODE/production/_ext/1865488526/oledc_driver.o

.bss._font_first_char%56
                0x20002bd6        0x2
 .bss._font_first_char
                0x20002bd6        0x2 build/LAN9255_SQI_DIRECT_MODE/production/_ext/1865488526/oledc_driver.o

.bss._font_last_char%57
                0x20002c2a        0x2
 .bss._font_last_char
                0x20002c2a        0x2 build/LAN9255_SQI_DIRECT_MODE/production/_ext/1865488526/oledc_driver.o

.bss._font_height%58
                0x20002b36        0x2
 .bss._font_height
                0x20002b36        0x2 build/LAN9255_SQI_DIRECT_MODE/production/_ext/1865488526/oledc_driver.o

.bss.x_cord%59  0x20002b4a        0x2
 .bss.x_cord    0x20002b4a        0x2 build/LAN9255_SQI_DIRECT_MODE/production/_ext/1865488526/oledc_driver.o

.bss.y_cord%60  0x20002b5a        0x2
 .bss.y_cord    0x20002b5a        0x2 build/LAN9255_SQI_DIRECT_MODE/production/_ext/1865488526/oledc_driver.o

.bss.u16ErrorRegister%61
                0x20002c2e        0x2
 .bss.u16ErrorRegister
                0x20002c2e        0x2 build/LAN9255_SQI_DIRECT_MODE/production/_ext/108134065/coeappl.o
                0x20002c2e                u16ErrorRegister

.data._OLEDC_DEFAULT_MUX_RATIO%62
                0x20002a47        0x1
 .data._OLEDC_DEFAULT_MUX_RATIO
                0x20002a47        0x1 build/LAN9255_SQI_DIRECT_MODE/production/_ext/1865488526/oledc_driver.o

.data._OLEDC_DEFAULT_START_LINE%63
                0x20002bbf        0x1
 .data._OLEDC_DEFAULT_START_LINE
                0x20002bbf        0x1 build/LAN9255_SQI_DIRECT_MODE/production/_ext/1865488526/oledc_driver.o

.data._OLEDC_DEFAULT_OFFSET%64
                0x20002c23        0x1
 .data._OLEDC_DEFAULT_OFFSET
                0x20002c23        0x1 build/LAN9255_SQI_DIRECT_MODE/production/_ext/1865488526/oledc_driver.o

.data._OLEDC_DEFAULT_OLED_LOCK%65
                0x20002c27        0x1
 .data._OLEDC_DEFAULT_OLED_LOCK
                0x20002c27        0x1 build/LAN9255_SQI_DIRECT_MODE/production/_ext/1865488526/oledc_driver.o

.data._OLEDC_DEFAULT_CMD_LOCK%66
                0x20002b35        0x1
 .data._OLEDC_DEFAULT_CMD_LOCK
                0x20002b35        0x1 build/LAN9255_SQI_DIRECT_MODE/production/_ext/1865488526/oledc_driver.o

.data._OLEDC_DEFAULT_DIVSET%67
                0x20002b49        0x1
 .data._OLEDC_DEFAULT_DIVSET
                0x20002b49        0x1 build/LAN9255_SQI_DIRECT_MODE/production/_ext/1865488526/oledc_driver.o

.data._OLEDC_DEFAULT_PRECHARGE%68
                0x20002b59        0x1
 .data._OLEDC_DEFAULT_PRECHARGE
                0x20002b59        0x1 build/LAN9255_SQI_DIRECT_MODE/production/_ext/1865488526/oledc_driver.o

.data._OLEDC_DEFAULT_VCOMH%69
                0x20002c30        0x1
 .data._OLEDC_DEFAULT_VCOMH
                0x20002c30        0x1 build/LAN9255_SQI_DIRECT_MODE/production/_ext/1865488526/oledc_driver.o

.data._OLEDC_DEFAULT_MASTER_CONT%70
                0x20002c31        0x1
 .data._OLEDC_DEFAULT_MASTER_CONT
                0x20002c31        0x1 build/LAN9255_SQI_DIRECT_MODE/production/_ext/1865488526/oledc_driver.o

.data._OLEDC_DEFAULT_PRECHARGE_2%71
                0x20002c32        0x1
 .data._OLEDC_DEFAULT_PRECHARGE_2
                0x20002c32        0x1 build/LAN9255_SQI_DIRECT_MODE/production/_ext/1865488526/oledc_driver.o

.data._OLEDC_DEFAULT_REMAP%72
                0x20002c33        0x1
 .data._OLEDC_DEFAULT_REMAP
                0x20002c33        0x1 build/LAN9255_SQI_DIRECT_MODE/production/_ext/1865488526/oledc_driver.o

.bss._font_orientation%73
                0x20002c34        0x1
 .bss._font_orientation
                0x20002c34        0x1 build/LAN9255_SQI_DIRECT_MODE/production/_ext/1865488526/oledc_driver.o

.bss.isLastByteTransferInProgress.8353%74
                0x20002c35        0x1
 .bss.isLastByteTransferInProgress.8353
                0x20002c35        0x1 build/LAN9255_SQI_DIRECT_MODE/production/_ext/17022449/plib_sercom4_spi_master.o

.bss.bInitFinished%75
                0x20002c36        0x1
 .bss.bInitFinished
                0x20002c36        0x1 build/LAN9255_SQI_DIRECT_MODE/production/_ext/108134065/ecatappl.o
                0x20002c36                bInitFinished

.bss.EepromLoaded%76
                0x20002c37        0x1
 .bss.EepromLoaded
                0x20002c37        0x1 build/LAN9255_SQI_DIRECT_MODE/production/_ext/108134065/ecatslv.o
                0x20002c37                EepromLoaded

.bss.gFirmwareDownload_Started%77
                0x20002c38        0x1
 .bss.gFirmwareDownload_Started
                0x20002c38        0x1 build/LAN9255_SQI_DIRECT_MODE/production/_ext/108134065/sample_app.o
                0x20002c38                gFirmwareDownload_Started

.bss.gFirmwareDownload_Finished%78
                0x20002c39        0x1
 .bss.gFirmwareDownload_Finished
                0x20002c39        0x1 build/LAN9255_SQI_DIRECT_MODE/production/_ext/108134065/sample_app.o
                0x20002c39                gFirmwareDownload_Finished

.bss.bSdoInWork%79
                0x20002c3a        0x1
 .bss.bSdoInWork
                0x20002c3a        0x1 build/LAN9255_SQI_DIRECT_MODE/production/_ext/108134065/sdoserv.o
                0x20002c3a                bSdoInWork

.bss.gsu8oledflag%80
                0x20002c3b        0x1
 .bss.gsu8oledflag
                0x20002c3b        0x1 build/LAN9255_SQI_DIRECT_MODE/production/_ext/1360937237/app.o

.data.spi_sync%81
                0x20002c3c        0x1
 .data.spi_sync
                0x20002c3c        0x1 build/LAN9255_SQI_DIRECT_MODE/production/_ext/1360937237/app.o
                0x20002c3c                spi_sync

.eh_frame%z1    0x00000000        0x0
 .eh_frame      0x00000000        0x0 c:/program files/microchip/xc32/v3.01/bin/bin/../../lib/gcc/pic32c/8.3.1/thumb/v7e-m+fp/hard/crtbegin.o

.config_00804008%82
                0x00804008        0x4
 .config_00804008
                0x00804008        0x4 build/LAN9255_SQI_DIRECT_MODE/production/_ext/1171490990/initialization.o
                0x00804008                __config_00804008

.config_00804004%83
                0x00804004        0x4
 .config_00804004
                0x00804004        0x4 build/LAN9255_SQI_DIRECT_MODE/production/_ext/1171490990/initialization.o
                0x00804004                __config_00804004

.config_00804000%84
                0x00804000        0x4
 .config_00804000
                0x00804000        0x4 build/LAN9255_SQI_DIRECT_MODE/production/_ext/1171490990/initialization.o
                0x00804000                __config_00804000

.dinit%85       0x00000288      0xb90
 .dinit         0x00000288      0xb90 data_init

.config_eeprom%86
                0x00000e18      0x800
 .config_eeprom
                0x00000e18      0x800 build/LAN9255_SQI_DIRECT_MODE/production/_ext/1360937237/app.o
                0x00000e18                aEepromData

.text.StartInputHandler%87
                0x00001618      0x7e4
 .text.StartInputHandler
                0x00001618      0x7e4 build/LAN9255_SQI_DIRECT_MODE/production/_ext/108134065/ecatslv.o
                0x00001618                StartInputHandler

.text.AL_ControlInd%88
                0x00001dfc      0x790
 .text.AL_ControlInd
                0x00001dfc      0x790 build/LAN9255_SQI_DIRECT_MODE/production/_ext/108134065/ecatslv.o
                0x00001dfc                AL_ControlInd

.text.OBJ_Write%89
                0x0000258c      0x710
 .text.OBJ_Write
                0x0000258c      0x710 build/LAN9255_SQI_DIRECT_MODE/production/_ext/108134065/objdef.o
                0x0000258c                OBJ_Write

.rodata.guiFont_Tahoma_8_Regular%90
                0x00002c9c      0x690
 .rodata.guiFont_Tahoma_8_Regular
                0x00002c9c      0x690 build/LAN9255_SQI_DIRECT_MODE/production/_ext/1360937237/app.o
                0x00002c9c                guiFont_Tahoma_8_Regular

.text.OBJ_Read%91
                0x0000332c      0x67c
 .text.OBJ_Read
                0x0000332c      0x67c build/LAN9255_SQI_DIRECT_MODE/production/_ext/108134065/objdef.o
                0x0000332c                OBJ_Read

.text.SDOS_SdoInd%92
                0x000039a8      0x5e4
 .text.SDOS_SdoInd
                0x000039a8      0x5e4 build/LAN9255_SQI_DIRECT_MODE/production/_ext/108134065/sdoserv.o
                0x000039a8                SDOS_SdoInd

.text.FOE_ServiceInd%93
                0x00003f8c      0x488
 .text.FOE_ServiceInd
                0x00003f8c      0x488 build/LAN9255_SQI_DIRECT_MODE/production/_ext/108134065/ecatfoe.o
                0x00003f8c                FOE_ServiceInd

.text.SDOS_SdoInfoInd%94
                0x00004414      0x434
 .text.SDOS_SdoInfoInd
                0x00004414      0x434 build/LAN9255_SQI_DIRECT_MODE/production/_ext/108134065/sdoserv.o
                0x00004414                SDOS_SdoInfoInd

.text.SdoDownloadSegmentInd%95
                0x00004848      0x3b4
 .text.SdoDownloadSegmentInd
                0x00004848      0x3b4 build/LAN9255_SQI_DIRECT_MODE/production/_ext/108134065/sdoserv.o

.text.CheckSmSettings%96
                0x00004bfc      0x3a0
 .text.CheckSmSettings
                0x00004bfc      0x3a0 build/LAN9255_SQI_DIRECT_MODE/production/_ext/108134065/ecatslv.o
                0x00004bfc                CheckSmSettings

.text._vfprintf_r_cdnopuxX%97
                0x00004f9c      0x384
 .text._vfprintf_r_cdnopuxX
                0x00004f9c      0x384 c:/program files/microchip/xc32/v3.01/bin/bin/../../lib/gcc/pic32c/8.3.1/../../../../pic32c/lib/thumb/v7e-m+fp/hard\libc_nano.a(_lib_a-nano-vfprintf.cdnopuxX.o)
                0x00004f9c                _vfprintf_r_cdnopuxX

.text%98        0x00005320      0x2d0
 .text          0x00005320      0x2d0 c:/program files/microchip/xc32/v3.01/bin/bin/../../lib/gcc/pic32c/8.3.1/thumb/v7e-m+fp/hard\libgcc.a(_udivmoddi4.o)
                0x00005320                __udivmoddi4

.text.EEPROM_CommandHandler%99
                0x000055f0      0x2c4
 .text.EEPROM_CommandHandler
                0x000055f0      0x2c4 build/LAN9255_SQI_DIRECT_MODE/production/_ext/108134065/ecatappl.o
                0x000055f0                EEPROM_CommandHandler

.text.AL_ControlRes%100
                0x000058b4      0x2bc
 .text.AL_ControlRes
                0x000058b4      0x2bc build/LAN9255_SQI_DIRECT_MODE/production/_ext/108134065/ecatslv.o
                0x000058b4                AL_ControlRes

.text.APP_Tasks%101
                0x00005b70      0x2b0
 .text.APP_Tasks
                0x00005b70      0x2b0 build/LAN9255_SQI_DIRECT_MODE/production/_ext/1360937237/app.o
                0x00005b70                APP_Tasks

.text.SdoUploadSegmentInd%102
                0x00005e20      0x260
 .text.SdoUploadSegmentInd
                0x00005e20      0x260 build/LAN9255_SQI_DIRECT_MODE/production/_ext/108134065/sdoserv.o

.text.character%103
                0x00006080      0x22c
 .text.character
                0x00006080      0x22c build/LAN9255_SQI_DIRECT_MODE/production/_ext/1865488526/oledc_driver.o

.text.SERCOM0_USART_SerialSetup%104
                0x000062ac      0x218
 .text.SERCOM0_USART_SerialSetup
                0x000062ac      0x218 build/LAN9255_SQI_DIRECT_MODE/production/_ext/504274921/plib_sercom0_usart.o
                0x000062ac                SERCOM0_USART_SerialSetup

.text.SERCOM4_SPI_WriteRead%105
                0x000064c4      0x1f8
 .text.SERCOM4_SPI_WriteRead
                0x000064c4      0x1f8 build/LAN9255_SQI_DIRECT_MODE/production/_ext/17022449/plib_sercom4_spi_master.o
                0x000064c4                SERCOM4_SPI_WriteRead

.text.SendSmFailedEmergency%106
                0x000066bc      0x1e0
 .text.SendSmFailedEmergency
                0x000066bc      0x1e0 build/LAN9255_SQI_DIRECT_MODE/production/_ext/108134065/ecatslv.o
                0x000066bc                SendSmFailedEmergency

.text.SERCOM4_SPI_InterruptHandler%107
                0x0000689c      0x1cc
 .text.SERCOM4_SPI_InterruptHandler
                0x0000689c      0x1cc build/LAN9255_SQI_DIRECT_MODE/production/_ext/17022449/plib_sercom4_spi_master.o
                0x0000689c                SERCOM4_SPI_InterruptHandler

.text.SdoRes%108
                0x00006a68      0x1bc
 .text.SdoRes   0x00006a68      0x1bc build/LAN9255_SQI_DIRECT_MODE/production/_ext/108134065/sdoserv.o
                0x00006a68                SdoRes

.text.ECAT_Main%109
                0x00006c24      0x1b4
 .text.ECAT_Main
                0x00006c24      0x1b4 build/LAN9255_SQI_DIRECT_MODE/production/_ext/108134065/ecatslv.o
                0x00006c24                ECAT_Main

.text.CheckSyncTypeValue%110
                0x00006dd8      0x1b4
 .text.CheckSyncTypeValue
                0x00006dd8      0x1b4 build/LAN9255_SQI_DIRECT_MODE/production/_ext/108134065/objdef.o
                0x00006dd8                CheckSyncTypeValue

.text.FoE_WriteData%111
                0x00006f8c      0x18c
 .text.FoE_WriteData
                0x00006f8c      0x18c build/LAN9255_SQI_DIRECT_MODE/production/_ext/108134065/sample_app.o
                0x00006f8c                FoE_WriteData

.text.OBJ_GetEntryOffset%112
                0x00007118      0x178
 .text.OBJ_GetEntryOffset
                0x00007118      0x178 build/LAN9255_SQI_DIRECT_MODE/production/_ext/108134065/objdef.o
                0x00007118                OBJ_GetEntryOffset

.text.APPL_GenerateMapping%113
                0x00007290      0x174
 .text.APPL_GenerateMapping
                0x00007290      0x174 build/LAN9255_SQI_DIRECT_MODE/production/_ext/108134065/sample_app.o
                0x00007290                APPL_GenerateMapping

.text.ECAT_Init%114
                0x00007404      0x170
 .text.ECAT_Init
                0x00007404      0x170 build/LAN9255_SQI_DIRECT_MODE/production/_ext/108134065/ecatslv.o
                0x00007404                ECAT_Init

.text.SetALStatus%115
                0x00007574      0x164
 .text.SetALStatus
                0x00007574      0x164 build/LAN9255_SQI_DIRECT_MODE/production/_ext/108134065/ecatslv.o
                0x00007574                SetALStatus

.text.MBX_CheckAndCopyMailbox%116
                0x000076d8      0x164
 .text.MBX_CheckAndCopyMailbox
                0x000076d8      0x164 build/LAN9255_SQI_DIRECT_MODE/production/_ext/108134065/mailbox.o
                0x000076d8                MBX_CheckAndCopyMailbox

.text.COE_ObjInit%117
                0x0000783c      0x160
 .text.COE_ObjInit
                0x0000783c      0x160 build/LAN9255_SQI_DIRECT_MODE/production/_ext/108134065/coeappl.o
                0x0000783c                COE_ObjInit

.text.Sync0_Isr%118
                0x0000799c      0x15c
 .text.Sync0_Isr
                0x0000799c      0x15c build/LAN9255_SQI_DIRECT_MODE/production/_ext/108134065/ecatappl.o
                0x0000799c                Sync0_Isr

.text.MainInit%119
                0x00007af8      0x15c
 .text.MainInit
                0x00007af8      0x15c build/LAN9255_SQI_DIRECT_MODE/production/_ext/108134065/ecatappl.o
                0x00007af8                MainInit

.text.MBX_StopMailboxHandler%120
                0x00007c54      0x154
 .text.MBX_StopMailboxHandler
                0x00007c54      0x154 build/LAN9255_SQI_DIRECT_MODE/production/_ext/108134065/mailbox.o
                0x00007c54                MBX_StopMailboxHandler

.text.APP_FlashEEPROMUpdate%121
                0x00007da8      0x154
 .text.APP_FlashEEPROMUpdate
                0x00007da8      0x154 build/LAN9255_SQI_DIRECT_MODE/production/_ext/1360937237/app.o
                0x00007da8                APP_FlashEEPROMUpdate

.text.box_area%122
                0x00007efc      0x150
 .text.box_area
                0x00007efc      0x150 build/LAN9255_SQI_DIRECT_MODE/production/_ext/1865488526/oledc_driver.o
                0x00007efc                box_area

.text.PDI_Isr%123
                0x0000804c      0x14c
 .text.PDI_Isr  0x0000804c      0x14c build/LAN9255_SQI_DIRECT_MODE/production/_ext/108134065/ecatappl.o
                0x0000804c                PDI_Isr

.text.StopInputHandler%124
                0x00008198      0x12c
 .text.StopInputHandler
                0x00008198      0x12c build/LAN9255_SQI_DIRECT_MODE/production/_ext/108134065/ecatslv.o
                0x00008198                StopInputHandler

.text.MBX_MailboxReadInd%125
                0x000082c4      0x124
 .text.MBX_MailboxReadInd
                0x000082c4      0x124 build/LAN9255_SQI_DIRECT_MODE/production/_ext/108134065/mailbox.o
                0x000082c4                MBX_MailboxReadInd

.text.OBJ_GetObjectLength%126
                0x000083e8      0x124
 .text.OBJ_GetObjectLength
                0x000083e8      0x124 build/LAN9255_SQI_DIRECT_MODE/production/_ext/108134065/objdef.o
                0x000083e8                OBJ_GetObjectLength

.text.DC_CheckWatchdog%127
                0x0000850c      0x120
 .text.DC_CheckWatchdog
                0x0000850c      0x120 build/LAN9255_SQI_DIRECT_MODE/production/_ext/108134065/ecatslv.o
                0x0000850c                DC_CheckWatchdog

.text.OBJ_GetDesc%128
                0x0000862c      0x120
 .text.OBJ_GetDesc
                0x0000862c      0x120 build/LAN9255_SQI_DIRECT_MODE/production/_ext/108134065/objdef.o
                0x0000862c                OBJ_GetDesc

.text.SDOS_SdoRes%129
                0x0000874c      0x120
 .text.SDOS_SdoRes
                0x0000874c      0x120 build/LAN9255_SQI_DIRECT_MODE/production/_ext/108134065/sdoserv.o
                0x0000874c                SDOS_SdoRes

.text.MBX_StartMailboxHandler%130
                0x0000886c      0x114
 .text.MBX_StartMailboxHandler
                0x0000886c      0x114 build/LAN9255_SQI_DIRECT_MODE/production/_ext/108134065/mailbox.o
                0x0000886c                MBX_StartMailboxHandler

.text.MBX_CopyToSendMailbox%131
                0x00008980      0x10c
 .text.MBX_CopyToSendMailbox
                0x00008980      0x10c build/LAN9255_SQI_DIRECT_MODE/production/_ext/108134065/mailbox.o
                0x00008980                MBX_CopyToSendMailbox

.text.__sflush_r%132
                0x00008a8c      0x10c
 .text.__sflush_r
                0x00008a8c      0x10c c:/program files/microchip/xc32/v3.01/bin/bin/../../lib/gcc/pic32c/8.3.1/../../../../pic32c/lib/thumb/v7e-m+fp/hard\libc_nano.a(lib_a-fflush.o)
                0x00008a8c                __sflush_r

.rodata._ctype_%133
                0x00008b98      0x101
 .rodata._ctype_
                0x00008b98      0x101 c:/program files/microchip/xc32/v3.01/bin/bin/../../lib/gcc/pic32c/8.3.1/../../../../pic32c/lib/thumb/v7e-m+fp/hard\libc_nano.a(lib_a-ctype_.o)
                0x00008b98                _ctype_

.rodata.aName0x1C32%134
                0x00008c9c      0x100
 .rodata.aName0x1C32
                0x00008c9c      0x100 build/LAN9255_SQI_DIRECT_MODE/production/_ext/108134065/coeappl.o
                0x00008c9c                aName0x1C32

.rodata.aName0x1C33%135
                0x00008d9c      0x100
 .rodata.aName0x1C33
                0x00008d9c      0x100 build/LAN9255_SQI_DIRECT_MODE/production/_ext/108134065/coeappl.o
                0x00008d9c                aName0x1C33

.text.MBX_Init%136
                0x00008e9c      0x100
 .text.MBX_Init
                0x00008e9c      0x100 build/LAN9255_SQI_DIRECT_MODE/production/_ext/108134065/mailbox.o
                0x00008e9c                MBX_Init

.text.ECAT_CheckTimer%137
                0x00008f9c       0xfc
 .text.ECAT_CheckTimer
                0x00008f9c       0xfc build/LAN9255_SQI_DIRECT_MODE/production/_ext/108134065/ecatappl.o
                0x00008f9c                ECAT_CheckTimer

.text.APPL_UpdateUARTConfig%138
                0x00009098       0xfc
 .text.APPL_UpdateUARTConfig
                0x00009098       0xfc build/LAN9255_SQI_DIRECT_MODE/production/_ext/108134065/sample_app.o
                0x00009098                APPL_UpdateUARTConfig

.text.pixel%139
                0x00009194       0xf8
 .text.pixel    0x00009194       0xf8 build/LAN9255_SQI_DIRECT_MODE/production/_ext/1865488526/oledc_driver.o

.text.OBJ_GetObjectList%140
                0x0000928c       0xf8
 .text.OBJ_GetObjectList
                0x0000928c       0xf8 build/LAN9255_SQI_DIRECT_MODE/production/_ext/108134065/objdef.o
                0x0000928c                OBJ_GetObjectList

.text.MBX_MailboxWriteInd%141
                0x00009384       0xf4
 .text.MBX_MailboxWriteInd
                0x00009384       0xf4 build/LAN9255_SQI_DIRECT_MODE/production/_ext/108134065/mailbox.o
                0x00009384                MBX_MailboxWriteInd

.text.oledc_init%142
                0x00009478       0xec
 .text.oledc_init
                0x00009478       0xec build/LAN9255_SQI_DIRECT_MODE/production/_ext/1865488526/oledc_driver.o
                0x00009478                oledc_init

.text.LAN9253SQI_Read%143
                0x00009564       0xec
 .text.LAN9253SQI_Read
                0x00009564       0xec build/LAN9255_SQI_DIRECT_MODE/production/_ext/1671622016/Drivers.o
                0x00009564                LAN9253SQI_Read

.text.MainLoop%144
                0x00009650       0xec
 .text.MainLoop
                0x00009650       0xec build/LAN9255_SQI_DIRECT_MODE/production/_ext/108134065/ecatappl.o
                0x00009650                MainLoop

.text._printf_common%145
                0x0000973c       0xea
 .text._printf_common
                0x0000973c       0xea c:/program files/microchip/xc32/v3.01/bin/bin/../../lib/gcc/pic32c/8.3.1/../../../../pic32c/lib/thumb/v7e-m+fp/hard\libc_nano.a(lib_a-nano-vfprintf_i.o)
                0x0000973c                _printf_common

.text.COE_AddObjectToDic%146
                0x00009828       0xe8
 .text.COE_AddObjectToDic
                0x00009828       0xe8 build/LAN9255_SQI_DIRECT_MODE/production/_ext/108134065/coeappl.o
                0x00009828                COE_AddObjectToDic

.text.COE_Main%147
                0x00009910       0xe8
 .text.COE_Main
                0x00009910       0xe8 build/LAN9255_SQI_DIRECT_MODE/production/_ext/108134065/coeappl.o
                0x00009910                COE_Main

.text.EIC_Initialize%148
                0x000099f8       0xe4
 .text.EIC_Initialize
                0x000099f8       0xe4 build/LAN9255_SQI_DIRECT_MODE/production/_ext/60167341/plib_eic.o
                0x000099f8                EIC_Initialize

.text.HW_EscWriteIsr%149
                0x00009adc       0xe4
 .text.HW_EscWriteIsr
                0x00009adc       0xe4 build/LAN9255_SQI_DIRECT_MODE/production/_ext/108147519/LAN925x.o
                0x00009adc                HW_EscWriteIsr

.text.HW_EscReadIsr%150
                0x00009bc0       0xe2
 .text.HW_EscReadIsr
                0x00009bc0       0xe2 build/LAN9255_SQI_DIRECT_MODE/production/_ext/108147519/LAN925x.o
                0x00009bc0                HW_EscReadIsr

.text.PORT_Initialize%151
                0x00009ca4       0xe0
 .text.PORT_Initialize
                0x00009ca4       0xe0 build/LAN9255_SQI_DIRECT_MODE/production/_ext/1865521619/plib_port.o
                0x00009ca4                PORT_Initialize

.text.APPL_Application%152
                0x00009d84       0xe0
 .text.APPL_Application
                0x00009d84       0xe0 build/LAN9255_SQI_DIRECT_MODE/production/_ext/108134065/sample_app.o
                0x00009d84                APPL_Application

.text.MBX_MailboxSendReq%153
                0x00009e64       0xdc
 .text.MBX_MailboxSendReq
                0x00009e64       0xdc build/LAN9255_SQI_DIRECT_MODE/production/_ext/108134065/mailbox.o
                0x00009e64                MBX_MailboxSendReq

.text.__swsetup_r%154
                0x00009f40       0xdc
 .text.__swsetup_r
                0x00009f40       0xdc c:/program files/microchip/xc32/v3.01/bin/bin/../../lib/gcc/pic32c/8.3.1/../../../../pic32c/lib/thumb/v7e-m+fp/hard\libc_nano.a(lib_a-wsetup.o)
                0x00009f40                __swsetup_r

.text.SODS_ClearPendingResponse%155
                0x0000a01c       0xcc
 .text.SODS_ClearPendingResponse
                0x0000a01c       0xcc build/LAN9255_SQI_DIRECT_MODE/production/_ext/108134065/sdoserv.o
                0x0000a01c                SODS_ClearPendingResponse

.text.HW_EscWrite%156
                0x0000a0e8       0xca
 .text.HW_EscWrite
                0x0000a0e8       0xca build/LAN9255_SQI_DIRECT_MODE/production/_ext/108147519/LAN925x.o
                0x0000a0e8                HW_EscWrite

.text.HW_EscRead%157
                0x0000a1b2       0xc8
 .text.HW_EscRead
                0x0000a1b2       0xc8 build/LAN9255_SQI_DIRECT_MODE/production/_ext/108147519/LAN925x.o
                0x0000a1b2                HW_EscRead

.rodata.asEntryDesc0x1C3x%158
                0x0000a27c       0xc8
 .rodata.asEntryDesc0x1C3x
                0x0000a27c       0xc8 build/LAN9255_SQI_DIRECT_MODE/production/_ext/108134065/coeappl.o
                0x0000a27c                asEntryDesc0x1C3x

.text.NVIC_Initialize%159
                0x0000a344       0xc6
 .text.NVIC_Initialize
                0x0000a344       0xc6 build/LAN9255_SQI_DIRECT_MODE/production/_ext/1865468468/plib_nvic.o
                0x0000a344                NVIC_Initialize

.text.GetDummyBytesRequired%160
                0x0000a40a       0xc6
 .text.GetDummyBytesRequired
                0x0000a40a       0xc6 build/LAN9255_SQI_DIRECT_MODE/production/_ext/108147519/ESC_Utils.o
                0x0000a40a                GetDummyBytesRequired

.text.HW_EepromWrite%161
                0x0000a4d0       0xc4
 .text.HW_EepromWrite
                0x0000a4d0       0xc4 build/LAN9255_SQI_DIRECT_MODE/production/_ext/108134065/sample_app.o
                0x0000a4d0                HW_EepromWrite

.text.EscWrite%162
                0x0000a594       0xc2
 .text.EscWrite
                0x0000a594       0xc2 build/LAN9255_SQI_DIRECT_MODE/production/_ext/108147519/LAN925x.o
                0x0000a594                EscWrite

.text.EscRead%163
                0x0000a656       0xc0
 .text.EscRead  0x0000a656       0xc0 build/LAN9255_SQI_DIRECT_MODE/production/_ext/108147519/LAN925x.o
                0x0000a656                EscRead

.text.LAN925x_Init%164
                0x0000a718       0xbc
 .text.LAN925x_Init
                0x0000a718       0xbc build/LAN9255_SQI_DIRECT_MODE/production/_ext/108147519/LAN925x.o
                0x0000a718                LAN925x_Init

.text.__swbuf_r%165
                0x0000a7d4       0xbc
 .text.__swbuf_r
                0x0000a7d4       0xbc c:/program files/microchip/xc32/v3.01/bin/bin/../../lib/gcc/pic32c/8.3.1/../../../../pic32c/lib/thumb/v7e-m+fp/hard\libc_nano.a(lib_a-wbuf.o)
                0x0000a7d4                __swbuf_r

.text.MBX_Main%166
                0x0000a890       0xb8
 .text.MBX_Main
                0x0000a890       0xb8 build/LAN9255_SQI_DIRECT_MODE/production/_ext/108134065/mailbox.o
                0x0000a890                MBX_Main

.text.FoE_Read%167
                0x0000a948       0xb8
 .text.FoE_Read
                0x0000a948       0xb8 build/LAN9255_SQI_DIRECT_MODE/production/_ext/108134065/sample_app.o
                0x0000a948                FoE_Read

.text.qspi_setup_transfer%168
                0x0000aa00       0xb4
 .text.qspi_setup_transfer
                0x0000aa00       0xb4 build/LAN9255_SQI_DIRECT_MODE/production/_ext/1865555181/plib_qspi.o

.text._malloc_r%169
                0x0000aab4       0xb4
 .text._malloc_r
                0x0000aab4       0xb4 c:/program files/microchip/xc32/v3.01/bin/bin/../../lib/gcc/pic32c/8.3.1/../../../../pic32c/lib/thumb/v7e-m+fp/hard\libc_nano.a(lib_a-nano-mallocr.o)
                0x0000aab4                _malloc_r

.text.LAN9253SQI_Write%170
                0x0000ab68       0xb0
 .text.LAN9253SQI_Write
                0x0000ab68       0xb0 build/LAN9255_SQI_DIRECT_MODE/production/_ext/1671622016/Drivers.o
                0x0000ab68                LAN9253SQI_Write

.text.PDO_OutputMapping%171
                0x0000ac18       0xb0
 .text.PDO_OutputMapping
                0x0000ac18       0xb0 build/LAN9255_SQI_DIRECT_MODE/production/_ext/108134065/ecatappl.o
                0x0000ac18                PDO_OutputMapping

.text.applicationTask%172
                0x0000acc8       0xb0
 .text.applicationTask
                0x0000acc8       0xb0 build/LAN9255_SQI_DIRECT_MODE/production/_ext/1360937237/app.o
                0x0000acc8                applicationTask

.text.QSPI_MemoryRead%173
                0x0000ad78       0xac
 .text.QSPI_MemoryRead
                0x0000ad78       0xac build/LAN9255_SQI_DIRECT_MODE/production/_ext/1865555181/plib_qspi.o
                0x0000ad78                QSPI_MemoryRead

.text.QSPI_MemoryWrite%174
                0x0000ae24       0xa8
 .text.QSPI_MemoryWrite
                0x0000ae24       0xa8 build/LAN9255_SQI_DIRECT_MODE/production/_ext/1865555181/plib_qspi.o
                0x0000ae24                QSPI_MemoryWrite

.text.COE_SyncTimeStamp%175
                0x0000aecc       0xa8
 .text.COE_SyncTimeStamp
                0x0000aecc       0xa8 build/LAN9255_SQI_DIRECT_MODE/production/_ext/108134065/coeappl.o
                0x0000aecc                COE_SyncTimeStamp

.text.EMCY_Init%176
                0x0000af74       0xa8
 .text.EMCY_Init
                0x0000af74       0xa8 build/LAN9255_SQI_DIRECT_MODE/production/_ext/108134065/emcy.o
                0x0000af74                EMCY_Init

.text.EMCY_SendEmergency%177
                0x0000b01c       0xa4
 .text.EMCY_SendEmergency
                0x0000b01c       0xa4 build/LAN9255_SQI_DIRECT_MODE/production/_ext/108134065/emcy.o
                0x0000b01c                EMCY_SendEmergency

.text.HW_EepromReload%178
                0x0000b0c0       0xa0
 .text.HW_EepromReload
                0x0000b0c0       0xa0 build/LAN9255_SQI_DIRECT_MODE/production/_ext/108134065/sample_app.o
                0x0000b0c0                HW_EepromReload

.text%179       0x0000b160       0xa0
 .text          0x0000b160       0xa0 c:/program files/microchip/xc32/v3.01/bin/bin/../../lib/gcc/pic32c/8.3.1/../../../../pic32c/lib/thumb/v7e-m+fp/hard\libc_nano.a(lib_a-memchr.o)
                0x0000b160                memchr

.text.FoE_Write%180
                0x0000b200       0x9c
 .text.FoE_Write
                0x0000b200       0x9c build/LAN9255_SQI_DIRECT_MODE/production/_ext/108134065/sample_app.o
                0x0000b200                FoE_Write

.text._free_r%181
                0x0000b29c       0x9c
 .text._free_r  0x0000b29c       0x9c c:/program files/microchip/xc32/v3.01/bin/bin/../../lib/gcc/pic32c/8.3.1/../../../../pic32c/lib/thumb/v7e-m+fp/hard\libc_nano.a(lib_a-nano-freer.o)
                0x0000b29c                _free_r

.text.OBJ_CopyNumberToString%182
                0x0000b338       0x98
 .text.OBJ_CopyNumberToString
                0x0000b338       0x98 build/LAN9255_SQI_DIRECT_MODE/production/_ext/108134065/objdef.o
                0x0000b338                OBJ_CopyNumberToString

.text.OBJ_GetNoOfObjects%183
                0x0000b3d0       0x98
 .text.OBJ_GetNoOfObjects
                0x0000b3d0       0x98 build/LAN9255_SQI_DIRECT_MODE/production/_ext/108134065/objdef.o
                0x0000b3d0                OBJ_GetNoOfObjects

.text.RoundUpMultipleOf%184
                0x0000b468       0x96
 .text.RoundUpMultipleOf
                0x0000b468       0x96 build/LAN9255_SQI_DIRECT_MODE/production/_ext/108147519/ESC_Utils.o

.text.CLOCK_Initialize%185
                0x0000b500       0x94
 .text.CLOCK_Initialize
                0x0000b500       0x94 build/LAN9255_SQI_DIRECT_MODE/production/_ext/1984496892/plib_clock.o
                0x0000b500                CLOCK_Initialize

.text.PDO_InputMapping%186
                0x0000b594       0x94
 .text.PDO_InputMapping
                0x0000b594       0x94 build/LAN9255_SQI_DIRECT_MODE/production/_ext/108134065/ecatappl.o
                0x0000b594                PDO_InputMapping

.text.SERCOM0_USART_Initialize%187
                0x0000b628       0x90
 .text.SERCOM0_USART_Initialize
                0x0000b628       0x90 build/LAN9255_SQI_DIRECT_MODE/production/_ext/504274921/plib_sercom0_usart.o
                0x0000b628                SERCOM0_USART_Initialize

.text.oledc_command%188
                0x0000b6b8       0x8c
 .text.oledc_command
                0x0000b6b8       0x8c build/LAN9255_SQI_DIRECT_MODE/production/_ext/1865488526/oledc_driver.o
                0x0000b6b8                oledc_command

.text.oledc_set_font%189
                0x0000b744       0x8c
 .text.oledc_set_font
                0x0000b744       0x8c build/LAN9255_SQI_DIRECT_MODE/production/_ext/1865488526/oledc_driver.o
                0x0000b744                oledc_set_font

.text.__smakebuf_r%190
                0x0000b7d0       0x8c
 .text.__smakebuf_r
                0x0000b7d0       0x8c c:/program files/microchip/xc32/v3.01/bin/bin/../../lib/gcc/pic32c/8.3.1/../../../../pic32c/lib/thumb/v7e-m+fp/hard\libc_nano.a(lib_a-makebuf.o)
                0x0000b7d0                __smakebuf_r

.text.QSPI_CommandWrite%191
                0x0000b85c       0x88
 .text.QSPI_CommandWrite
                0x0000b85c       0x88 build/LAN9255_SQI_DIRECT_MODE/production/_ext/1865555181/plib_qspi.o
                0x0000b85c                QSPI_CommandWrite

.text.QSPI_RegisterWrite%192
                0x0000b8e4       0x88
 .text.QSPI_RegisterWrite
                0x0000b8e4       0x88 build/LAN9255_SQI_DIRECT_MODE/production/_ext/1865555181/plib_qspi.o
                0x0000b8e4                QSPI_RegisterWrite

.text.ReBuild_SQI_SetCfg_data%193
                0x0000b96c       0x88
 .text.ReBuild_SQI_SetCfg_data
                0x0000b96c       0x88 build/LAN9255_SQI_DIRECT_MODE/production/_ext/1671622016/Drivers.o
                0x0000b96c                ReBuild_SQI_SetCfg_data

.text.APPL_OutputMapping%194
                0x0000b9f4       0x88
 .text.APPL_OutputMapping
                0x0000b9f4       0x88 build/LAN9255_SQI_DIRECT_MODE/production/_ext/108134065/sample_app.o
                0x0000b9f4                APPL_OutputMapping

.text.__pic32c_data_initialization%195
                0x0000ba7c       0x88
 .text.__pic32c_data_initialization
                0x0000ba7c       0x88 c:/program files/microchip/xc32/v3.01/bin/bin/../../lib/gcc/pic32c/8.3.1/../../../../pic32c/lib/thumb/v7e-m+fp/hard\libpic32c.a(data_init.o)
                0x0000ba7c                __pic32c_data_initialization

.text.SERCOM0_USART_Write%196
                0x0000bb04       0x84
 .text.SERCOM0_USART_Write
                0x0000bb04       0x84 build/LAN9255_SQI_DIRECT_MODE/production/_ext/504274921/plib_sercom0_usart.o
                0x0000bb04                SERCOM0_USART_Write

.text.SERCOM0_USART_ISR_RX_Handler%197
                0x0000bb88       0x84
 .text.SERCOM0_USART_ISR_RX_Handler
                0x0000bb88       0x84 build/LAN9255_SQI_DIRECT_MODE/production/_ext/504274921/plib_sercom0_usart.o

.rodata.aName0x1600%198
                0x0000bc0c       0x84
 .rodata.aName0x1600
                0x0000bc0c       0x84 build/LAN9255_SQI_DIRECT_MODE/production/_ext/108134065/coeappl.o
                0x0000bc0c                aName0x1600

.text.__fputwc%199
                0x0000bc90       0x82
 .text.__fputwc
                0x0000bc90       0x82 c:/program files/microchip/xc32/v3.01/bin/bin/../../lib/gcc/pic32c/8.3.1/../../../../pic32c/lib/thumb/v7e-m+fp/hard\libc_nano.a(lib_a-fputwc.o)
                0x0000bc90                __fputwc

.text.COE_RemoveDicEntry%200
                0x0000bd14       0x80
 .text.COE_RemoveDicEntry
                0x0000bd14       0x80 build/LAN9255_SQI_DIRECT_MODE/production/_ext/108134065/coeappl.o
                0x0000bd14                COE_RemoveDicEntry

.text.HandleCycleTimeMeasurement%201
                0x0000bd94       0x7c
 .text.HandleCycleTimeMeasurement
                0x0000bd94       0x7c build/LAN9255_SQI_DIRECT_MODE/production/_ext/108134065/ecatappl.o
                0x0000bd94                HandleCycleTimeMeasurement

.text.MBX_MailboxRepeatReq%202
                0x0000be10       0x7c
 .text.MBX_MailboxRepeatReq
                0x0000be10       0x7c build/LAN9255_SQI_DIRECT_MODE/production/_ext/108134065/mailbox.o
                0x0000be10                MBX_MailboxRepeatReq

.rodata.cAbortCode%203
                0x0000be8c       0x78
 .rodata.cAbortCode
                0x0000be8c       0x78 build/LAN9255_SQI_DIRECT_MODE/production/_ext/108134065/sdoserv.o
                0x0000be8c                cAbortCode

.text.APP_FlashWrite%204
                0x0000bf04       0x78
 .text.APP_FlashWrite
                0x0000bf04       0x78 build/LAN9255_SQI_DIRECT_MODE/production/_ext/1360937237/app.o
                0x0000bf04                APP_FlashWrite

.text.__sfp%205
                0x0000bf7c       0x78
 .text.__sfp    0x0000bf7c       0x78 c:/program files/microchip/xc32/v3.01/bin/bin/../../lib/gcc/pic32c/8.3.1/../../../../pic32c/lib/thumb/v7e-m+fp/hard\libc_nano.a(lib_a-findfp.o)
                0x0000bf7c                __sfp

.text.COE_ServiceInd%206
                0x0000bff4       0x74
 .text.COE_ServiceInd
                0x0000bff4       0x74 build/LAN9255_SQI_DIRECT_MODE/production/_ext/108134065/ecatcoe.o
                0x0000bff4                COE_ServiceInd

.text.StartOutputHandler%207
                0x0000c068       0x74
 .text.StartOutputHandler
                0x0000c068       0x74 build/LAN9255_SQI_DIRECT_MODE/production/_ext/108134065/ecatslv.o
                0x0000c068                StartOutputHandler

.text.APPL_InputMapping%208
                0x0000c0dc       0x74
 .text.APPL_InputMapping
                0x0000c0dc       0x74 build/LAN9255_SQI_DIRECT_MODE/production/_ext/108134065/sample_app.o
                0x0000c0dc                APPL_InputMapping

.text.APP_FOEFlashWrite%209
                0x0000c150       0x72
 .text.APP_FOEFlashWrite
                0x0000c150       0x72 build/LAN9255_SQI_DIRECT_MODE/production/_ext/1360937237/app.o
                0x0000c150                APP_FOEFlashWrite

.text.SERCOM0_USART_ISR_TX_Handler%210
                0x0000c1c4       0x70
 .text.SERCOM0_USART_ISR_TX_Handler
                0x0000c1c4       0x70 build/LAN9255_SQI_DIRECT_MODE/production/_ext/504274921/plib_sercom0_usart.o

.text.GetSystemTimeDelay%211
                0x0000c234       0x70
 .text.GetSystemTimeDelay
                0x0000c234       0x70 build/LAN9255_SQI_DIRECT_MODE/production/_ext/108134065/ecatappl.o
                0x0000c234                GetSystemTimeDelay

.text.CalculateCRC8%212
                0x0000c2a4       0x6e
 .text.CalculateCRC8
                0x0000c2a4       0x6e build/LAN9255_SQI_DIRECT_MODE/production/_ext/1360937237/app.o
                0x0000c2a4                CalculateCRC8

.text.FDPLL0_Initialize%213
                0x0000c314       0x6c
 .text.FDPLL0_Initialize
                0x0000c314       0x6c build/LAN9255_SQI_DIRECT_MODE/production/_ext/1984496892/plib_clock.o

.text.SERCOM0_USART_Read%214
                0x0000c380       0x6c
 .text.SERCOM0_USART_Read
                0x0000c380       0x6c build/LAN9255_SQI_DIRECT_MODE/production/_ext/504274921/plib_sercom0_usart.o
                0x0000c380                SERCOM0_USART_Read

.text.FOE_Data%215
                0x0000c3ec       0x6c
 .text.FOE_Data
                0x0000c3ec       0x6c build/LAN9255_SQI_DIRECT_MODE/production/_ext/108134065/foeappl.o
                0x0000c3ec                FOE_Data

.text.NVMCTRL_PageWrite%216
                0x0000c458       0x68
 .text.NVMCTRL_PageWrite
                0x0000c458       0x68 build/LAN9255_SQI_DIRECT_MODE/production/_ext/1593096446/plib_nvmctrl.o
                0x0000c458                NVMCTRL_PageWrite

.text.COE_UpdateSyncErrorStatus%217
                0x0000c4c0       0x68
 .text.COE_UpdateSyncErrorStatus
                0x0000c4c0       0x68 build/LAN9255_SQI_DIRECT_MODE/production/_ext/108134065/coeappl.o
                0x0000c4c0                COE_UpdateSyncErrorStatus

.text.MailboxServiceInd%218
                0x0000c528       0x68
 .text.MailboxServiceInd
                0x0000c528       0x68 build/LAN9255_SQI_DIRECT_MODE/production/_ext/108134065/mailbox.o
                0x0000c528                MailboxServiceInd

.rodata.aName0x8000%219
                0x0000c590       0x64
 .rodata.aName0x8000
                0x0000c590       0x64 build/LAN9255_SQI_DIRECT_MODE/production/_ext/108134065/coeappl.o
                0x0000c590                aName0x8000

.text.ECAT_CheckWatchdog%220
                0x0000c5f4       0x64
 .text.ECAT_CheckWatchdog
                0x0000c5f4       0x64 build/LAN9255_SQI_DIRECT_MODE/production/_ext/108134065/ecatslv.o
                0x0000c5f4                ECAT_CheckWatchdog

.text.BL_FOE_Application%221
                0x0000c658       0x64
 .text.BL_FOE_Application
                0x0000c658       0x64 build/LAN9255_SQI_DIRECT_MODE/production/_ext/108134065/sample_app.o
                0x0000c658                BL_FOE_Application

.text.SERCOM4_SPI_Initialize%222
                0x0000c6bc       0x60
 .text.SERCOM4_SPI_Initialize
                0x0000c6bc       0x60 build/LAN9255_SQI_DIRECT_MODE/production/_ext/17022449/plib_sercom4_spi_master.o
                0x0000c6bc                SERCOM4_SPI_Initialize

.text.__sinit%223
                0x0000c71c       0x60
 .text.__sinit  0x0000c71c       0x60 c:/program files/microchip/xc32/v3.01/bin/bin/../../lib/gcc/pic32c/8.3.1/../../../../pic32c/lib/thumb/v7e-m+fp/hard\libc_nano.a(lib_a-findfp.o)
                0x0000c71c                __sinit

.text.EIC_CallbackRegister%224
                0x0000c77c       0x5c
 .text.EIC_CallbackRegister
                0x0000c77c       0x5c build/LAN9255_SQI_DIRECT_MODE/production/_ext/60167341/plib_eic.o
                0x0000c77c                EIC_CallbackRegister

.text.Reset_Handler%225
                0x0000c7d8       0x5c
 .text.Reset_Handler
                0x0000c7d8       0x5c build/LAN9255_SQI_DIRECT_MODE/production/_ext/1171490990/startup_xc32.o
                0x0000c7d8                Reset_Handler

.text.ESC_BYTE_TEST_Register_Read%226
                0x0000c834       0x5c
 .text.ESC_BYTE_TEST_Register_Read
                0x0000c834       0x5c build/LAN9255_SQI_DIRECT_MODE/production/_ext/1671622016/Drivers.o
                0x0000c834                ESC_BYTE_TEST_Register_Read

.text.Read0x10F8%227
                0x0000c890       0x5c
 .text.Read0x10F8
                0x0000c890       0x5c build/LAN9255_SQI_DIRECT_MODE/production/_ext/108134065/coeappl.o
                0x0000c890                Read0x10F8

.text.COE_ContinueInd%228
                0x0000c8ec       0x5c
 .text.COE_ContinueInd
                0x0000c8ec       0x5c build/LAN9255_SQI_DIRECT_MODE/production/_ext/108134065/ecatcoe.o
                0x0000c8ec                COE_ContinueInd

.text.GetOutOfEmptyEmcyQueue%229
                0x0000c948       0x5c
 .text.GetOutOfEmptyEmcyQueue
                0x0000c948       0x5c build/LAN9255_SQI_DIRECT_MODE/production/_ext/108134065/emcy.o
                0x0000c948                GetOutOfEmptyEmcyQueue

.text.GetOutOfSendEmcyQueue%230
                0x0000c9a4       0x5c
 .text.GetOutOfSendEmcyQueue
                0x0000c9a4       0x5c build/LAN9255_SQI_DIRECT_MODE/production/_ext/108134065/emcy.o
                0x0000c9a4                GetOutOfSendEmcyQueue

.text.FoE_ReadData%231
                0x0000ca00       0x5c
 .text.FoE_ReadData
                0x0000ca00       0x5c build/LAN9255_SQI_DIRECT_MODE/production/_ext/108134065/sample_app.o
                0x0000ca00                FoE_ReadData

.text.oledc_text%232
                0x0000ca5c       0x58
 .text.oledc_text
                0x0000ca5c       0x58 build/LAN9255_SQI_DIRECT_MODE/production/_ext/1865488526/oledc_driver.o
                0x0000ca5c                oledc_text

.text.GetOutOfMbxQueue%233
                0x0000cab4       0x58
 .text.GetOutOfMbxQueue
                0x0000cab4       0x58 build/LAN9255_SQI_DIRECT_MODE/production/_ext/108134065/mailbox.o
                0x0000cab4                GetOutOfMbxQueue

.text.OBJ_GetEntryDesc%234
                0x0000cb0c       0x58
 .text.OBJ_GetEntryDesc
                0x0000cb0c       0x58 build/LAN9255_SQI_DIRECT_MODE/production/_ext/108134065/objdef.o
                0x0000cb0c                OBJ_GetEntryDesc

.text.__NVIC_SetPriority%235
                0x0000cb64       0x54
 .text.__NVIC_SetPriority
                0x0000cb64       0x54 build/LAN9255_SQI_DIRECT_MODE/production/_ext/1865468468/plib_nvic.o

.text.oledc_spiDriverInit%236
                0x0000cbb8       0x54
 .text.oledc_spiDriverInit
                0x0000cbb8       0x54 build/LAN9255_SQI_DIRECT_MODE/production/_ext/1865488526/oledc_driver.o
                0x0000cbb8                oledc_spiDriverInit

.rodata.aName0x1601%237
                0x0000cc0c       0x54
 .rodata.aName0x1601
                0x0000cc0c       0x54 build/LAN9255_SQI_DIRECT_MODE/production/_ext/108134065/coeappl.o
                0x0000cc0c                aName0x1601

.text._fflush_r%238
                0x0000cc60       0x54
 .text._fflush_r
                0x0000cc60       0x54 c:/program files/microchip/xc32/v3.01/bin/bin/../../lib/gcc/pic32c/8.3.1/../../../../pic32c/lib/thumb/v7e-m+fp/hard\libc_nano.a(lib_a-fflush.o)
                0x0000cc60                _fflush_r

.text.PutInMbxQueue%239
                0x0000ccb4       0x52
 .text.PutInMbxQueue
                0x0000ccb4       0x52 build/LAN9255_SQI_DIRECT_MODE/production/_ext/108134065/mailbox.o
                0x0000ccb4                PutInMbxQueue

.text.SERCOM0_USART_ISR_ERR_Handler%240
                0x0000cd08       0x4c
 .text.SERCOM0_USART_ISR_ERR_Handler
                0x0000cd08       0x4c build/LAN9255_SQI_DIRECT_MODE/production/_ext/504274921/plib_sercom0_usart.o

.text.SERCOM0_USART_InterruptHandler%241
                0x0000cd54       0x4c
 .text.SERCOM0_USART_InterruptHandler
                0x0000cd54       0x4c build/LAN9255_SQI_DIRECT_MODE/production/_ext/504274921/plib_sercom0_usart.o
                0x0000cd54                SERCOM0_USART_InterruptHandler

.text.ESF_PDI_Init%242
                0x0000cda0       0x4c
 .text.ESF_PDI_Init
                0x0000cda0       0x4c build/LAN9255_SQI_DIRECT_MODE/production/_ext/1671622016/Drivers.o
                0x0000cda0                ESF_PDI_Init

.text.UpdateEEPROMLoadedState%243
                0x0000cdec       0x4c
 .text.UpdateEEPROMLoadedState
                0x0000cdec       0x4c build/LAN9255_SQI_DIRECT_MODE/production/_ext/108134065/ecatslv.o
                0x0000cdec                UpdateEEPROMLoadedState

.text.DisableSyncManChannel%244
                0x0000ce38       0x4c
 .text.DisableSyncManChannel
                0x0000ce38       0x4c build/LAN9255_SQI_DIRECT_MODE/production/_ext/108134065/ecatslv.o
                0x0000ce38                DisableSyncManChannel

.text.CheckIfEcatError%245
                0x0000ce84       0x4c
 .text.CheckIfEcatError
                0x0000ce84       0x4c build/LAN9255_SQI_DIRECT_MODE/production/_ext/108134065/ecatslv.o
                0x0000ce84                CheckIfEcatError

.text.EnableSyncManChannel%246
                0x0000ced0       0x4a
 .text.EnableSyncManChannel
                0x0000ced0       0x4a build/LAN9255_SQI_DIRECT_MODE/production/_ext/108134065/ecatslv.o
                0x0000ced0                EnableSyncManChannel

.text.__ssfputs_r%247
                0x0000cf1a       0x4a
 .text.__ssfputs_r
                0x0000cf1a       0x4a c:/program files/microchip/xc32/v3.01/bin/bin/../../lib/gcc/pic32c/8.3.1/../../../../pic32c/lib/thumb/v7e-m+fp/hard\libc_nano.a(lib_a-__ssfputs.o)
                0x0000cf1a                __ssfputs_r

.text.__NVIC_SetPriorityGrouping%248
                0x0000cf64       0x48
 .text.__NVIC_SetPriorityGrouping
                0x0000cf64       0x48 build/LAN9255_SQI_DIRECT_MODE/production/_ext/1865468468/plib_nvic.o

.text.FOE_Read%249
                0x0000cfac       0x48
 .text.FOE_Read
                0x0000cfac       0x48 build/LAN9255_SQI_DIRECT_MODE/production/_ext/108134065/foeappl.o
                0x0000cfac                FOE_Read

.text.__libc_init_array%250
                0x0000cff4       0x48
 .text.__libc_init_array
                0x0000cff4       0x48 c:/program files/microchip/xc32/v3.01/bin/bin/../../lib/gcc/pic32c/8.3.1/../../../../pic32c/lib/thumb/v7e-m+fp/hard\libc_nano.a(lib_a-init.o)
                0x0000cff4                __libc_init_array

.text.std%251   0x0000d03c       0x48
 .text.std      0x0000d03c       0x48 c:/program files/microchip/xc32/v3.01/bin/bin/../../lib/gcc/pic32c/8.3.1/../../../../pic32c/lib/thumb/v7e-m+fp/hard\libc_nano.a(lib_a-findfp.o)

.text.__swhatbuf_r%252
                0x0000d084       0x48
 .text.__swhatbuf_r
                0x0000d084       0x48 c:/program files/microchip/xc32/v3.01/bin/bin/../../lib/gcc/pic32c/8.3.1/../../../../pic32c/lib/thumb/v7e-m+fp/hard\libc_nano.a(lib_a-makebuf.o)
                0x0000d084                __swhatbuf_r

.text.Delay_ms%253
                0x0000d0cc       0x46
 .text.Delay_ms
                0x0000d0cc       0x46 build/LAN9255_SQI_DIRECT_MODE/production/_ext/1865488526/oledc_driver.o
                0x0000d0cc                Delay_ms

.text.ResetALEventMask%254
                0x0000d112       0x46
 .text.ResetALEventMask
                0x0000d112       0x46 build/LAN9255_SQI_DIRECT_MODE/production/_ext/108134065/ecatslv.o
                0x0000d112                ResetALEventMask

.text.SetALEventMask%255
                0x0000d158       0x46
 .text.SetALEventMask
                0x0000d158       0x46 build/LAN9255_SQI_DIRECT_MODE/production/_ext/108134065/ecatslv.o
                0x0000d158                SetALEventMask

.text.GCLK0_Initialize%256
                0x0000d1a0       0x44
 .text.GCLK0_Initialize
                0x0000d1a0       0x44 build/LAN9255_SQI_DIRECT_MODE/production/_ext/1984496892/plib_clock.o

.text.SERCOM0_USART_ReadAbort%257
                0x0000d1e4       0x44
 .text.SERCOM0_USART_ReadAbort
                0x0000d1e4       0x44 build/LAN9255_SQI_DIRECT_MODE/production/_ext/504274921/plib_sercom0_usart.o
                0x0000d1e4                SERCOM0_USART_ReadAbort

.text.FPU_Enable%258
                0x0000d228       0x44
 .text.FPU_Enable
                0x0000d228       0x44 build/LAN9255_SQI_DIRECT_MODE/production/_ext/1171490990/startup_xc32.o

.text.COE_ObjDictionaryInit%259
                0x0000d26c       0x44
 .text.COE_ObjDictionaryInit
                0x0000d26c       0x44 build/LAN9255_SQI_DIRECT_MODE/production/_ext/108134065/coeappl.o
                0x0000d26c                COE_ObjDictionaryInit

.text.Sync1_Isr%260
                0x0000d2b0       0x44
 .text.Sync1_Isr
                0x0000d2b0       0x44 build/LAN9255_SQI_DIRECT_MODE/production/_ext/108134065/ecatappl.o
                0x0000d2b0                Sync1_Isr

.text.PutInEmptyEmcyQueue%261
                0x0000d2f4       0x44
 .text.PutInEmptyEmcyQueue
                0x0000d2f4       0x44 build/LAN9255_SQI_DIRECT_MODE/production/_ext/108134065/emcy.o
                0x0000d2f4                PutInEmptyEmcyQueue

.text.PutInSendEmcyQueue%262
                0x0000d338       0x44
 .text.PutInSendEmcyQueue
                0x0000d338       0x44 build/LAN9255_SQI_DIRECT_MODE/production/_ext/108134065/emcy.o
                0x0000d338                PutInSendEmcyQueue

.text.APP_FW_startDownload%263
                0x0000d37c       0x44
 .text.APP_FW_startDownload
                0x0000d37c       0x44 build/LAN9255_SQI_DIRECT_MODE/production/_ext/108134065/sample_app.o
                0x0000d37c                APP_FW_startDownload

.text.AddObjectsToObjDictionary%264
                0x0000d3c0       0x42
 .text.AddObjectsToObjDictionary
                0x0000d3c0       0x42 build/LAN9255_SQI_DIRECT_MODE/production/_ext/108134065/coeappl.o
                0x0000d3c0                AddObjectsToObjDictionary

.text%265       0x0000d404       0x40
 .text          0x0000d404       0x40 c:/program files/microchip/xc32/v3.01/bin/bin/../../lib/gcc/pic32c/8.3.1/thumb/v7e-m+fp/hard/crtbegin.o

.text.SYSTICK_TimerInitialize%266
                0x0000d444       0x40
 .text.SYSTICK_TimerInitialize
                0x0000d444       0x40 build/LAN9255_SQI_DIRECT_MODE/production/_ext/1827571544/plib_systick.o
                0x0000d444                SYSTICK_TimerInitialize

.text.ICache_Enable%267
                0x0000d484       0x40
 .text.ICache_Enable
                0x0000d484       0x40 build/LAN9255_SQI_DIRECT_MODE/production/_ext/1171490990/startup_xc32.o

.rodata.aName0x10F1%268
                0x0000d4c4       0x40
 .rodata.aName0x10F1
                0x0000d4c4       0x40 build/LAN9255_SQI_DIRECT_MODE/production/_ext/108134065/coeappl.o
                0x0000d4c4                aName0x10F1

.text.COE_ClearObjDictionary%269
                0x0000d504       0x40
 .text.COE_ClearObjDictionary
                0x0000d504       0x40 build/LAN9255_SQI_DIRECT_MODE/production/_ext/108134065/coeappl.o
                0x0000d504                COE_ClearObjDictionary

.text.write%270
                0x0000d544       0x40
 .text.write    0x0000d544       0x40 c:/program files/microchip/xc32/v3.01/bin/bin/../../lib/gcc/pic32c/8.3.1/../../../../pic32c/lib/thumb/v7e-m+fp/hard\libpic32c.a(write.o)
                0x0000d544                write

.text.__NVIC_EnableIRQ%271
                0x0000d584       0x3c
 .text.__NVIC_EnableIRQ
                0x0000d584       0x3c build/LAN9255_SQI_DIRECT_MODE/production/_ext/1865468468/plib_nvic.o

.text.QSPI_Initialize%272
                0x0000d5c0       0x3c
 .text.QSPI_Initialize
                0x0000d5c0       0x3c build/LAN9255_SQI_DIRECT_MODE/production/_ext/1865555181/plib_qspi.o
                0x0000d5c0                QSPI_Initialize

.text.SERCOM0_USART_ErrorClear%273
                0x0000d5fc       0x3c
 .text.SERCOM0_USART_ErrorClear
                0x0000d5fc       0x3c build/LAN9255_SQI_DIRECT_MODE/production/_ext/504274921/plib_sercom0_usart.o

.text.SYS_Initialize%274
                0x0000d638       0x3c
 .text.SYS_Initialize
                0x0000d638       0x3c build/LAN9255_SQI_DIRECT_MODE/production/_ext/1171490990/initialization.o
                0x0000d638                SYS_Initialize

.rodata.aName0x1018%275
                0x0000d674       0x3c
 .rodata.aName0x1018
                0x0000d674       0x3c build/LAN9255_SQI_DIRECT_MODE/production/_ext/108134065/coeappl.o
                0x0000d674                aName0x1018

.text.ECAT_Application%276
                0x0000d6b0       0x3c
 .text.ECAT_Application
                0x0000d6b0       0x3c build/LAN9255_SQI_DIRECT_MODE/production/_ext/108134065/ecatappl.o
                0x0000d6b0                ECAT_Application

.text._sprintf_cdnopuxX%277
                0x0000d6ec       0x3c
 .text._sprintf_cdnopuxX
                0x0000d6ec       0x3c c:/program files/microchip/xc32/v3.01/bin/bin/../../lib/gcc/pic32c/8.3.1/../../../../pic32c/lib/thumb/v7e-m+fp/hard\libc_nano.a(_lib_a-sprintf.cdnopuxX.o)
                0x0000d6ec                _sprintf_cdnopuxX
                0x0000d6ec                __sprintf_u

.text._fwalk_reent%278
                0x0000d728       0x3c
 .text._fwalk_reent
                0x0000d728       0x3c c:/program files/microchip/xc32/v3.01/bin/bin/../../lib/gcc/pic32c/8.3.1/../../../../pic32c/lib/thumb/v7e-m+fp/hard\libc_nano.a(lib_a-fwalk.o)
                0x0000d728                _fwalk_reent

.text.SQI_SetConfiguration%279
                0x0000d764       0x3a
 .text.SQI_SetConfiguration
                0x0000d764       0x3a build/LAN9255_SQI_DIRECT_MODE/production/_ext/1671622016/Drivers.o
                0x0000d764                SQI_SetConfiguration

.text.APP_RunApplication%280
                0x0000d79e       0x3a
 .text.APP_RunApplication
                0x0000d79e       0x3a build/LAN9255_SQI_DIRECT_MODE/production/_ext/1360937237/app.o

.text.PORT_PinSet%281
                0x0000d7d8       0x38
 .text.PORT_PinSet
                0x0000d7d8       0x38 build/LAN9255_SQI_DIRECT_MODE/production/_ext/1671622016/Drivers.o

.text.PORT_PinClear%282
                0x0000d810       0x38
 .text.PORT_PinClear
                0x0000d810       0x38 build/LAN9255_SQI_DIRECT_MODE/production/_ext/1671622016/Drivers.o

.text.PORT_PinOutputEnable%283
                0x0000d848       0x38
 .text.PORT_PinOutputEnable
                0x0000d848       0x38 build/LAN9255_SQI_DIRECT_MODE/production/_ext/1671622016/Drivers.o

.text.PORT_PinSet%284
                0x0000d880       0x38
 .text.PORT_PinSet
                0x0000d880       0x38 build/LAN9255_SQI_DIRECT_MODE/production/_ext/108147519/LAN925x.o

.text.PORT_PinClear%285
                0x0000d8b8       0x38
 .text.PORT_PinClear
                0x0000d8b8       0x38 build/LAN9255_SQI_DIRECT_MODE/production/_ext/108147519/LAN925x.o

.rodata.aName0x1A00%286
                0x0000d8f0       0x38
 .rodata.aName0x1A00
                0x0000d8f0       0x38 build/LAN9255_SQI_DIRECT_MODE/production/_ext/108134065/coeappl.o
                0x0000d8f0                aName0x1A00

.text.FOE_Write%287
                0x0000d928       0x38
 .text.FOE_Write
                0x0000d928       0x38 build/LAN9255_SQI_DIRECT_MODE/production/_ext/108134065/foeappl.o
                0x0000d928                FOE_Write

.text.FOE_Ack%288
                0x0000d960       0x38
 .text.FOE_Ack  0x0000d960       0x38 build/LAN9255_SQI_DIRECT_MODE/production/_ext/108134065/foeappl.o
                0x0000d960                FOE_Ack

.text.__swrite%289
                0x0000d998       0x38
 .text.__swrite
                0x0000d998       0x38 c:/program files/microchip/xc32/v3.01/bin/bin/../../lib/gcc/pic32c/8.3.1/../../../../pic32c/lib/thumb/v7e-m+fp/hard\libc_nano.a(lib_a-stdio.o)
                0x0000d998                __swrite

.text.OBJ_GetObjectHandle%290
                0x0000d9d0       0x36
 .text.OBJ_GetObjectHandle
                0x0000d9d0       0x36 build/LAN9255_SQI_DIRECT_MODE/production/_ext/108134065/objdef.o
                0x0000d9d0                OBJ_GetObjectHandle

.text.NVMCTRL_BlockErase%291
                0x0000da08       0x34
 .text.NVMCTRL_BlockErase
                0x0000da08       0x34 build/LAN9255_SQI_DIRECT_MODE/production/_ext/1593096446/plib_nvmctrl.o
                0x0000da08                NVMCTRL_BlockErase

.text.oledc_enable%292
                0x0000da3c       0x34
 .text.oledc_enable
                0x0000da3c       0x34 build/LAN9255_SQI_DIRECT_MODE/production/_ext/1865488526/oledc_driver.o
                0x0000da3c                oledc_enable

.text.qspi_memcpy_32bit%293
                0x0000da70       0x34
 .text.qspi_memcpy_32bit
                0x0000da70       0x34 build/LAN9255_SQI_DIRECT_MODE/production/_ext/1865555181/plib_qspi.o

.text.qspi_memcpy_8bit%294
                0x0000daa4       0x34
 .text.qspi_memcpy_8bit
                0x0000daa4       0x34 build/LAN9255_SQI_DIRECT_MODE/production/_ext/1865555181/plib_qspi.o

.rodata%295     0x0000dad8       0x33
 .rodata        0x0000dad8       0x33 c:/program files/microchip/xc32/v3.01/bin/bin/../../lib/gcc/pic32c/8.3.1/../../../../pic32c/lib/thumb/v7e-m+fp/hard\libc_nano.a(_lib_a-nano-vfprintf.cdnopuxX.o)

.text.oledc_reset%296
                0x0000db0c       0x30
 .text.oledc_reset
                0x0000db0c       0x30 build/LAN9255_SQI_DIRECT_MODE/production/_ext/1865488526/oledc_driver.o
                0x0000db0c                oledc_reset

.text.SERCOM0_USART_ErrorGet%297
                0x0000db3c       0x30
 .text.SERCOM0_USART_ErrorGet
                0x0000db3c       0x30 build/LAN9255_SQI_DIRECT_MODE/production/_ext/504274921/plib_sercom0_usart.o
                0x0000db3c                SERCOM0_USART_ErrorGet

.rodata.asEntryDesc0x1600%298
                0x0000db6c       0x30
 .rodata.asEntryDesc0x1600
                0x0000db6c       0x30 build/LAN9255_SQI_DIRECT_MODE/production/_ext/108134065/coeappl.o
                0x0000db6c                asEntryDesc0x1600

.rodata.aName0x1A02%299
                0x0000db9c       0x30
 .rodata.aName0x1A02
                0x0000db9c       0x30 build/LAN9255_SQI_DIRECT_MODE/production/_ext/108134065/coeappl.o
                0x0000db9c                aName0x1A02

.rodata.asEntryDesc0x8000%300
                0x0000dbcc       0x30
 .rodata.asEntryDesc0x8000
                0x0000dbcc       0x30 build/LAN9255_SQI_DIRECT_MODE/production/_ext/108134065/coeappl.o
                0x0000dbcc                asEntryDesc0x8000

.text.FOE_ContinueInd%301
                0x0000dbfc       0x30
 .text.FOE_ContinueInd
                0x0000dbfc       0x30 build/LAN9255_SQI_DIRECT_MODE/production/_ext/108134065/ecatfoe.o
                0x0000dbfc                FOE_ContinueInd

.text.GetSyncMan%302
                0x0000dc2c       0x30
 .text.GetSyncMan
                0x0000dc2c       0x30 build/LAN9255_SQI_DIRECT_MODE/production/_ext/108134065/ecatslv.o
                0x0000dc2c                GetSyncMan

.text%303       0x0000dc5c       0x30
 .text          0x0000dc5c       0x30 c:/program files/microchip/xc32/v3.01/bin/bin/../../lib/gcc/pic32c/8.3.1/thumb/v7e-m+fp/hard\libgcc.a(_aeabi_uldivmod.o)
                0x0000dc5c                __aeabi_uldivmod

.text.__sfputc_r%304
                0x0000dc8c       0x2e
 .text.__sfputc_r
                0x0000dc8c       0x2e c:/program files/microchip/xc32/v3.01/bin/bin/../../lib/gcc/pic32c/8.3.1/../../../../pic32c/lib/thumb/v7e-m+fp/hard\libc_nano.a(lib_a-__ssfputs.o)

.text.GCLK1_Initialize%305
                0x0000dcbc       0x2c
 .text.GCLK1_Initialize
                0x0000dcbc       0x2c build/LAN9255_SQI_DIRECT_MODE/production/_ext/1984496892/plib_clock.o

.text.GCLK2_Initialize%306
                0x0000dce8       0x2c
 .text.GCLK2_Initialize
                0x0000dce8       0x2c build/LAN9255_SQI_DIRECT_MODE/production/_ext/1984496892/plib_clock.o

.text.GCLK3_Initialize%307
                0x0000dd14       0x2c
 .text.GCLK3_Initialize
                0x0000dd14       0x2c build/LAN9255_SQI_DIRECT_MODE/production/_ext/1984496892/plib_clock.o

.text.GCLK4_Initialize%308
                0x0000dd40       0x2c
 .text.GCLK4_Initialize
                0x0000dd40       0x2c build/LAN9255_SQI_DIRECT_MODE/production/_ext/1984496892/plib_clock.o

.text.EIC_EXTINT_0_InterruptHandler%309
                0x0000dd6c       0x2c
 .text.EIC_EXTINT_0_InterruptHandler
                0x0000dd6c       0x2c build/LAN9255_SQI_DIRECT_MODE/production/_ext/60167341/plib_eic.o
                0x0000dd6c                EIC_EXTINT_0_InterruptHandler

.text.EIC_EXTINT_1_InterruptHandler%310
                0x0000dd98       0x2c
 .text.EIC_EXTINT_1_InterruptHandler
                0x0000dd98       0x2c build/LAN9255_SQI_DIRECT_MODE/production/_ext/60167341/plib_eic.o
                0x0000dd98                EIC_EXTINT_1_InterruptHandler

.text.EIC_EXTINT_7_InterruptHandler%311
                0x0000ddc4       0x2c
 .text.EIC_EXTINT_7_InterruptHandler
                0x0000ddc4       0x2c build/LAN9255_SQI_DIRECT_MODE/production/_ext/60167341/plib_eic.o
                0x0000ddc4                EIC_EXTINT_7_InterruptHandler

.text.SysTick_Handler%312
                0x0000ddf0       0x2c
 .text.SysTick_Handler
                0x0000ddf0       0x2c build/LAN9255_SQI_DIRECT_MODE/production/_ext/1827571544/plib_systick.o
                0x0000ddf0                SysTick_Handler

.text.SQI_EnableQuadMode%313
                0x0000de1c       0x2c
 .text.SQI_EnableQuadMode
                0x0000de1c       0x2c build/LAN9255_SQI_DIRECT_MODE/production/_ext/1671622016/Drivers.o
                0x0000de1c                SQI_EnableQuadMode

.text.SQI_DisableQuadMode%314
                0x0000de48       0x2c
 .text.SQI_DisableQuadMode
                0x0000de48       0x2c build/LAN9255_SQI_DIRECT_MODE/production/_ext/1671622016/Drivers.o
                0x0000de48                SQI_DisableQuadMode

.text.FOE_Init%315
                0x0000de74       0x2c
 .text.FOE_Init
                0x0000de74       0x2c build/LAN9255_SQI_DIRECT_MODE/production/_ext/108134065/ecatfoe.o
                0x0000de74                FOE_Init

.text.Emulation_Init%316
                0x0000dea0       0x2c
 .text.Emulation_Init
                0x0000dea0       0x2c build/LAN9255_SQI_DIRECT_MODE/production/_ext/108134065/sample_app.o
                0x0000dea0                Emulation_Init

.text.__sfmoreglue%317
                0x0000decc       0x2c
 .text.__sfmoreglue
                0x0000decc       0x2c c:/program files/microchip/xc32/v3.01/bin/bin/../../lib/gcc/pic32c/8.3.1/../../../../pic32c/lib/thumb/v7e-m+fp/hard\libc_nano.a(lib_a-findfp.o)
                0x0000decc                __sfmoreglue

.text._wcrtomb_r%318
                0x0000def8       0x2c
 .text._wcrtomb_r
                0x0000def8       0x2c c:/program files/microchip/xc32/v3.01/bin/bin/../../lib/gcc/pic32c/8.3.1/../../../../pic32c/lib/thumb/v7e-m+fp/hard\libc_nano.a(lib_a-wcrtomb.o)
                0x0000def8                _wcrtomb_r

.text._sbrk%319
                0x0000df24       0x2c
 .text._sbrk    0x0000df24       0x2c c:/program files/microchip/xc32/v3.01/bin/bin/../../lib/gcc/pic32c/8.3.1/../../../../pic32c/lib/thumb/v7e-m+fp/hard\libpic32c.a(sbrk.o)
                0x0000df24                _sbrk

.text.NVMCTRL_IsBusy%320
                0x0000df50       0x28
 .text.NVMCTRL_IsBusy
                0x0000df50       0x28 build/LAN9255_SQI_DIRECT_MODE/production/_ext/1593096446/plib_nvmctrl.o
                0x0000df50                NVMCTRL_IsBusy

.text.SERCOM4_SPI_CallbackRegister%321
                0x0000df78       0x28
 .text.SERCOM4_SPI_CallbackRegister
                0x0000df78       0x28 build/LAN9255_SQI_DIRECT_MODE/production/_ext/17022449/plib_sercom4_spi_master.o
                0x0000df78                SERCOM4_SPI_CallbackRegister

.text.SERCOM0_USART_WriteCallbackRegister%322
                0x0000dfa0       0x28
 .text.SERCOM0_USART_WriteCallbackRegister
                0x0000dfa0       0x28 build/LAN9255_SQI_DIRECT_MODE/production/_ext/504274921/plib_sercom0_usart.o
                0x0000dfa0                SERCOM0_USART_WriteCallbackRegister

.text.SERCOM0_USART_ReadCallbackRegister%323
                0x0000dfc8       0x28
 .text.SERCOM0_USART_ReadCallbackRegister
                0x0000dfc8       0x28 build/LAN9255_SQI_DIRECT_MODE/production/_ext/504274921/plib_sercom0_usart.o
                0x0000dfc8                SERCOM0_USART_ReadCallbackRegister

.text.SYSTICK_TimerCallbackSet%324
                0x0000dff0       0x28
 .text.SYSTICK_TimerCallbackSet
                0x0000dff0       0x28 build/LAN9255_SQI_DIRECT_MODE/production/_ext/1827571544/plib_systick.o
                0x0000dff0                SYSTICK_TimerCallbackSet

.text.ESC_IRQ_cb%325
                0x0000e018       0x28
 .text.ESC_IRQ_cb
                0x0000e018       0x28 build/LAN9255_SQI_DIRECT_MODE/production/_ext/1671622016/Drivers.o
                0x0000e018                ESC_IRQ_cb

.rodata.aName0x7010%326
                0x0000e040       0x28
 .rodata.aName0x7010
                0x0000e040       0x28 build/LAN9255_SQI_DIRECT_MODE/production/_ext/108134065/coeappl.o
                0x0000e040                aName0x7010

.text.APP_FW_StateBOOTtoINIT%327
                0x0000e068       0x28
 .text.APP_FW_StateBOOTtoINIT
                0x0000e068       0x28 build/LAN9255_SQI_DIRECT_MODE/production/_ext/108134065/sample_app.o
                0x0000e068                APP_FW_StateBOOTtoINIT

.text.read%328  0x0000e090       0x28
 .text.read     0x0000e090       0x28 c:/program files/microchip/xc32/v3.01/bin/bin/../../lib/gcc/pic32c/8.3.1/../../../../pic32c/lib/thumb/v7e-m+fp/hard\libpic32c.a(read.o)
                0x0000e090                read

.text.HW_GetALEventRegister%329
                0x0000e0b8       0x26
 .text.HW_GetALEventRegister
                0x0000e0b8       0x26 build/LAN9255_SQI_DIRECT_MODE/production/_ext/108147519/LAN925x.o
                0x0000e0b8                HW_GetALEventRegister

.text.NVMCTRL_StatusGet%330
                0x0000e0e0       0x24
 .text.NVMCTRL_StatusGet
                0x0000e0e0       0x24 build/LAN9255_SQI_DIRECT_MODE/production/_ext/1593096446/plib_nvmctrl.o
                0x0000e0e0                NVMCTRL_StatusGet

.text.SYSTICK_TimerStart%331
                0x0000e104       0x24
 .text.SYSTICK_TimerStart
                0x0000e104       0x24 build/LAN9255_SQI_DIRECT_MODE/production/_ext/1827571544/plib_systick.o
                0x0000e104                SYSTICK_TimerStart

.text.TCM_Configure%332
                0x0000e128       0x24
 .text.TCM_Configure
                0x0000e128       0x24 build/LAN9255_SQI_DIRECT_MODE/production/_ext/1171490990/startup_xc32.o

.text.PDI_Init_SYNC_Interrupts%333
                0x0000e14c       0x24
 .text.PDI_Init_SYNC_Interrupts
                0x0000e14c       0x24 build/LAN9255_SQI_DIRECT_MODE/production/_ext/108147519/ESC_Utils.o
                0x0000e14c                PDI_Init_SYNC_Interrupts

.rodata.aName0x6000%334
                0x0000e170       0x24
 .rodata.aName0x6000
                0x0000e170       0x24 build/LAN9255_SQI_DIRECT_MODE/production/_ext/108134065/coeappl.o
                0x0000e170                aName0x6000

.text.COE_Init%335
                0x0000e194       0x24
 .text.COE_Init
                0x0000e194       0x24 build/LAN9255_SQI_DIRECT_MODE/production/_ext/108134065/ecatcoe.o
                0x0000e194                COE_Init

.text.StopOutputHandler%336
                0x0000e1b8       0x24
 .text.StopOutputHandler
                0x0000e1b8       0x24 build/LAN9255_SQI_DIRECT_MODE/production/_ext/108134065/ecatslv.o
                0x0000e1b8                StopOutputHandler

.text.EMCY_IsQueueEmpty%337
                0x0000e1dc       0x24
 .text.EMCY_IsQueueEmpty
                0x0000e1dc       0x24 build/LAN9255_SQI_DIRECT_MODE/production/_ext/108134065/emcy.o
                0x0000e1dc                EMCY_IsQueueEmpty

.text.FOE_Error%338
                0x0000e200       0x24
 .text.FOE_Error
                0x0000e200       0x24 build/LAN9255_SQI_DIRECT_MODE/production/_ext/108134065/foeappl.o
                0x0000e200                FOE_Error

.text.APP_BankSwitch%339
                0x0000e224       0x24
 .text.APP_BankSwitch
                0x0000e224       0x24 build/LAN9255_SQI_DIRECT_MODE/production/_ext/1360937237/app.o

.text.__ascii_mbtowc%340
                0x0000e248       0x24
 .text.__ascii_mbtowc
                0x0000e248       0x24 c:/program files/microchip/xc32/v3.01/bin/bin/../../lib/gcc/pic32c/8.3.1/../../../../pic32c/lib/thumb/v7e-m+fp/hard\libc_nano.a(lib_a-mbtowc_r.o)
                0x0000e248                __ascii_mbtowc

.text.__sseek%341
                0x0000e26c       0x24
 .text.__sseek  0x0000e26c       0x24 c:/program files/microchip/xc32/v3.01/bin/bin/../../lib/gcc/pic32c/8.3.1/../../../../pic32c/lib/thumb/v7e-m+fp/hard\libc_nano.a(lib_a-stdio.o)
                0x0000e26c                __sseek

.text._write_r%342
                0x0000e290       0x24
 .text._write_r
                0x0000e290       0x24 c:/program files/microchip/xc32/v3.01/bin/bin/../../lib/gcc/pic32c/8.3.1/../../../../pic32c/lib/thumb/v7e-m+fp/hard\libc_nano.a(lib_a-writer.o)
                0x0000e290                _write_r

.text._lseek_r%343
                0x0000e2b4       0x24
 .text._lseek_r
                0x0000e2b4       0x24 c:/program files/microchip/xc32/v3.01/bin/bin/../../lib/gcc/pic32c/8.3.1/../../../../pic32c/lib/thumb/v7e-m+fp/hard\libc_nano.a(lib_a-lseekr.o)
                0x0000e2b4                _lseek_r

.text._read_r%344
                0x0000e2d8       0x24
 .text._read_r  0x0000e2d8       0x24 c:/program files/microchip/xc32/v3.01/bin/bin/../../lib/gcc/pic32c/8.3.1/../../../../pic32c/lib/thumb/v7e-m+fp/hard\libc_nano.a(lib_a-readr.o)
                0x0000e2d8                _read_r

.text._fstat_r%345
                0x0000e2fc       0x24
 .text._fstat_r
                0x0000e2fc       0x24 c:/program files/microchip/xc32/v3.01/bin/bin/../../lib/gcc/pic32c/8.3.1/../../../../pic32c/lib/thumb/v7e-m+fp/hard\libc_nano.a(lib_a-fstatr.o)
                0x0000e2fc                _fstat_r

.text.NVMCTRL_Read%346
                0x0000e320       0x22
 .text.NVMCTRL_Read
                0x0000e320       0x22 build/LAN9255_SQI_DIRECT_MODE/production/_ext/1593096446/plib_nvmctrl.o
                0x0000e320                NVMCTRL_Read

.text.oledc_fill_screen%347
                0x0000e342       0x22
 .text.oledc_fill_screen
                0x0000e342       0x22 build/LAN9255_SQI_DIRECT_MODE/production/_ext/1865488526/oledc_driver.o
                0x0000e342                oledc_fill_screen

.text.EMCY_ContinueInd%348
                0x0000e364       0x22
 .text.EMCY_ContinueInd
                0x0000e364       0x22 build/LAN9255_SQI_DIRECT_MODE/production/_ext/108134065/emcy.o
                0x0000e364                EMCY_ContinueInd

.text.__sread%349
                0x0000e386       0x22
 .text.__sread  0x0000e386       0x22 c:/program files/microchip/xc32/v3.01/bin/bin/../../lib/gcc/pic32c/8.3.1/../../../../pic32c/lib/thumb/v7e-m+fp/hard\libc_nano.a(lib_a-stdio.o)
                0x0000e386                __sread

.text.SERCOM4_SPI_Write%350
                0x0000e3a8       0x20
 .text.SERCOM4_SPI_Write
                0x0000e3a8       0x20 build/LAN9255_SQI_DIRECT_MODE/production/_ext/17022449/plib_sercom4_spi_master.o
                0x0000e3a8                SERCOM4_SPI_Write

.rodata.asEntryDesc0x1601%351
                0x0000e3c8       0x20
 .rodata.asEntryDesc0x1601
                0x0000e3c8       0x20 build/LAN9255_SQI_DIRECT_MODE/production/_ext/108134065/coeappl.o
                0x0000e3c8                asEntryDesc0x1601

.rodata.asEntryDesc0x7010%352
                0x0000e3e8       0x20
 .rodata.asEntryDesc0x7010
                0x0000e3e8       0x20 build/LAN9255_SQI_DIRECT_MODE/production/_ext/108134065/coeappl.o
                0x0000e3e8                asEntryDesc0x7010

.rodata.asEntryDesc0x1018%353
                0x0000e408       0x20
 .rodata.asEntryDesc0x1018
                0x0000e408       0x20 build/LAN9255_SQI_DIRECT_MODE/production/_ext/108134065/coeappl.o
                0x0000e408                asEntryDesc0x1018

.text.FOE_Busy%354
                0x0000e428       0x20
 .text.FOE_Busy
                0x0000e428       0x20 build/LAN9255_SQI_DIRECT_MODE/production/_ext/108134065/foeappl.o
                0x0000e428                FOE_Busy

.rodata.cBitMask%355
                0x0000e448       0x20
 .rodata.cBitMask
                0x0000e448       0x20 build/LAN9255_SQI_DIRECT_MODE/production/_ext/108134065/objdef.o
                0x0000e448                cBitMask

.text.Oled_cb%356
                0x0000e468       0x20
 .text.Oled_cb  0x0000e468       0x20 build/LAN9255_SQI_DIRECT_MODE/production/_ext/1360937237/app.o
                0x0000e468                Oled_cb

.text.uart_rx_cb%357
                0x0000e488       0x20
 .text.uart_rx_cb
                0x0000e488       0x20 build/LAN9255_SQI_DIRECT_MODE/production/_ext/1360937237/app.o
                0x0000e488                uart_rx_cb

.text._sbrk_r%358
                0x0000e4a8       0x20
 .text._sbrk_r  0x0000e4a8       0x20 c:/program files/microchip/xc32/v3.01/bin/bin/../../lib/gcc/pic32c/8.3.1/../../../../pic32c/lib/thumb/v7e-m+fp/hard\libc_nano.a(lib_a-sbrkr.o)
                0x0000e4a8                _sbrk_r

.text._close_r%359
                0x0000e4c8       0x20
 .text._close_r
                0x0000e4c8       0x20 c:/program files/microchip/xc32/v3.01/bin/bin/../../lib/gcc/pic32c/8.3.1/../../../../pic32c/lib/thumb/v7e-m+fp/hard\libc_nano.a(lib_a-closer.o)
                0x0000e4c8                _close_r

.text._isatty_r%360
                0x0000e4e8       0x20
 .text._isatty_r
                0x0000e4e8       0x20 c:/program files/microchip/xc32/v3.01/bin/bin/../../lib/gcc/pic32c/8.3.1/../../../../pic32c/lib/thumb/v7e-m+fp/hard\libc_nano.a(lib_a-isattyr.o)
                0x0000e4e8                _isatty_r

.text.HW_GetALEventRegister_Isr%361
                0x0000e508       0x1e
 .text.HW_GetALEventRegister_Isr
                0x0000e508       0x1e build/LAN9255_SQI_DIRECT_MODE/production/_ext/108147519/LAN925x.o
                0x0000e508                HW_GetALEventRegister_Isr

.text.NVMCTRL_Initialize%362
                0x0000e528       0x1c
 .text.NVMCTRL_Initialize
                0x0000e528       0x1c build/LAN9255_SQI_DIRECT_MODE/production/_ext/1593096446/plib_nvmctrl.o
                0x0000e528                NVMCTRL_Initialize

.text.NVMCTRL_BankSwap%363
                0x0000e544       0x1c
 .text.NVMCTRL_BankSwap
                0x0000e544       0x1c build/LAN9255_SQI_DIRECT_MODE/production/_ext/1593096446/plib_nvmctrl.o
                0x0000e544                NVMCTRL_BankSwap

.text.PORT_GroupSet%364
                0x0000e560       0x1c
 .text.PORT_GroupSet
                0x0000e560       0x1c build/LAN9255_SQI_DIRECT_MODE/production/_ext/1865521619/plib_port.o
                0x0000e560                PORT_GroupSet

.text.PORT_GroupClear%365
                0x0000e57c       0x1c
 .text.PORT_GroupClear
                0x0000e57c       0x1c build/LAN9255_SQI_DIRECT_MODE/production/_ext/1865521619/plib_port.o
                0x0000e57c                PORT_GroupClear

.text.PORT_GroupOutputEnable%366
                0x0000e598       0x1c
 .text.PORT_GroupOutputEnable
                0x0000e598       0x1c build/LAN9255_SQI_DIRECT_MODE/production/_ext/1865521619/plib_port.o
                0x0000e598                PORT_GroupOutputEnable

.text.qspi_end_transfer%367
                0x0000e5b4       0x1c
 .text.qspi_end_transfer
                0x0000e5b4       0x1c build/LAN9255_SQI_DIRECT_MODE/production/_ext/1865555181/plib_qspi.o

.text.CRITICAL_SECTION_ENTER%368
                0x0000e5d0       0x1c
 .text.CRITICAL_SECTION_ENTER
                0x0000e5d0       0x1c build/LAN9255_SQI_DIRECT_MODE/production/_ext/1671622016/Drivers.o
                0x0000e5d0                CRITICAL_SECTION_ENTER

.text.CRITICAL_SECTION_LEAVE%369
                0x0000e5ec       0x1c
 .text.CRITICAL_SECTION_LEAVE
                0x0000e5ec       0x1c build/LAN9255_SQI_DIRECT_MODE/production/_ext/1671622016/Drivers.o
                0x0000e5ec                CRITICAL_SECTION_LEAVE

.text.ECAT_SysTick_Handler%370
                0x0000e608       0x1c
 .text.ECAT_SysTick_Handler
                0x0000e608       0x1c build/LAN9255_SQI_DIRECT_MODE/production/_ext/1671622016/Drivers.o
                0x0000e608                ECAT_SysTick_Handler

.rodata.aName0x1C12%371
                0x0000e624       0x1c
 .rodata.aName0x1C12
                0x0000e624       0x1c build/LAN9255_SQI_DIRECT_MODE/production/_ext/108134065/coeappl.o
                0x0000e624                aName0x1C12

.rodata.aName0x1C13%372
                0x0000e640       0x1c
 .rodata.aName0x1C13
                0x0000e640       0x1c build/LAN9255_SQI_DIRECT_MODE/production/_ext/108134065/coeappl.o
                0x0000e640                aName0x1C13

.text.memcpy%373
                0x0000e65c       0x1c
 .text.memcpy   0x0000e65c       0x1c c:/program files/microchip/xc32/v3.01/bin/bin/../../lib/gcc/pic32c/8.3.1/../../../../pic32c/lib/thumb/v7e-m+fp/hard\libc_nano.a(lib_a-memcpy-stub.o)
                0x0000e65c                memcpy

.text._fputwc_r%374
                0x0000e678       0x1c
 .text._fputwc_r
                0x0000e678       0x1c c:/program files/microchip/xc32/v3.01/bin/bin/../../lib/gcc/pic32c/8.3.1/../../../../pic32c/lib/thumb/v7e-m+fp/hard\libc_nano.a(lib_a-fputwc.o)
                0x0000e678                _fputwc_r

.text.__ascii_wctomb%375
                0x0000e694       0x1a
 .text.__ascii_wctomb
                0x0000e694       0x1a c:/program files/microchip/xc32/v3.01/bin/bin/../../lib/gcc/pic32c/8.3.1/../../../../pic32c/lib/thumb/v7e-m+fp/hard\libc_nano.a(lib_a-wctomb_r.o)
                0x0000e694                __ascii_wctomb

.text.OSC32KCTRL_Initialize%376
                0x0000e6b0       0x18
 .text.OSC32KCTRL_Initialize
                0x0000e6b0       0x18 build/LAN9255_SQI_DIRECT_MODE/production/_ext/1984496892/plib_clock.o

.text.SERCOM0_USART_ReadCountGet%377
                0x0000e6c8       0x18
 .text.SERCOM0_USART_ReadCountGet
                0x0000e6c8       0x18 build/LAN9255_SQI_DIRECT_MODE/production/_ext/504274921/plib_sercom0_usart.o
                0x0000e6c8                SERCOM0_USART_ReadCountGet

.text.PDI_Init_SYSTick_Interrupt%378
                0x0000e6e0       0x18
 .text.PDI_Init_SYSTick_Interrupt
                0x0000e6e0       0x18 build/LAN9255_SQI_DIRECT_MODE/production/_ext/1671622016/Drivers.o

.text.PDI_IRQ_Interrupt%379
                0x0000e6f8       0x18
 .text.PDI_IRQ_Interrupt
                0x0000e6f8       0x18 build/LAN9255_SQI_DIRECT_MODE/production/_ext/108147519/ESC_Utils.o
                0x0000e6f8                PDI_IRQ_Interrupt

.rodata.aName0x6021%380
                0x0000e710       0x18
 .rodata.aName0x6021
                0x0000e710       0x18 build/LAN9255_SQI_DIRECT_MODE/production/_ext/108134065/coeappl.o
                0x0000e710                aName0x6021

.text.COE_GetObjectDictionary%381
                0x0000e728       0x18
 .text.COE_GetObjectDictionary
                0x0000e728       0x18 build/LAN9255_SQI_DIRECT_MODE/production/_ext/108134065/coeappl.o
                0x0000e728                COE_GetObjectDictionary

.text.BackToInitTransition%382
                0x0000e740       0x18
 .text.BackToInitTransition
                0x0000e740       0x18 build/LAN9255_SQI_DIRECT_MODE/production/_ext/108134065/ecatslv.o
                0x0000e740                BackToInitTransition

.text.OBJ_GetObjDesc%383
                0x0000e758       0x18
 .text.OBJ_GetObjDesc
                0x0000e758       0x18 build/LAN9255_SQI_DIRECT_MODE/production/_ext/108134065/objdef.o
                0x0000e758                OBJ_GetObjDesc

.text.APP_FW_GetDownloadStateFinished%384
                0x0000e770       0x18
 .text.APP_FW_GetDownloadStateFinished
                0x0000e770       0x18 build/LAN9255_SQI_DIRECT_MODE/production/_ext/108134065/sample_app.o
                0x0000e770                APP_FW_GetDownloadStateFinished

.text.APP_Initialize%385
                0x0000e788       0x18
 .text.APP_Initialize
                0x0000e788       0x18 build/LAN9255_SQI_DIRECT_MODE/production/_ext/1360937237/app.o
                0x0000e788                APP_Initialize

.text._mon_getc%386
                0x0000e7a0       0x16
 .text._mon_getc
                0x0000e7a0       0x16 build/LAN9255_SQI_DIRECT_MODE/production/_ext/163028504/xc32_monitor.o
                0x0000e7a0                _mon_getc

.text._mon_putc%387
                0x0000e7b6       0x16
 .text._mon_putc
                0x0000e7b6       0x16 build/LAN9255_SQI_DIRECT_MODE/production/_ext/163028504/xc32_monitor.o
                0x0000e7b6                _mon_putc

.text.BL_Start%388
                0x0000e7cc       0x16
 .text.BL_Start
                0x0000e7cc       0x16 build/LAN9255_SQI_DIRECT_MODE/production/_ext/108134065/bootmode.o
                0x0000e7cc                BL_Start

.text.EMCY_GetEmcyBuffer%389
                0x0000e7e2       0x16
 .text.EMCY_GetEmcyBuffer
                0x0000e7e2       0x16 build/LAN9255_SQI_DIRECT_MODE/production/_ext/108134065/emcy.o
                0x0000e7e2                EMCY_GetEmcyBuffer

.text.APPL_AckErrorInd%390
                0x0000e7f8       0x16
 .text.APPL_AckErrorInd
                0x0000e7f8       0x16 build/LAN9255_SQI_DIRECT_MODE/production/_ext/108134065/sample_app.o
                0x0000e7f8                APPL_AckErrorInd

.text.APPL_StartInputHandler%391
                0x0000e80e       0x16
 .text.APPL_StartInputHandler
                0x0000e80e       0x16 build/LAN9255_SQI_DIRECT_MODE/production/_ext/108134065/sample_app.o
                0x0000e80e                APPL_StartInputHandler

.text.SERCOM0_USART_FrequencyGet%392
                0x0000e824       0x14
 .text.SERCOM0_USART_FrequencyGet
                0x0000e824       0x14 build/LAN9255_SQI_DIRECT_MODE/production/_ext/504274921/plib_sercom0_usart.o
                0x0000e824                SERCOM0_USART_FrequencyGet

.text.ESC_Sync0_cb%393
                0x0000e838       0x14
 .text.ESC_Sync0_cb
                0x0000e838       0x14 build/LAN9255_SQI_DIRECT_MODE/production/_ext/1671622016/Drivers.o
                0x0000e838                ESC_Sync0_cb

.text.ESC_Sync1_cb%394
                0x0000e84c       0x14
 .text.ESC_Sync1_cb
                0x0000e84c       0x14 build/LAN9255_SQI_DIRECT_MODE/production/_ext/1671622016/Drivers.o
                0x0000e84c                ESC_Sync1_cb

.rodata.asEntryDesc0x1A00%395
                0x0000e860       0x14
 .rodata.asEntryDesc0x1A00
                0x0000e860       0x14 build/LAN9255_SQI_DIRECT_MODE/production/_ext/108134065/coeappl.o
                0x0000e860                asEntryDesc0x1A00

.rodata.asEntryDesc0x6000%396
                0x0000e874       0x14
 .rodata.asEntryDesc0x6000
                0x0000e874       0x14 build/LAN9255_SQI_DIRECT_MODE/production/_ext/108134065/coeappl.o
                0x0000e874                asEntryDesc0x6000

.rodata.aName0x1009%397
                0x0000e888       0x14
 .rodata.aName0x1009
                0x0000e888       0x14 build/LAN9255_SQI_DIRECT_MODE/production/_ext/108134065/coeappl.o
                0x0000e888                aName0x1009

.rodata.aName0x100A%398
                0x0000e89c       0x14
 .rodata.aName0x100A
                0x0000e89c       0x14 build/LAN9255_SQI_DIRECT_MODE/production/_ext/108134065/coeappl.o
                0x0000e89c                aName0x100A

.rodata.asEntryDesc0x10F1%399
                0x0000e8b0       0x14
 .rodata.asEntryDesc0x10F1
                0x0000e8b0       0x14 build/LAN9255_SQI_DIRECT_MODE/production/_ext/108134065/coeappl.o
                0x0000e8b0                asEntryDesc0x10F1

.rodata.aName0x10F8%400
                0x0000e8c4       0x14
 .rodata.aName0x10F8
                0x0000e8c4       0x14 build/LAN9255_SQI_DIRECT_MODE/production/_ext/108134065/coeappl.o
                0x0000e8c4                aName0x10F8

.rodata.aName0x1C00%401
                0x0000e8d8       0x14
 .rodata.aName0x1C00
                0x0000e8d8       0x14 build/LAN9255_SQI_DIRECT_MODE/production/_ext/108134065/coeappl.o
                0x0000e8d8                aName0x1C00

.rodata%402     0x0000e8ec       0x14
 .rodata        0x0000e8ec       0x14 build/LAN9255_SQI_DIRECT_MODE/production/_ext/1360937237/app.o

.text.uart_tx_cb%403
                0x0000e900       0x14
 .text.uart_tx_cb
                0x0000e900       0x14 build/LAN9255_SQI_DIRECT_MODE/production/_ext/1360937237/app.o
                0x0000e900                uart_tx_cb

.text._vfprintf_cdnopuxX%404
                0x0000e914       0x14
 .text._vfprintf_cdnopuxX
                0x0000e914       0x14 c:/program files/microchip/xc32/v3.01/bin/bin/../../lib/gcc/pic32c/8.3.1/../../../../pic32c/lib/thumb/v7e-m+fp/hard\libc_nano.a(_lib_a-nano-vfprintf.cdnopuxX.o)
                0x0000e914                _vfprintf_cdnopuxX

.rodata.aName0x1001%405
                0x0000e928       0x10
 .rodata.aName0x1001
                0x0000e928       0x10 build/LAN9255_SQI_DIRECT_MODE/production/_ext/108134065/coeappl.o
                0x0000e928                aName0x1001

.text.APPL_StartMailboxHandler%406
                0x0000e938       0x10
 .text.APPL_StartMailboxHandler
                0x0000e938       0x10 build/LAN9255_SQI_DIRECT_MODE/production/_ext/108134065/sample_app.o
                0x0000e938                APPL_StartMailboxHandler

.text.APPL_StopInputHandler%407
                0x0000e948       0x10
 .text.APPL_StopInputHandler
                0x0000e948       0x10 build/LAN9255_SQI_DIRECT_MODE/production/_ext/108134065/sample_app.o
                0x0000e948                APPL_StopInputHandler

.text.APPL_StartOutputHandler%408
                0x0000e958       0x10
 .text.APPL_StartOutputHandler
                0x0000e958       0x10 build/LAN9255_SQI_DIRECT_MODE/production/_ext/108134065/sample_app.o
                0x0000e958                APPL_StartOutputHandler

.text.APPL_StopOutputHandler%409
                0x0000e968       0x10
 .text.APPL_StopOutputHandler
                0x0000e968       0x10 build/LAN9255_SQI_DIRECT_MODE/production/_ext/108134065/sample_app.o
                0x0000e968                APPL_StopOutputHandler

.text.main%410  0x0000e978       0x10
 .text.main     0x0000e978       0x10 build/LAN9255_SQI_DIRECT_MODE/production/_ext/1360937237/main.o
                0x0000e978                main

.text.malloc%411
                0x0000e988       0x10
 .text.malloc   0x0000e988       0x10 c:/program files/microchip/xc32/v3.01/bin/bin/../../lib/gcc/pic32c/8.3.1/../../../../pic32c/lib/thumb/v7e-m+fp/hard\libc_nano.a(lib_a-malloc.o)
                0x0000e988                malloc

.text.free%412  0x0000e998       0x10
 .text.free     0x0000e998       0x10 c:/program files/microchip/xc32/v3.01/bin/bin/../../lib/gcc/pic32c/8.3.1/../../../../pic32c/lib/thumb/v7e-m+fp/hard\libc_nano.a(lib_a-malloc.o)
                0x0000e998                free

.text.memset%413
                0x0000e9a8       0x10
 .text.memset   0x0000e9a8       0x10 c:/program files/microchip/xc32/v3.01/bin/bin/../../lib/gcc/pic32c/8.3.1/../../../../pic32c/lib/thumb/v7e-m+fp/hard\libc_nano.a(lib_a-memset.o)
                0x0000e9a8                memset

.text%414       0x0000e9b8       0x10
 .text          0x0000e9b8       0x10 c:/program files/microchip/xc32/v3.01/bin/bin/../../lib/gcc/pic32c/8.3.1/../../../../pic32c/lib/thumb/v7e-m+fp/hard\libc_nano.a(lib_a-strlen.o)
                0x0000e9b8                strlen

.text.OSCCTRL_Initialize%415
                0x0000e9c8        0xe
 .text.OSCCTRL_Initialize
                0x0000e9c8        0xe build/LAN9255_SQI_DIRECT_MODE/production/_ext/1984496892/plib_clock.o

.text.DFLL_Initialize%416
                0x0000e9d6        0xe
 .text.DFLL_Initialize
                0x0000e9d6        0xe build/LAN9255_SQI_DIRECT_MODE/production/_ext/1984496892/plib_clock.o

.text.EVSYS_Initialize%417
                0x0000e9e4        0xe
 .text.EVSYS_Initialize
                0x0000e9e4        0xe build/LAN9255_SQI_DIRECT_MODE/production/_ext/1986646378/plib_evsys.o
                0x0000e9e4                EVSYS_Initialize

.text.BL_Stop%418
                0x0000e9f2        0xe
 .text.BL_Stop  0x0000e9f2        0xe build/LAN9255_SQI_DIRECT_MODE/production/_ext/108134065/bootmode.o
                0x0000e9f2                BL_Stop

.text.APPL_StopMailboxHandler%419
                0x0000ea00        0xe
 .text.APPL_StopMailboxHandler
                0x0000ea00        0xe build/LAN9255_SQI_DIRECT_MODE/production/_ext/108134065/sample_app.o
                0x0000ea00                APPL_StopMailboxHandler

.text.SYS_Tasks%420
                0x0000ea0e        0xc
 .text.SYS_Tasks
                0x0000ea0e        0xc build/LAN9255_SQI_DIRECT_MODE/production/_ext/1171490990/tasks.o
                0x0000ea0e                SYS_Tasks

.text.PDI_Timer_Interrupt%421
                0x0000ea1a        0xc
 .text.PDI_Timer_Interrupt
                0x0000ea1a        0xc build/LAN9255_SQI_DIRECT_MODE/production/_ext/1671622016/Drivers.o
                0x0000ea1a                PDI_Timer_Interrupt

.text.ESC_Init%422
                0x0000ea26        0xc
 .text.ESC_Init
                0x0000ea26        0xc build/LAN9255_SQI_DIRECT_MODE/production/_ext/108147519/ESC_Utils.o
                0x0000ea26                ESC_Init

.rodata.asEntryDesc0x1A02%423
                0x0000ea34        0xc
 .rodata.asEntryDesc0x1A02
                0x0000ea34        0xc build/LAN9255_SQI_DIRECT_MODE/production/_ext/108134065/coeappl.o
                0x0000ea34                asEntryDesc0x1A02

.rodata.asEntryDesc0x1C12%424
                0x0000ea40        0xc
 .rodata.asEntryDesc0x1C12
                0x0000ea40        0xc build/LAN9255_SQI_DIRECT_MODE/production/_ext/108134065/coeappl.o
                0x0000ea40                asEntryDesc0x1C12

.rodata.asEntryDesc0x1C13%425
                0x0000ea4c        0xc
 .rodata.asEntryDesc0x1C13
                0x0000ea4c        0xc build/LAN9255_SQI_DIRECT_MODE/production/_ext/108134065/coeappl.o
                0x0000ea4c                asEntryDesc0x1C13

.rodata.asEntryDesc0x6021%426
                0x0000ea58        0xc
 .rodata.asEntryDesc0x6021
                0x0000ea58        0xc build/LAN9255_SQI_DIRECT_MODE/production/_ext/108134065/coeappl.o
                0x0000ea58                asEntryDesc0x6021

.rodata.aName0x1000%427
                0x0000ea64        0xc
 .rodata.aName0x1000
                0x0000ea64        0xc build/LAN9255_SQI_DIRECT_MODE/production/_ext/108134065/coeappl.o
                0x0000ea64                aName0x1000

.rodata.aName0x1008%428
                0x0000ea70        0xc
 .rodata.aName0x1008
                0x0000ea70        0xc build/LAN9255_SQI_DIRECT_MODE/production/_ext/108134065/coeappl.o
                0x0000ea70                aName0x1008

.rodata.asEntryDesc0x1C00%429
                0x0000ea7c        0xc
 .rodata.asEntryDesc0x1C00
                0x0000ea7c        0xc build/LAN9255_SQI_DIRECT_MODE/production/_ext/108134065/coeappl.o
                0x0000ea7c                asEntryDesc0x1C00

.text._cleanup_r%430
                0x0000ea88        0xc
 .text._cleanup_r
                0x0000ea88        0xc c:/program files/microchip/xc32/v3.01/bin/bin/../../lib/gcc/pic32c/8.3.1/../../../../pic32c/lib/thumb/v7e-m+fp/hard\libc_nano.a(lib_a-findfp.o)
                0x0000ea88                _cleanup_r

.text.__locale_mb_cur_max%431
                0x0000ea94        0xc
 .text.__locale_mb_cur_max
                0x0000ea94        0xc c:/program files/microchip/xc32/v3.01/bin/bin/../../lib/gcc/pic32c/8.3.1/../../../../pic32c/lib/thumb/v7e-m+fp/hard\libc_nano.a(lib_a-locale.o)
                0x0000ea94                __locale_mb_cur_max

.text.fstat%432
                0x0000eaa0        0xc
 .text.fstat    0x0000eaa0        0xc c:/program files/microchip/xc32/v3.01/bin/bin/../../lib/gcc/pic32c/8.3.1/../../../../pic32c/lib/thumb/v7e-m+fp/hard\libpic32c.a(fstat.o)
                0x0000eaa0                fstat

.rodata%433     0x0000eaac        0xb
 .rodata        0x0000eaac        0xb c:/program files/microchip/xc32/v3.01/bin/bin/../../lib/gcc/pic32c/8.3.1/../../../../pic32c/lib/thumb/v7e-m+fp/hard\libc_nano.a(lib_a-locale.o)

.rodata.sEntryDesc0x1000%434
                0x0000eab8        0x8
 .rodata.sEntryDesc0x1000
                0x0000eab8        0x8 build/LAN9255_SQI_DIRECT_MODE/production/_ext/108134065/coeappl.o
                0x0000eab8                sEntryDesc0x1000

.rodata.sEntryDesc0x1001%435
                0x0000eac0        0x8
 .rodata.sEntryDesc0x1001
                0x0000eac0        0x8 build/LAN9255_SQI_DIRECT_MODE/production/_ext/108134065/coeappl.o
                0x0000eac0                sEntryDesc0x1001

.rodata.sEntryDesc0x1008%436
                0x0000eac8        0x8
 .rodata.sEntryDesc0x1008
                0x0000eac8        0x8 build/LAN9255_SQI_DIRECT_MODE/production/_ext/108134065/coeappl.o
                0x0000eac8                sEntryDesc0x1008

.rodata.sEntryDesc0x1009%437
                0x0000ead0        0x8
 .rodata.sEntryDesc0x1009
                0x0000ead0        0x8 build/LAN9255_SQI_DIRECT_MODE/production/_ext/108134065/coeappl.o
                0x0000ead0                sEntryDesc0x1009

.rodata.sEntryDesc0x100A%438
                0x0000ead8        0x8
 .rodata.sEntryDesc0x100A
                0x0000ead8        0x8 build/LAN9255_SQI_DIRECT_MODE/production/_ext/108134065/coeappl.o
                0x0000ead8                sEntryDesc0x100A

.rodata.sEntryDesc0x10F8%439
                0x0000eae0        0x8
 .rodata.sEntryDesc0x10F8
                0x0000eae0        0x8 build/LAN9255_SQI_DIRECT_MODE/production/_ext/108134065/coeappl.o
                0x0000eae0                sEntryDesc0x10F8

.rodata.acEmcyCoeHeader%440
                0x0000eae8        0x8
 .rodata.acEmcyCoeHeader
                0x0000eae8        0x8 build/LAN9255_SQI_DIRECT_MODE/production/_ext/108134065/emcy.o
                0x0000eae8                acEmcyCoeHeader

.text.__sclose%441
                0x0000eaf0        0x8
 .text.__sclose
                0x0000eaf0        0x8 c:/program files/microchip/xc32/v3.01/bin/bin/../../lib/gcc/pic32c/8.3.1/../../../../pic32c/lib/thumb/v7e-m+fp/hard\libc_nano.a(lib_a-stdio.o)
                0x0000eaf0                __sclose

.text.close%442
                0x0000eaf8        0x8
 .text.close    0x0000eaf8        0x8 c:/program files/microchip/xc32/v3.01/bin/bin/../../lib/gcc/pic32c/8.3.1/../../../../pic32c/lib/thumb/v7e-m+fp/hard\libpic32c.a(close.o)
                0x0000eaf8                close

.text.NonMaskableInt_Handler%443
                0x0000eb00        0x6
 .text.NonMaskableInt_Handler
                0x0000eb00        0x6 build/LAN9255_SQI_DIRECT_MODE/production/_ext/1171490990/exceptions.o
                0x0000eb00                NonMaskableInt_Handler

.text.HardFault_Handler%444
                0x0000eb06        0x6
 .text.HardFault_Handler
                0x0000eb06        0x6 build/LAN9255_SQI_DIRECT_MODE/production/_ext/1171490990/exceptions.o
                0x0000eb06                HardFault_Handler

.text.DebugMonitor_Handler%445
                0x0000eb0c        0x6
 .text.DebugMonitor_Handler
                0x0000eb0c        0x6 build/LAN9255_SQI_DIRECT_MODE/production/_ext/1171490990/exceptions.o
                0x0000eb0c                DebugMonitor_Handler

.text.MemoryManagement_Handler%446
                0x0000eb12        0x6
 .text.MemoryManagement_Handler
                0x0000eb12        0x6 build/LAN9255_SQI_DIRECT_MODE/production/_ext/1171490990/exceptions.o
                0x0000eb12                MemoryManagement_Handler

.text.BusFault_Handler%447
                0x0000eb18        0x6
 .text.BusFault_Handler
                0x0000eb18        0x6 build/LAN9255_SQI_DIRECT_MODE/production/_ext/1171490990/exceptions.o
                0x0000eb18                BusFault_Handler

.text.UsageFault_Handler%448
                0x0000eb1e        0x6
 .text.UsageFault_Handler
                0x0000eb1e        0x6 build/LAN9255_SQI_DIRECT_MODE/production/_ext/1171490990/exceptions.o
                0x0000eb1e                UsageFault_Handler

.rodata%449     0x0000eb24        0x4
 .rodata        0x0000eb24        0x4 build/LAN9255_SQI_DIRECT_MODE/production/_ext/108134065/sample_app.o

.text%450       0x0000eb28        0x4
 .text          0x0000eb28        0x4 c:/program files/microchip/xc32/v3.01/bin/bin/../../lib/gcc/pic32c/8.3.1/thumb/v7e-m+fp/hard\libgcc.a(_dvmd_tls.o)
                0x0000eb28                __aeabi_idiv0
                0x0000eb28                __aeabi_ldiv0

.rodata._global_impure_ptr%451
                0x0000eb2c        0x4
 .rodata._global_impure_ptr
                0x0000eb2c        0x4 c:/program files/microchip/xc32/v3.01/bin/bin/../../lib/gcc/pic32c/8.3.1/../../../../pic32c/lib/thumb/v7e-m+fp/hard\libc_nano.a(lib_a-impure.o)
                0x0000eb2c                _global_impure_ptr

.text._close%452
                0x0000eb30        0x4
 .text._close   0x0000eb30        0x4 c:/program files/microchip/xc32/v3.01/bin/bin/../../lib/gcc/pic32c/8.3.1/../../../../pic32c/lib/thumb/v7e-m+fp/hard\libpic32c.a(_close.o)
                0x0000eb30                _close

.text._fstat%453
                0x0000eb34        0x4
 .text._fstat   0x0000eb34        0x4 c:/program files/microchip/xc32/v3.01/bin/bin/../../lib/gcc/pic32c/8.3.1/../../../../pic32c/lib/thumb/v7e-m+fp/hard\libpic32c.a(_fstat.o)
                0x0000eb34                _fstat

.text._isatty%454
                0x0000eb38        0x4
 .text._isatty  0x0000eb38        0x4 c:/program files/microchip/xc32/v3.01/bin/bin/../../lib/gcc/pic32c/8.3.1/../../../../pic32c/lib/thumb/v7e-m+fp/hard\libpic32c.a(_isatty.o)
                0x0000eb38                _isatty

.text._lseek%455
                0x0000eb3c        0x4
 .text._lseek   0x0000eb3c        0x4 c:/program files/microchip/xc32/v3.01/bin/bin/../../lib/gcc/pic32c/8.3.1/../../../../pic32c/lib/thumb/v7e-m+fp/hard\libpic32c.a(_lseek.o)
                0x0000eb3c                _lseek

.text._read%456
                0x0000eb40        0x4
 .text._read    0x0000eb40        0x4 c:/program files/microchip/xc32/v3.01/bin/bin/../../lib/gcc/pic32c/8.3.1/../../../../pic32c/lib/thumb/v7e-m+fp/hard\libpic32c.a(_read.o)
                0x0000eb40                _read

.text._write%457
                0x0000eb44        0x4
 .text._write   0x0000eb44        0x4 c:/program files/microchip/xc32/v3.01/bin/bin/../../lib/gcc/pic32c/8.3.1/../../../../pic32c/lib/thumb/v7e-m+fp/hard\libpic32c.a(_write.o)
                0x0000eb44                _write

.text.isatty%458
                0x0000eb48        0x4
 .text.isatty   0x0000eb48        0x4 c:/program files/microchip/xc32/v3.01/bin/bin/../../lib/gcc/pic32c/8.3.1/../../../../pic32c/lib/thumb/v7e-m+fp/hard\libpic32c.a(isatty.o)
                0x0000eb48                isatty

.text.lseek%459
                0x0000eb4c        0x4
 .text.lseek    0x0000eb4c        0x4 c:/program files/microchip/xc32/v3.01/bin/bin/../../lib/gcc/pic32c/8.3.1/../../../../pic32c/lib/thumb/v7e-m+fp/hard\libpic32c.a(lseek.o)
                0x0000eb4c                lseek

.text.Dummy_Handler%460
                0x00009826        0x2
 .text.Dummy_Handler
                0x00009826        0x2 build/LAN9255_SQI_DIRECT_MODE/production/_ext/1171490990/interrupts.o
                0x00009826                EIC_EXTINT_9_Handler
                0x00009826                TCC0_MC5_Handler
                0x00009826                SVCall_Handler
                0x00009826                USB_SOF_HSOF_Handler
                0x00009826                TCC4_OTHER_Handler
                0x00009826                TCC2_MC2_Handler
                0x00009826                EVSYS_0_Handler
                0x00009826                TRNG_Handler
                0x00009826                TC2_Handler
                0x00009826                USB_TRCPT0_Handler
                0x00009826                DAC_OTHER_Handler
                0x00009826                AC_Handler
                0x00009826                DAC_EMPTY_0_Handler
                0x00009826                DMAC_OTHER_Handler
                0x00009826                EIC_EXTINT_5_Handler
                0x00009826                SERCOM3_1_Handler
                0x00009826                SERCOM3_2_Handler
                0x00009826                EIC_EXTINT_6_Handler
                0x00009826                PendSV_Handler
                0x00009826                TCC4_MC0_Handler
                0x00009826                EVSYS_3_Handler
                0x00009826                QSPI_Handler
                0x00009826                TCC2_MC0_Handler
                0x00009826                PDEC_OTHER_Handler
                0x00009826                TCC3_MC0_Handler
                0x00009826                PDEC_MC1_Handler
                0x00009826                TCC2_MC1_Handler
                0x00009826                OSCCTRL_XOSC1_Handler
                0x00009826                PDEC_MC0_Handler
                0x00009826                EIC_EXTINT_4_Handler
                0x00009826                EVSYS_OTHER_Handler
                0x00009826                RTC_Handler
                0x00009826                TCC1_MC0_Handler
                0x00009826                SERCOM1_OTHER_Handler
                0x00009826                TCC2_OTHER_Handler
                0x00009826                EIC_EXTINT_11_Handler
                0x00009826                SUPC_BODDET_Handler
                0x00009826                EIC_EXTINT_14_Handler
                0x00009826                OSC32KCTRL_Handler
                0x00009826                EVSYS_1_Handler
                0x00009826                TCC4_MC1_Handler
                0x00009826                DMAC_0_Handler
                0x00009826                SUPC_OTHER_Handler
                0x00009826                WDT_Handler
                0x00009826                EIC_EXTINT_15_Handler
                0x00009826                TCC3_MC1_Handler
                0x00009826                SERCOM5_0_Handler
                0x00009826                TC4_Handler
                0x00009826                TC1_Handler
                0x00009826                TCC1_MC1_Handler
                0x00009826                TCC1_OTHER_Handler
                0x00009826                PAC_Handler
                0x00009826                TC3_Handler
                0x00009826                Dummy_Handler
                0x00009826                DAC_RESRDY_0_Handler
                0x00009826                SERCOM5_1_Handler
                0x00009826                DMAC_2_Handler
                0x00009826                TCC0_MC4_Handler
                0x00009826                USB_TRCPT1_Handler
                0x00009826                TCC0_MC3_Handler
                0x00009826                EIC_EXTINT_12_Handler
                0x00009826                OSCCTRL_DPLL0_Handler
                0x00009826                SERCOM5_OTHER_Handler
                0x00009826                PM_Handler
                0x00009826                OSCCTRL_DFLL_Handler
                0x00009826                DAC_RESRDY_1_Handler
                0x00009826                DMAC_1_Handler
                0x00009826                USB_OTHER_Handler
                0x00009826                GMAC_Handler
                0x00009826                TCC0_OTHER_Handler
                0x00009826                EIC_EXTINT_10_Handler
                0x00009826                TCC1_MC3_Handler
                0x00009826                OSCCTRL_XOSC0_Handler
                0x00009826                TCC0_MC0_Handler
                0x00009826                EIC_EXTINT_2_Handler
                0x00009826                SDHC0_Handler
                0x00009826                SERCOM1_1_Handler
                0x00009826                I2S_Handler
                0x00009826                PCC_Handler
                0x00009826                TCC3_OTHER_Handler
                0x00009826                EIC_EXTINT_13_Handler
                0x00009826                SERCOM1_0_Handler
                0x00009826                PUKCC_Handler
                0x00009826                SERCOM2_1_Handler
                0x00009826                SERCOM1_2_Handler
                0x00009826                SERCOM3_0_Handler
                0x00009826                TCC1_MC2_Handler
                0x00009826                ADC1_RESRDY_Handler
                0x00009826                NVMCTRL_1_Handler
                0x00009826                SERCOM5_2_Handler
                0x00009826                SERCOM2_2_Handler
                0x00009826                DAC_EMPTY_1_Handler
                0x00009826                ADC1_OTHER_Handler
                0x00009826                OSCCTRL_DPLL1_Handler
                0x00009826                EIC_EXTINT_3_Handler
                0x00009826                SERCOM3_OTHER_Handler
                0x00009826                EIC_EXTINT_8_Handler
                0x00009826                NVMCTRL_0_Handler
                0x00009826                ADC0_RESRDY_Handler
                0x00009826                ADC0_OTHER_Handler
                0x00009826                MCLK_Handler
                0x00009826                EVSYS_2_Handler
                0x00009826                SERCOM2_OTHER_Handler
                0x00009826                FREQM_Handler
                0x00009826                TC0_Handler
                0x00009826                TCC0_MC1_Handler
                0x00009826                DMAC_3_Handler
                0x00009826                RAMECC_Handler
                0x00009826                TC5_Handler
                0x00009826                SERCOM2_0_Handler
                0x00009826                AES_Handler
                0x00009826                ICM_Handler
                0x00009826                TCC0_MC2_Handler

.text.__malloc_lock%461
                0x00009ca2        0x2
 .text.__malloc_lock
                0x00009ca2        0x2 c:/program files/microchip/xc32/v3.01/bin/bin/../../lib/gcc/pic32c/8.3.1/../../../../pic32c/lib/thumb/v7e-m+fp/hard\libc_nano.a(lib_a-mlock.o)
                0x00009ca2                __malloc_lock

.text.__malloc_unlock%462
                0x0000a27a        0x2
 .text.__malloc_unlock
                0x0000a27a        0x2 c:/program files/microchip/xc32/v3.01/bin/bin/../../lib/gcc/pic32c/8.3.1/../../../../pic32c/lib/thumb/v7e-m+fp/hard\libc_nano.a(lib_a-mlock.o)
                0x0000a27a                __malloc_unlock
